
build_gd32/main.elf:     file format elf32-littlearm


Disassembly of section .vectors:

08000000 <__gVectors>:
 8000000:	2000c000 	andcs	ip, r0, r0
 8000004:	080006e1 	stmdaeq	r0, {r0, r5, r6, r7, r9, sl}
 8000008:	0800072d 	stmdaeq	r0, {r0, r2, r3, r5, r8, r9, sl}
 800000c:	0800072d 	stmdaeq	r0, {r0, r2, r3, r5, r8, r9, sl}
 8000010:	0800072d 	stmdaeq	r0, {r0, r2, r3, r5, r8, r9, sl}
 8000014:	0800072d 	stmdaeq	r0, {r0, r2, r3, r5, r8, r9, sl}
 8000018:	0800072d 	stmdaeq	r0, {r0, r2, r3, r5, r8, r9, sl}
	...
 800002c:	0800072d 	stmdaeq	r0, {r0, r2, r3, r5, r8, r9, sl}
 8000030:	0800072d 	stmdaeq	r0, {r0, r2, r3, r5, r8, r9, sl}
 8000034:	00000000 	andeq	r0, r0, r0
 8000038:	0800072d 	stmdaeq	r0, {r0, r2, r3, r5, r8, r9, sl}
 800003c:	08001b79 	stmdaeq	r0, {r0, r3, r4, r5, r6, r8, r9, fp, ip}
 8000040:	0800072d 	stmdaeq	r0, {r0, r2, r3, r5, r8, r9, sl}
 8000044:	0800072d 	stmdaeq	r0, {r0, r2, r3, r5, r8, r9, sl}
 8000048:	0800072d 	stmdaeq	r0, {r0, r2, r3, r5, r8, r9, sl}
 800004c:	0800072d 	stmdaeq	r0, {r0, r2, r3, r5, r8, r9, sl}
 8000050:	0800072d 	stmdaeq	r0, {r0, r2, r3, r5, r8, r9, sl}
 8000054:	0800072d 	stmdaeq	r0, {r0, r2, r3, r5, r8, r9, sl}
 8000058:	0800072d 	stmdaeq	r0, {r0, r2, r3, r5, r8, r9, sl}
 800005c:	0800072d 	stmdaeq	r0, {r0, r2, r3, r5, r8, r9, sl}
 8000060:	0800072d 	stmdaeq	r0, {r0, r2, r3, r5, r8, r9, sl}
 8000064:	0800072d 	stmdaeq	r0, {r0, r2, r3, r5, r8, r9, sl}
 8000068:	0800072d 	stmdaeq	r0, {r0, r2, r3, r5, r8, r9, sl}
 800006c:	0800072d 	stmdaeq	r0, {r0, r2, r3, r5, r8, r9, sl}
 8000070:	0800072d 	stmdaeq	r0, {r0, r2, r3, r5, r8, r9, sl}
 8000074:	0800072d 	stmdaeq	r0, {r0, r2, r3, r5, r8, r9, sl}
 8000078:	0800072d 	stmdaeq	r0, {r0, r2, r3, r5, r8, r9, sl}
 800007c:	0800072d 	stmdaeq	r0, {r0, r2, r3, r5, r8, r9, sl}
 8000080:	0800072d 	stmdaeq	r0, {r0, r2, r3, r5, r8, r9, sl}
 8000084:	0800072d 	stmdaeq	r0, {r0, r2, r3, r5, r8, r9, sl}
 8000088:	0800072d 	stmdaeq	r0, {r0, r2, r3, r5, r8, r9, sl}
 800008c:	0800072d 	stmdaeq	r0, {r0, r2, r3, r5, r8, r9, sl}
 8000090:	0800072d 	stmdaeq	r0, {r0, r2, r3, r5, r8, r9, sl}
 8000094:	0800072d 	stmdaeq	r0, {r0, r2, r3, r5, r8, r9, sl}
 8000098:	0800072d 	stmdaeq	r0, {r0, r2, r3, r5, r8, r9, sl}
 800009c:	0800072d 	stmdaeq	r0, {r0, r2, r3, r5, r8, r9, sl}
 80000a0:	0800072d 	stmdaeq	r0, {r0, r2, r3, r5, r8, r9, sl}
 80000a4:	0800072d 	stmdaeq	r0, {r0, r2, r3, r5, r8, r9, sl}
 80000a8:	0800072d 	stmdaeq	r0, {r0, r2, r3, r5, r8, r9, sl}
 80000ac:	0800072d 	stmdaeq	r0, {r0, r2, r3, r5, r8, r9, sl}
 80000b0:	0800072d 	stmdaeq	r0, {r0, r2, r3, r5, r8, r9, sl}
 80000b4:	0800072d 	stmdaeq	r0, {r0, r2, r3, r5, r8, r9, sl}
 80000b8:	0800072d 	stmdaeq	r0, {r0, r2, r3, r5, r8, r9, sl}
 80000bc:	0800072d 	stmdaeq	r0, {r0, r2, r3, r5, r8, r9, sl}
 80000c0:	0800072d 	stmdaeq	r0, {r0, r2, r3, r5, r8, r9, sl}
 80000c4:	0800072d 	stmdaeq	r0, {r0, r2, r3, r5, r8, r9, sl}
 80000c8:	0800072d 	stmdaeq	r0, {r0, r2, r3, r5, r8, r9, sl}
 80000cc:	0800072d 	stmdaeq	r0, {r0, r2, r3, r5, r8, r9, sl}
 80000d0:	0800072d 	stmdaeq	r0, {r0, r2, r3, r5, r8, r9, sl}
 80000d4:	0800072d 	stmdaeq	r0, {r0, r2, r3, r5, r8, r9, sl}
 80000d8:	0800072d 	stmdaeq	r0, {r0, r2, r3, r5, r8, r9, sl}
 80000dc:	0800072d 	stmdaeq	r0, {r0, r2, r3, r5, r8, r9, sl}
 80000e0:	0800072d 	stmdaeq	r0, {r0, r2, r3, r5, r8, r9, sl}
 80000e4:	0800072d 	stmdaeq	r0, {r0, r2, r3, r5, r8, r9, sl}
 80000e8:	0800072d 	stmdaeq	r0, {r0, r2, r3, r5, r8, r9, sl}
 80000ec:	0800072d 	stmdaeq	r0, {r0, r2, r3, r5, r8, r9, sl}
 80000f0:	0800072d 	stmdaeq	r0, {r0, r2, r3, r5, r8, r9, sl}
 80000f4:	0800072d 	stmdaeq	r0, {r0, r2, r3, r5, r8, r9, sl}
 80000f8:	00000000 	andeq	r0, r0, r0
 80000fc:	0800072d 	stmdaeq	r0, {r0, r2, r3, r5, r8, r9, sl}
 8000100:	0800072d 	stmdaeq	r0, {r0, r2, r3, r5, r8, r9, sl}
 8000104:	0800072d 	stmdaeq	r0, {r0, r2, r3, r5, r8, r9, sl}
 8000108:	0800072d 	stmdaeq	r0, {r0, r2, r3, r5, r8, r9, sl}
 800010c:	0800072d 	stmdaeq	r0, {r0, r2, r3, r5, r8, r9, sl}
 8000110:	0800072d 	stmdaeq	r0, {r0, r2, r3, r5, r8, r9, sl}
 8000114:	0800072d 	stmdaeq	r0, {r0, r2, r3, r5, r8, r9, sl}
 8000118:	0800072d 	stmdaeq	r0, {r0, r2, r3, r5, r8, r9, sl}
 800011c:	0800072d 	stmdaeq	r0, {r0, r2, r3, r5, r8, r9, sl}
 8000120:	0800072d 	stmdaeq	r0, {r0, r2, r3, r5, r8, r9, sl}
 8000124:	0800072d 	stmdaeq	r0, {r0, r2, r3, r5, r8, r9, sl}
 8000128:	0800072d 	stmdaeq	r0, {r0, r2, r3, r5, r8, r9, sl}
 800012c:	0800072d 	stmdaeq	r0, {r0, r2, r3, r5, r8, r9, sl}

Disassembly of section .text:

08000130 <console_init>:
 8000130:	b508      	push	{r3, lr}
 8000132:	f001 fcc3 	bl	8001abc <uart0_init>
 8000136:	4804      	ldr	r0, [pc, #16]	; (8000148 <console_init+0x18>)
 8000138:	f001 fcf0 	bl	8001b1c <uart0_puts>
 800013c:	4803      	ldr	r0, [pc, #12]	; (800014c <console_init+0x1c>)
 800013e:	f001 fced 	bl	8001b1c <uart0_puts>
 8000142:	2000      	movs	r0, #0
 8000144:	bd08      	pop	{r3, pc}
 8000146:	bf00      	nop
 8000148:	08002f00 	stmdaeq	r0, {r8, r9, sl, fp, sp}
 800014c:	08002f06 	stmdaeq	r0, {r1, r2, r8, r9, sl, fp, sp}

08000150 <__aeabi_fmul>:
 8000150:	f04f 0cff 	mov.w	ip, #255	; 0xff
 8000154:	ea1c 52d0 	ands.w	r2, ip, r0, lsr #23
 8000158:	bf1e      	ittt	ne
 800015a:	ea1c 53d1 	andsne.w	r3, ip, r1, lsr #23
 800015e:	ea92 0f0c 	teqne	r2, ip
 8000162:	ea93 0f0c 	teqne	r3, ip
 8000166:	d06f      	beq.n	8000248 <__aeabi_fmul+0xf8>
 8000168:	441a      	add	r2, r3
 800016a:	ea80 0c01 	eor.w	ip, r0, r1
 800016e:	0240      	lsls	r0, r0, #9
 8000170:	bf18      	it	ne
 8000172:	ea5f 2141 	movsne.w	r1, r1, lsl #9
 8000176:	d01e      	beq.n	80001b6 <__aeabi_fmul+0x66>
 8000178:	f04f 6300 	mov.w	r3, #134217728	; 0x8000000
 800017c:	ea43 1050 	orr.w	r0, r3, r0, lsr #5
 8000180:	ea43 1151 	orr.w	r1, r3, r1, lsr #5
 8000184:	fba0 3101 	umull	r3, r1, r0, r1
 8000188:	f00c 4000 	and.w	r0, ip, #2147483648	; 0x80000000
 800018c:	f5b1 0f00 	cmp.w	r1, #8388608	; 0x800000
 8000190:	bf3e      	ittt	cc
 8000192:	0049      	lslcc	r1, r1, #1
 8000194:	ea41 71d3 	orrcc.w	r1, r1, r3, lsr #31
 8000198:	005b      	lslcc	r3, r3, #1
 800019a:	ea40 0001 	orr.w	r0, r0, r1
 800019e:	f162 027f 	sbc.w	r2, r2, #127	; 0x7f
 80001a2:	2afd      	cmp	r2, #253	; 0xfd
 80001a4:	d81d      	bhi.n	80001e2 <__aeabi_fmul+0x92>
 80001a6:	f1b3 4f00 	cmp.w	r3, #2147483648	; 0x80000000
 80001aa:	eb40 50c2 	adc.w	r0, r0, r2, lsl #23
 80001ae:	bf08      	it	eq
 80001b0:	f020 0001 	biceq.w	r0, r0, #1
 80001b4:	4770      	bx	lr
 80001b6:	f090 0f00 	teq	r0, #0
 80001ba:	f00c 4c00 	and.w	ip, ip, #2147483648	; 0x80000000
 80001be:	bf08      	it	eq
 80001c0:	0249      	lsleq	r1, r1, #9
 80001c2:	ea4c 2050 	orr.w	r0, ip, r0, lsr #9
 80001c6:	ea40 2051 	orr.w	r0, r0, r1, lsr #9
 80001ca:	3a7f      	subs	r2, #127	; 0x7f
 80001cc:	bfc2      	ittt	gt
 80001ce:	f1d2 03ff 	rsbsgt	r3, r2, #255	; 0xff
 80001d2:	ea40 50c2 	orrgt.w	r0, r0, r2, lsl #23
 80001d6:	4770      	bxgt	lr
 80001d8:	f440 0000 	orr.w	r0, r0, #8388608	; 0x800000
 80001dc:	f04f 0300 	mov.w	r3, #0
 80001e0:	3a01      	subs	r2, #1
 80001e2:	dc5d      	bgt.n	80002a0 <__aeabi_fmul+0x150>
 80001e4:	f112 0f19 	cmn.w	r2, #25
 80001e8:	bfdc      	itt	le
 80001ea:	f000 4000 	andle.w	r0, r0, #2147483648	; 0x80000000
 80001ee:	4770      	bxle	lr
 80001f0:	f1c2 0200 	rsb	r2, r2, #0
 80001f4:	0041      	lsls	r1, r0, #1
 80001f6:	fa21 f102 	lsr.w	r1, r1, r2
 80001fa:	f1c2 0220 	rsb	r2, r2, #32
 80001fe:	fa00 fc02 	lsl.w	ip, r0, r2
 8000202:	ea5f 0031 	movs.w	r0, r1, rrx
 8000206:	f140 0000 	adc.w	r0, r0, #0
 800020a:	ea53 034c 	orrs.w	r3, r3, ip, lsl #1
 800020e:	bf08      	it	eq
 8000210:	ea20 70dc 	biceq.w	r0, r0, ip, lsr #31
 8000214:	4770      	bx	lr
 8000216:	f092 0f00 	teq	r2, #0
 800021a:	f000 4c00 	and.w	ip, r0, #2147483648	; 0x80000000
 800021e:	bf02      	ittt	eq
 8000220:	0040      	lsleq	r0, r0, #1
 8000222:	f410 0f00 	tsteq.w	r0, #8388608	; 0x800000
 8000226:	3a01      	subeq	r2, #1
 8000228:	d0f9      	beq.n	800021e <__aeabi_fmul+0xce>
 800022a:	ea40 000c 	orr.w	r0, r0, ip
 800022e:	f093 0f00 	teq	r3, #0
 8000232:	f001 4c00 	and.w	ip, r1, #2147483648	; 0x80000000
 8000236:	bf02      	ittt	eq
 8000238:	0049      	lsleq	r1, r1, #1
 800023a:	f411 0f00 	tsteq.w	r1, #8388608	; 0x800000
 800023e:	3b01      	subeq	r3, #1
 8000240:	d0f9      	beq.n	8000236 <__aeabi_fmul+0xe6>
 8000242:	ea41 010c 	orr.w	r1, r1, ip
 8000246:	e78f      	b.n	8000168 <__aeabi_fmul+0x18>
 8000248:	ea0c 53d1 	and.w	r3, ip, r1, lsr #23
 800024c:	ea92 0f0c 	teq	r2, ip
 8000250:	bf18      	it	ne
 8000252:	ea93 0f0c 	teqne	r3, ip
 8000256:	d00a      	beq.n	800026e <__aeabi_fmul+0x11e>
 8000258:	f030 4c00 	bics.w	ip, r0, #2147483648	; 0x80000000
 800025c:	bf18      	it	ne
 800025e:	f031 4c00 	bicsne.w	ip, r1, #2147483648	; 0x80000000
 8000262:	d1d8      	bne.n	8000216 <__aeabi_fmul+0xc6>
 8000264:	ea80 0001 	eor.w	r0, r0, r1
 8000268:	f000 4000 	and.w	r0, r0, #2147483648	; 0x80000000
 800026c:	4770      	bx	lr
 800026e:	f090 0f00 	teq	r0, #0
 8000272:	bf17      	itett	ne
 8000274:	f090 4f00 	teqne	r0, #2147483648	; 0x80000000
 8000278:	4608      	moveq	r0, r1
 800027a:	f091 0f00 	teqne	r1, #0
 800027e:	f091 4f00 	teqne	r1, #2147483648	; 0x80000000
 8000282:	d014      	beq.n	80002ae <__aeabi_fmul+0x15e>
 8000284:	ea92 0f0c 	teq	r2, ip
 8000288:	d101      	bne.n	800028e <__aeabi_fmul+0x13e>
 800028a:	0242      	lsls	r2, r0, #9
 800028c:	d10f      	bne.n	80002ae <__aeabi_fmul+0x15e>
 800028e:	ea93 0f0c 	teq	r3, ip
 8000292:	d103      	bne.n	800029c <__aeabi_fmul+0x14c>
 8000294:	024b      	lsls	r3, r1, #9
 8000296:	bf18      	it	ne
 8000298:	4608      	movne	r0, r1
 800029a:	d108      	bne.n	80002ae <__aeabi_fmul+0x15e>
 800029c:	ea80 0001 	eor.w	r0, r0, r1
 80002a0:	f000 4000 	and.w	r0, r0, #2147483648	; 0x80000000
 80002a4:	f040 40fe 	orr.w	r0, r0, #2130706432	; 0x7f000000
 80002a8:	f440 0000 	orr.w	r0, r0, #8388608	; 0x800000
 80002ac:	4770      	bx	lr
 80002ae:	f040 40fe 	orr.w	r0, r0, #2130706432	; 0x7f000000
 80002b2:	f440 0040 	orr.w	r0, r0, #12582912	; 0xc00000
 80002b6:	4770      	bx	lr

080002b8 <__aeabi_d2f>:
 80002b8:	ea4f 0241 	mov.w	r2, r1, lsl #1
 80002bc:	f1b2 43e0 	subs.w	r3, r2, #1879048192	; 0x70000000
 80002c0:	bf24      	itt	cs
 80002c2:	f5b3 1c00 	subscs.w	ip, r3, #2097152	; 0x200000
 80002c6:	f1dc 5cfe 	rsbscs	ip, ip, #532676608	; 0x1fc00000
 80002ca:	d90d      	bls.n	80002e8 <__aeabi_d2f+0x30>
 80002cc:	f001 4c00 	and.w	ip, r1, #2147483648	; 0x80000000
 80002d0:	ea4f 02c0 	mov.w	r2, r0, lsl #3
 80002d4:	ea4c 7050 	orr.w	r0, ip, r0, lsr #29
 80002d8:	f1b2 4f00 	cmp.w	r2, #2147483648	; 0x80000000
 80002dc:	eb40 0083 	adc.w	r0, r0, r3, lsl #2
 80002e0:	bf08      	it	eq
 80002e2:	f020 0001 	biceq.w	r0, r0, #1
 80002e6:	4770      	bx	lr
 80002e8:	f011 4f80 	tst.w	r1, #1073741824	; 0x40000000
 80002ec:	d121      	bne.n	8000332 <__aeabi_d2f+0x7a>
 80002ee:	f113 7238 	adds.w	r2, r3, #48234496	; 0x2e00000
 80002f2:	bfbc      	itt	lt
 80002f4:	f001 4000 	andlt.w	r0, r1, #2147483648	; 0x80000000
 80002f8:	4770      	bxlt	lr
 80002fa:	f441 1180 	orr.w	r1, r1, #1048576	; 0x100000
 80002fe:	ea4f 5252 	mov.w	r2, r2, lsr #21
 8000302:	f1c2 0218 	rsb	r2, r2, #24
 8000306:	f1c2 0c20 	rsb	ip, r2, #32
 800030a:	fa10 f30c 	lsls.w	r3, r0, ip
 800030e:	fa20 f002 	lsr.w	r0, r0, r2
 8000312:	bf18      	it	ne
 8000314:	f040 0001 	orrne.w	r0, r0, #1
 8000318:	ea4f 23c1 	mov.w	r3, r1, lsl #11
 800031c:	ea4f 23d3 	mov.w	r3, r3, lsr #11
 8000320:	fa03 fc0c 	lsl.w	ip, r3, ip
 8000324:	ea40 000c 	orr.w	r0, r0, ip
 8000328:	fa23 f302 	lsr.w	r3, r3, r2
 800032c:	ea4f 0343 	mov.w	r3, r3, lsl #1
 8000330:	e7cc      	b.n	80002cc <__aeabi_d2f+0x14>
 8000332:	ea7f 5362 	mvns.w	r3, r2, asr #21
 8000336:	d107      	bne.n	8000348 <__aeabi_d2f+0x90>
 8000338:	ea50 3301 	orrs.w	r3, r0, r1, lsl #12
 800033c:	bf1e      	ittt	ne
 800033e:	f04f 40fe 	movne.w	r0, #2130706432	; 0x7f000000
 8000342:	f440 0040 	orrne.w	r0, r0, #12582912	; 0xc00000
 8000346:	4770      	bxne	lr
 8000348:	f001 4000 	and.w	r0, r1, #2147483648	; 0x80000000
 800034c:	f040 40fe 	orr.w	r0, r0, #2130706432	; 0x7f000000
 8000350:	f440 0000 	orr.w	r0, r0, #8388608	; 0x800000
 8000354:	4770      	bx	lr
 8000356:	bf00      	nop

08000358 <__aeabi_frsub>:
 8000358:	f080 4000 	eor.w	r0, r0, #2147483648	; 0x80000000
 800035c:	e002      	b.n	8000364 <__addsf3>
 800035e:	bf00      	nop

08000360 <__aeabi_fsub>:
 8000360:	f081 4100 	eor.w	r1, r1, #2147483648	; 0x80000000

08000364 <__addsf3>:
 8000364:	0042      	lsls	r2, r0, #1
 8000366:	bf1f      	itttt	ne
 8000368:	ea5f 0341 	movsne.w	r3, r1, lsl #1
 800036c:	ea92 0f03 	teqne	r2, r3
 8000370:	ea7f 6c22 	mvnsne.w	ip, r2, asr #24
 8000374:	ea7f 6c23 	mvnsne.w	ip, r3, asr #24
 8000378:	d06a      	beq.n	8000450 <__addsf3+0xec>
 800037a:	ea4f 6212 	mov.w	r2, r2, lsr #24
 800037e:	ebd2 6313 	rsbs	r3, r2, r3, lsr #24
 8000382:	bfc1      	itttt	gt
 8000384:	18d2      	addgt	r2, r2, r3
 8000386:	4041      	eorgt	r1, r0
 8000388:	4048      	eorgt	r0, r1
 800038a:	4041      	eorgt	r1, r0
 800038c:	bfb8      	it	lt
 800038e:	425b      	neglt	r3, r3
 8000390:	2b19      	cmp	r3, #25
 8000392:	bf88      	it	hi
 8000394:	4770      	bxhi	lr
 8000396:	f010 4f00 	tst.w	r0, #2147483648	; 0x80000000
 800039a:	f440 0000 	orr.w	r0, r0, #8388608	; 0x800000
 800039e:	f020 407f 	bic.w	r0, r0, #4278190080	; 0xff000000
 80003a2:	bf18      	it	ne
 80003a4:	4240      	negne	r0, r0
 80003a6:	f011 4f00 	tst.w	r1, #2147483648	; 0x80000000
 80003aa:	f441 0100 	orr.w	r1, r1, #8388608	; 0x800000
 80003ae:	f021 417f 	bic.w	r1, r1, #4278190080	; 0xff000000
 80003b2:	bf18      	it	ne
 80003b4:	4249      	negne	r1, r1
 80003b6:	ea92 0f03 	teq	r2, r3
 80003ba:	d03f      	beq.n	800043c <__addsf3+0xd8>
 80003bc:	f1a2 0201 	sub.w	r2, r2, #1
 80003c0:	fa41 fc03 	asr.w	ip, r1, r3
 80003c4:	eb10 000c 	adds.w	r0, r0, ip
 80003c8:	f1c3 0320 	rsb	r3, r3, #32
 80003cc:	fa01 f103 	lsl.w	r1, r1, r3
 80003d0:	f000 4300 	and.w	r3, r0, #2147483648	; 0x80000000
 80003d4:	d502      	bpl.n	80003dc <__addsf3+0x78>
 80003d6:	4249      	negs	r1, r1
 80003d8:	eb60 0040 	sbc.w	r0, r0, r0, lsl #1
 80003dc:	f5b0 0f00 	cmp.w	r0, #8388608	; 0x800000
 80003e0:	d313      	bcc.n	800040a <__addsf3+0xa6>
 80003e2:	f1b0 7f80 	cmp.w	r0, #16777216	; 0x1000000
 80003e6:	d306      	bcc.n	80003f6 <__addsf3+0x92>
 80003e8:	0840      	lsrs	r0, r0, #1
 80003ea:	ea4f 0131 	mov.w	r1, r1, rrx
 80003ee:	f102 0201 	add.w	r2, r2, #1
 80003f2:	2afe      	cmp	r2, #254	; 0xfe
 80003f4:	d251      	bcs.n	800049a <__addsf3+0x136>
 80003f6:	f1b1 4f00 	cmp.w	r1, #2147483648	; 0x80000000
 80003fa:	eb40 50c2 	adc.w	r0, r0, r2, lsl #23
 80003fe:	bf08      	it	eq
 8000400:	f020 0001 	biceq.w	r0, r0, #1
 8000404:	ea40 0003 	orr.w	r0, r0, r3
 8000408:	4770      	bx	lr
 800040a:	0049      	lsls	r1, r1, #1
 800040c:	eb40 0000 	adc.w	r0, r0, r0
 8000410:	3a01      	subs	r2, #1
 8000412:	bf28      	it	cs
 8000414:	f5b0 0f00 	cmpcs.w	r0, #8388608	; 0x800000
 8000418:	d2ed      	bcs.n	80003f6 <__addsf3+0x92>
 800041a:	fab0 fc80 	clz	ip, r0
 800041e:	f1ac 0c08 	sub.w	ip, ip, #8
 8000422:	ebb2 020c 	subs.w	r2, r2, ip
 8000426:	fa00 f00c 	lsl.w	r0, r0, ip
 800042a:	bfaa      	itet	ge
 800042c:	eb00 50c2 	addge.w	r0, r0, r2, lsl #23
 8000430:	4252      	neglt	r2, r2
 8000432:	4318      	orrge	r0, r3
 8000434:	bfbc      	itt	lt
 8000436:	40d0      	lsrlt	r0, r2
 8000438:	4318      	orrlt	r0, r3
 800043a:	4770      	bx	lr
 800043c:	f092 0f00 	teq	r2, #0
 8000440:	f481 0100 	eor.w	r1, r1, #8388608	; 0x800000
 8000444:	bf06      	itte	eq
 8000446:	f480 0000 	eoreq.w	r0, r0, #8388608	; 0x800000
 800044a:	3201      	addeq	r2, #1
 800044c:	3b01      	subne	r3, #1
 800044e:	e7b5      	b.n	80003bc <__addsf3+0x58>
 8000450:	ea4f 0341 	mov.w	r3, r1, lsl #1
 8000454:	ea7f 6c22 	mvns.w	ip, r2, asr #24
 8000458:	bf18      	it	ne
 800045a:	ea7f 6c23 	mvnsne.w	ip, r3, asr #24
 800045e:	d021      	beq.n	80004a4 <__addsf3+0x140>
 8000460:	ea92 0f03 	teq	r2, r3
 8000464:	d004      	beq.n	8000470 <__addsf3+0x10c>
 8000466:	f092 0f00 	teq	r2, #0
 800046a:	bf08      	it	eq
 800046c:	4608      	moveq	r0, r1
 800046e:	4770      	bx	lr
 8000470:	ea90 0f01 	teq	r0, r1
 8000474:	bf1c      	itt	ne
 8000476:	2000      	movne	r0, #0
 8000478:	4770      	bxne	lr
 800047a:	f012 4f7f 	tst.w	r2, #4278190080	; 0xff000000
 800047e:	d104      	bne.n	800048a <__addsf3+0x126>
 8000480:	0040      	lsls	r0, r0, #1
 8000482:	bf28      	it	cs
 8000484:	f040 4000 	orrcs.w	r0, r0, #2147483648	; 0x80000000
 8000488:	4770      	bx	lr
 800048a:	f112 7200 	adds.w	r2, r2, #33554432	; 0x2000000
 800048e:	bf3c      	itt	cc
 8000490:	f500 0000 	addcc.w	r0, r0, #8388608	; 0x800000
 8000494:	4770      	bxcc	lr
 8000496:	f000 4300 	and.w	r3, r0, #2147483648	; 0x80000000
 800049a:	f043 40fe 	orr.w	r0, r3, #2130706432	; 0x7f000000
 800049e:	f440 0000 	orr.w	r0, r0, #8388608	; 0x800000
 80004a2:	4770      	bx	lr
 80004a4:	ea7f 6222 	mvns.w	r2, r2, asr #24
 80004a8:	bf16      	itet	ne
 80004aa:	4608      	movne	r0, r1
 80004ac:	ea7f 6323 	mvnseq.w	r3, r3, asr #24
 80004b0:	4601      	movne	r1, r0
 80004b2:	0242      	lsls	r2, r0, #9
 80004b4:	bf06      	itte	eq
 80004b6:	ea5f 2341 	movseq.w	r3, r1, lsl #9
 80004ba:	ea90 0f01 	teqeq	r0, r1
 80004be:	f440 0080 	orrne.w	r0, r0, #4194304	; 0x400000
 80004c2:	4770      	bx	lr

080004c4 <__aeabi_ui2f>:
 80004c4:	f04f 0300 	mov.w	r3, #0
 80004c8:	e004      	b.n	80004d4 <__aeabi_i2f+0x8>
 80004ca:	bf00      	nop

080004cc <__aeabi_i2f>:
 80004cc:	f010 4300 	ands.w	r3, r0, #2147483648	; 0x80000000
 80004d0:	bf48      	it	mi
 80004d2:	4240      	negmi	r0, r0
 80004d4:	ea5f 0c00 	movs.w	ip, r0
 80004d8:	bf08      	it	eq
 80004da:	4770      	bxeq	lr
 80004dc:	f043 4396 	orr.w	r3, r3, #1258291200	; 0x4b000000
 80004e0:	4601      	mov	r1, r0
 80004e2:	f04f 0000 	mov.w	r0, #0
 80004e6:	e01c      	b.n	8000522 <__aeabi_l2f+0x2a>

080004e8 <__aeabi_ul2f>:
 80004e8:	ea50 0201 	orrs.w	r2, r0, r1
 80004ec:	bf08      	it	eq
 80004ee:	4770      	bxeq	lr
 80004f0:	f04f 0300 	mov.w	r3, #0
 80004f4:	e00a      	b.n	800050c <__aeabi_l2f+0x14>
 80004f6:	bf00      	nop

080004f8 <__aeabi_l2f>:
 80004f8:	ea50 0201 	orrs.w	r2, r0, r1
 80004fc:	bf08      	it	eq
 80004fe:	4770      	bxeq	lr
 8000500:	f011 4300 	ands.w	r3, r1, #2147483648	; 0x80000000
 8000504:	d502      	bpl.n	800050c <__aeabi_l2f+0x14>
 8000506:	4240      	negs	r0, r0
 8000508:	eb61 0141 	sbc.w	r1, r1, r1, lsl #1
 800050c:	ea5f 0c01 	movs.w	ip, r1
 8000510:	bf02      	ittt	eq
 8000512:	4684      	moveq	ip, r0
 8000514:	4601      	moveq	r1, r0
 8000516:	2000      	moveq	r0, #0
 8000518:	f043 43b6 	orr.w	r3, r3, #1526726656	; 0x5b000000
 800051c:	bf08      	it	eq
 800051e:	f1a3 5380 	subeq.w	r3, r3, #268435456	; 0x10000000
 8000522:	f5a3 0300 	sub.w	r3, r3, #8388608	; 0x800000
 8000526:	fabc f28c 	clz	r2, ip
 800052a:	3a08      	subs	r2, #8
 800052c:	eba3 53c2 	sub.w	r3, r3, r2, lsl #23
 8000530:	db10      	blt.n	8000554 <__aeabi_l2f+0x5c>
 8000532:	fa01 fc02 	lsl.w	ip, r1, r2
 8000536:	4463      	add	r3, ip
 8000538:	fa00 fc02 	lsl.w	ip, r0, r2
 800053c:	f1c2 0220 	rsb	r2, r2, #32
 8000540:	f1bc 4f00 	cmp.w	ip, #2147483648	; 0x80000000
 8000544:	fa20 f202 	lsr.w	r2, r0, r2
 8000548:	eb43 0002 	adc.w	r0, r3, r2
 800054c:	bf08      	it	eq
 800054e:	f020 0001 	biceq.w	r0, r0, #1
 8000552:	4770      	bx	lr
 8000554:	f102 0220 	add.w	r2, r2, #32
 8000558:	fa01 fc02 	lsl.w	ip, r1, r2
 800055c:	f1c2 0220 	rsb	r2, r2, #32
 8000560:	ea50 004c 	orrs.w	r0, r0, ip, lsl #1
 8000564:	fa21 f202 	lsr.w	r2, r1, r2
 8000568:	eb43 0002 	adc.w	r0, r3, r2
 800056c:	bf08      	it	eq
 800056e:	ea20 70dc 	biceq.w	r0, r0, ip, lsr #31
 8000572:	4770      	bx	lr

08000574 <__gesf2>:
 8000574:	f04f 3cff 	mov.w	ip, #4294967295	; 0xffffffff
 8000578:	e006      	b.n	8000588 <__cmpsf2+0x4>
 800057a:	bf00      	nop

0800057c <__lesf2>:
 800057c:	f04f 0c01 	mov.w	ip, #1
 8000580:	e002      	b.n	8000588 <__cmpsf2+0x4>
 8000582:	bf00      	nop

08000584 <__cmpsf2>:
 8000584:	f04f 0c01 	mov.w	ip, #1
 8000588:	f84d cd04 	str.w	ip, [sp, #-4]!
 800058c:	ea4f 0240 	mov.w	r2, r0, lsl #1
 8000590:	ea4f 0341 	mov.w	r3, r1, lsl #1
 8000594:	ea7f 6c22 	mvns.w	ip, r2, asr #24
 8000598:	bf18      	it	ne
 800059a:	ea7f 6c23 	mvnsne.w	ip, r3, asr #24
 800059e:	d011      	beq.n	80005c4 <__cmpsf2+0x40>
 80005a0:	b001      	add	sp, #4
 80005a2:	ea52 0c53 	orrs.w	ip, r2, r3, lsr #1
 80005a6:	bf18      	it	ne
 80005a8:	ea90 0f01 	teqne	r0, r1
 80005ac:	bf58      	it	pl
 80005ae:	ebb2 0003 	subspl.w	r0, r2, r3
 80005b2:	bf88      	it	hi
 80005b4:	17c8      	asrhi	r0, r1, #31
 80005b6:	bf38      	it	cc
 80005b8:	ea6f 70e1 	mvncc.w	r0, r1, asr #31
 80005bc:	bf18      	it	ne
 80005be:	f040 0001 	orrne.w	r0, r0, #1
 80005c2:	4770      	bx	lr
 80005c4:	ea7f 6c22 	mvns.w	ip, r2, asr #24
 80005c8:	d102      	bne.n	80005d0 <__cmpsf2+0x4c>
 80005ca:	ea5f 2c40 	movs.w	ip, r0, lsl #9
 80005ce:	d105      	bne.n	80005dc <__cmpsf2+0x58>
 80005d0:	ea7f 6c23 	mvns.w	ip, r3, asr #24
 80005d4:	d1e4      	bne.n	80005a0 <__cmpsf2+0x1c>
 80005d6:	ea5f 2c41 	movs.w	ip, r1, lsl #9
 80005da:	d0e1      	beq.n	80005a0 <__cmpsf2+0x1c>
 80005dc:	f85d 0b04 	ldr.w	r0, [sp], #4
 80005e0:	4770      	bx	lr
 80005e2:	bf00      	nop

080005e4 <__aeabi_cfrcmple>:
 80005e4:	4684      	mov	ip, r0
 80005e6:	4608      	mov	r0, r1
 80005e8:	4661      	mov	r1, ip
 80005ea:	e7ff      	b.n	80005ec <__aeabi_cfcmpeq>

080005ec <__aeabi_cfcmpeq>:
 80005ec:	b50f      	push	{r0, r1, r2, r3, lr}
 80005ee:	f7ff ffc9 	bl	8000584 <__cmpsf2>
 80005f2:	2800      	cmp	r0, #0
 80005f4:	bf48      	it	mi
 80005f6:	f110 0f00 	cmnmi.w	r0, #0
 80005fa:	bd0f      	pop	{r0, r1, r2, r3, pc}

080005fc <__aeabi_fcmpeq>:
 80005fc:	f84d ed08 	str.w	lr, [sp, #-8]!
 8000600:	f7ff fff4 	bl	80005ec <__aeabi_cfcmpeq>
 8000604:	bf0c      	ite	eq
 8000606:	2001      	moveq	r0, #1
 8000608:	2000      	movne	r0, #0
 800060a:	f85d fb08 	ldr.w	pc, [sp], #8
 800060e:	bf00      	nop

08000610 <__aeabi_fcmplt>:
 8000610:	f84d ed08 	str.w	lr, [sp, #-8]!
 8000614:	f7ff ffea 	bl	80005ec <__aeabi_cfcmpeq>
 8000618:	bf34      	ite	cc
 800061a:	2001      	movcc	r0, #1
 800061c:	2000      	movcs	r0, #0
 800061e:	f85d fb08 	ldr.w	pc, [sp], #8
 8000622:	bf00      	nop

08000624 <__aeabi_fcmple>:
 8000624:	f84d ed08 	str.w	lr, [sp, #-8]!
 8000628:	f7ff ffe0 	bl	80005ec <__aeabi_cfcmpeq>
 800062c:	bf94      	ite	ls
 800062e:	2001      	movls	r0, #1
 8000630:	2000      	movhi	r0, #0
 8000632:	f85d fb08 	ldr.w	pc, [sp], #8
 8000636:	bf00      	nop

08000638 <__aeabi_fcmpge>:
 8000638:	f84d ed08 	str.w	lr, [sp, #-8]!
 800063c:	f7ff ffd2 	bl	80005e4 <__aeabi_cfrcmple>
 8000640:	bf94      	ite	ls
 8000642:	2001      	movls	r0, #1
 8000644:	2000      	movhi	r0, #0
 8000646:	f85d fb08 	ldr.w	pc, [sp], #8
 800064a:	bf00      	nop

0800064c <__aeabi_fcmpgt>:
 800064c:	f84d ed08 	str.w	lr, [sp, #-8]!
 8000650:	f7ff ffc8 	bl	80005e4 <__aeabi_cfrcmple>
 8000654:	bf34      	ite	cc
 8000656:	2001      	movcc	r0, #1
 8000658:	2000      	movcs	r0, #0
 800065a:	f85d fb08 	ldr.w	pc, [sp], #8
 800065e:	bf00      	nop

08000660 <__aeabi_f2iz>:
 8000660:	ea4f 0240 	mov.w	r2, r0, lsl #1
 8000664:	f1b2 4ffe 	cmp.w	r2, #2130706432	; 0x7f000000
 8000668:	d30f      	bcc.n	800068a <__aeabi_f2iz+0x2a>
 800066a:	f04f 039e 	mov.w	r3, #158	; 0x9e
 800066e:	ebb3 6212 	subs.w	r2, r3, r2, lsr #24
 8000672:	d90d      	bls.n	8000690 <__aeabi_f2iz+0x30>
 8000674:	ea4f 2300 	mov.w	r3, r0, lsl #8
 8000678:	f043 4300 	orr.w	r3, r3, #2147483648	; 0x80000000
 800067c:	f010 4f00 	tst.w	r0, #2147483648	; 0x80000000
 8000680:	fa23 f002 	lsr.w	r0, r3, r2
 8000684:	bf18      	it	ne
 8000686:	4240      	negne	r0, r0
 8000688:	4770      	bx	lr
 800068a:	f04f 0000 	mov.w	r0, #0
 800068e:	4770      	bx	lr
 8000690:	f112 0f61 	cmn.w	r2, #97	; 0x61
 8000694:	d101      	bne.n	800069a <__aeabi_f2iz+0x3a>
 8000696:	0242      	lsls	r2, r0, #9
 8000698:	d105      	bne.n	80006a6 <__aeabi_f2iz+0x46>
 800069a:	f010 4000 	ands.w	r0, r0, #2147483648	; 0x80000000
 800069e:	bf08      	it	eq
 80006a0:	f06f 4000 	mvneq.w	r0, #2147483648	; 0x80000000
 80006a4:	4770      	bx	lr
 80006a6:	f04f 0000 	mov.w	r0, #0
 80006aa:	4770      	bx	lr

080006ac <__aeabi_uldivmod>:
 80006ac:	b953      	cbnz	r3, 80006c4 <__aeabi_uldivmod+0x18>
 80006ae:	b94a      	cbnz	r2, 80006c4 <__aeabi_uldivmod+0x18>
 80006b0:	2900      	cmp	r1, #0
 80006b2:	bf08      	it	eq
 80006b4:	2800      	cmpeq	r0, #0
 80006b6:	bf1c      	itt	ne
 80006b8:	f04f 31ff 	movne.w	r1, #4294967295	; 0xffffffff
 80006bc:	f04f 30ff 	movne.w	r0, #4294967295	; 0xffffffff
 80006c0:	f000 b80c 	b.w	80006dc <__aeabi_idiv0>
 80006c4:	f1ad 0c08 	sub.w	ip, sp, #8
 80006c8:	e96d ce04 	strd	ip, lr, [sp, #-16]!
 80006cc:	f000 fc80 	bl	8000fd0 <__udivmoddi4>
 80006d0:	f8dd e004 	ldr.w	lr, [sp, #4]
 80006d4:	e9dd 2302 	ldrd	r2, r3, [sp, #8]
 80006d8:	b004      	add	sp, #16
 80006da:	4770      	bx	lr

080006dc <__aeabi_idiv0>:
 80006dc:	4770      	bx	lr
 80006de:	bf00      	nop

080006e0 <Reset_Handler>:
 80006e0:	480c      	ldr	r0, [pc, #48]	; (8000714 <Zerobss+0x10>)
 80006e2:	4685      	mov	sp, r0
 80006e4:	2100      	movs	r1, #0
 80006e6:	e003      	b.n	80006f0 <DataInit>

080006e8 <CopyData>:
 80006e8:	4b0b      	ldr	r3, [pc, #44]	; (8000718 <Zerobss+0x14>)
 80006ea:	585b      	ldr	r3, [r3, r1]
 80006ec:	5043      	str	r3, [r0, r1]
 80006ee:	3104      	adds	r1, #4

080006f0 <DataInit>:
 80006f0:	480a      	ldr	r0, [pc, #40]	; (800071c <Zerobss+0x18>)
 80006f2:	4b0b      	ldr	r3, [pc, #44]	; (8000720 <Zerobss+0x1c>)
 80006f4:	1842      	adds	r2, r0, r1
 80006f6:	429a      	cmp	r2, r3
 80006f8:	d3f6      	bcc.n	80006e8 <CopyData>
 80006fa:	4a0a      	ldr	r2, [pc, #40]	; (8000724 <Zerobss+0x20>)
 80006fc:	e002      	b.n	8000704 <Zerobss>

080006fe <FillZerobss>:
 80006fe:	2300      	movs	r3, #0
 8000700:	f842 3b04 	str.w	r3, [r2], #4

08000704 <Zerobss>:
 8000704:	4b08      	ldr	r3, [pc, #32]	; (8000728 <Zerobss+0x24>)
 8000706:	429a      	cmp	r2, r3
 8000708:	d3f9      	bcc.n	80006fe <FillZerobss>
 800070a:	f001 fa3d 	bl	8001b88 <SystemInit>
 800070e:	f000 f80f 	bl	8000730 <main>
 8000712:	4770      	bx	lr
 8000714:	2000c000 	andcs	ip, r0, r0
 8000718:	08003088 	stmdaeq	r0, {r3, r7, ip, sp}
 800071c:	20000000 	andcs	r0, r0, r0
 8000720:	20000070 	andcs	r0, r0, r0, ror r0
 8000724:	20000070 	andcs	r0, r0, r0, ror r0
 8000728:	2000011c 	andcs	r0, r0, ip, lsl r1

0800072c <ADC0_1_IRQHandler>:
 800072c:	e7fe      	b.n	800072c <ADC0_1_IRQHandler>
	...

08000730 <main>:
 8000730:	e92d 47f0 	stmdb	sp!, {r4, r5, r6, r7, r8, r9, sl, lr}
 8000734:	b08e      	sub	sp, #56	; 0x38
 8000736:	a801      	add	r0, sp, #4
 8000738:	f001 f858 	bl	80017ec <Hardware::Hardware()>
 800073c:	a807      	add	r0, sp, #28
 800073e:	f000 fe2d 	bl	800139c <Display::Display()>
 8000742:	980d      	ldr	r0, [sp, #52]	; 0x34
 8000744:	b110      	cbz	r0, 800074c <main+0x1c>
 8000746:	6803      	ldr	r3, [r0, #0]
 8000748:	68db      	ldr	r3, [r3, #12]
 800074a:	4798      	blx	r3
 800074c:	980d      	ldr	r0, [sp, #52]	; 0x34
 800074e:	b118      	cbz	r0, 8000758 <main+0x28>
 8000750:	6803      	ldr	r3, [r0, #0]
 8000752:	4946      	ldr	r1, [pc, #280]	; (800086c <main+0x13c>)
 8000754:	699b      	ldr	r3, [r3, #24]
 8000756:	4798      	blx	r3
 8000758:	4845      	ldr	r0, [pc, #276]	; (8000870 <main+0x140>)
 800075a:	f000 f8a5 	bl	80008a8 <puts>
 800075e:	4845      	ldr	r0, [pc, #276]	; (8000874 <main+0x144>)
 8000760:	f000 f8a2 	bl	80008a8 <puts>
 8000764:	f240 6002 	movw	r0, #1538	; 0x602
 8000768:	f001 fb18 	bl	8001d9c <rcu_periph_clock_enable>
 800076c:	f240 6003 	movw	r0, #1539	; 0x603
 8000770:	f001 fb14 	bl	8001d9c <rcu_periph_clock_enable>
 8000774:	f240 6004 	movw	r0, #1540	; 0x604
 8000778:	f001 fb10 	bl	8001d9c <rcu_periph_clock_enable>
 800077c:	f240 6005 	movw	r0, #1541	; 0x605
 8000780:	f001 fb0c 	bl	8001d9c <rcu_periph_clock_enable>
 8000784:	4e3c      	ldr	r6, [pc, #240]	; (8000878 <main+0x148>)
 8000786:	f44f 60c0 	mov.w	r0, #1536	; 0x600
 800078a:	f001 fb07 	bl	8001d9c <rcu_periph_clock_enable>
 800078e:	483b      	ldr	r0, [pc, #236]	; (800087c <main+0x14c>)
 8000790:	f000 f88a 	bl	80008a8 <puts>
 8000794:	4c3a      	ldr	r4, [pc, #232]	; (8000880 <main+0x150>)
 8000796:	4633      	mov	r3, r6
 8000798:	2203      	movs	r2, #3
 800079a:	2110      	movs	r1, #16
 800079c:	4839      	ldr	r0, [pc, #228]	; (8000884 <main+0x154>)
 800079e:	f001 fa71 	bl	8001c84 <gpio_init>
 80007a2:	f06f 0302 	mvn.w	r3, #2
 80007a6:	2203      	movs	r2, #3
 80007a8:	2110      	movs	r1, #16
 80007aa:	4837      	ldr	r0, [pc, #220]	; (8000888 <main+0x158>)
 80007ac:	f001 fa6a 	bl	8001c84 <gpio_init>
 80007b0:	f46f 530c 	mvn.w	r3, #8960	; 0x2300
 80007b4:	2203      	movs	r2, #3
 80007b6:	2110      	movs	r1, #16
 80007b8:	4620      	mov	r0, r4
 80007ba:	f001 fa63 	bl	8001c84 <gpio_init>
 80007be:	2203      	movs	r2, #3
 80007c0:	2304      	movs	r3, #4
 80007c2:	2110      	movs	r1, #16
 80007c4:	4831      	ldr	r0, [pc, #196]	; (800088c <main+0x15c>)
 80007c6:	f001 fa5d 	bl	8001c84 <gpio_init>
 80007ca:	4831      	ldr	r0, [pc, #196]	; (8000890 <main+0x160>)
 80007cc:	f000 f86c 	bl	80008a8 <puts>
 80007d0:	2101      	movs	r1, #1
 80007d2:	4830      	ldr	r0, [pc, #192]	; (8000894 <main+0x164>)
 80007d4:	f001 faaa 	bl	8001d2c <gpio_pin_remap_config>
 80007d8:	482f      	ldr	r0, [pc, #188]	; (8000898 <main+0x168>)
 80007da:	f000 f865 	bl	80008a8 <puts>
 80007de:	f06f 0302 	mvn.w	r3, #2
 80007e2:	4d2e      	ldr	r5, [pc, #184]	; (800089c <main+0x16c>)
 80007e4:	482e      	ldr	r0, [pc, #184]	; (80008a0 <main+0x170>)
 80007e6:	f8c5 6810 	str.w	r6, [r5, #2064]	; 0x810
 80007ea:	f8c5 3c10 	str.w	r3, [r5, #3088]	; 0xc10
 80007ee:	f46f 530c 	mvn.w	r3, #8960	; 0x2300
 80007f2:	6123      	str	r3, [r4, #16]
 80007f4:	2304      	movs	r3, #4
 80007f6:	f8c4 3410 	str.w	r3, [r4, #1040]	; 0x410
 80007fa:	f000 f855 	bl	80008a8 <puts>
 80007fe:	2000      	movs	r0, #0
 8000800:	f000 f8b8 	bl	8000974 <time>
 8000804:	f04f 0900 	mov.w	r9, #0
 8000808:	4680      	mov	r8, r0
 800080a:	f8df a098 	ldr.w	sl, [pc, #152]	; 80008a4 <main+0x174>
 800080e:	2000      	movs	r0, #0
 8000810:	f000 f8b0 	bl	8000974 <time>
 8000814:	4580      	cmp	r8, r0
 8000816:	4607      	mov	r7, r0
 8000818:	d0f9      	beq.n	800080e <main+0xde>
 800081a:	f1b9 0f00 	cmp.w	r9, #0
 800081e:	d112      	bne.n	8000846 <main+0x116>
 8000820:	481d      	ldr	r0, [pc, #116]	; (8000898 <main+0x168>)
 8000822:	f000 f841 	bl	80008a8 <puts>
 8000826:	f06f 0302 	mvn.w	r3, #2
 800082a:	f8c5 6810 	str.w	r6, [r5, #2064]	; 0x810
 800082e:	f8c5 3c10 	str.w	r3, [r5, #3088]	; 0xc10
 8000832:	f46f 530c 	mvn.w	r3, #8960	; 0x2300
 8000836:	6123      	str	r3, [r4, #16]
 8000838:	2304      	movs	r3, #4
 800083a:	f04f 0901 	mov.w	r9, #1
 800083e:	f8c4 3410 	str.w	r3, [r4, #1040]	; 0x410
 8000842:	46b8      	mov	r8, r7
 8000844:	e7e3      	b.n	800080e <main+0xde>
 8000846:	4650      	mov	r0, sl
 8000848:	f000 f82e 	bl	80008a8 <puts>
 800084c:	f06f 0302 	mvn.w	r3, #2
 8000850:	f8c5 6814 	str.w	r6, [r5, #2068]	; 0x814
 8000854:	f8c5 3c14 	str.w	r3, [r5, #3092]	; 0xc14
 8000858:	f46f 530c 	mvn.w	r3, #8960	; 0x2300
 800085c:	6163      	str	r3, [r4, #20]
 800085e:	2304      	movs	r3, #4
 8000860:	f04f 0900 	mov.w	r9, #0
 8000864:	f8c4 3414 	str.w	r3, [r4, #1044]	; 0x414
 8000868:	e7eb      	b.n	8000842 <main+0x112>
 800086a:	bf00      	nop
 800086c:	08002abc 	stmdaeq	r0, {r2, r3, r4, r5, r7, r9, fp, sp}
 8000870:	08002ac7 	stmdaeq	r0, {r0, r1, r2, r6, r7, r9, fp, sp}
 8000874:	08002af6 	stmdaeq	r0, {r1, r2, r4, r5, r6, r7, r9, fp, sp}
 8000878:	fffff8f6 			; <UNDEFINED> instruction: 0xfffff8f6
 800087c:	08002b0f 	stmdaeq	r0, {r0, r1, r2, r3, r8, r9, fp, sp}
 8000880:	40011000 	andmi	r1, r1, r0
 8000884:	40010800 	andmi	r0, r1, r0, lsl #16
 8000888:	40010c00 	andmi	r0, r1, r0, lsl #24
 800088c:	40011400 	andmi	r1, r1, r0, lsl #8
 8000890:	08002b1a 	stmdaeq	r0, {r1, r3, r4, r8, r9, fp, sp}
 8000894:	00300400 	eorseq	r0, r0, r0, lsl #8
 8000898:	08002b31 	stmdaeq	r0, {r0, r4, r5, r8, r9, fp, sp}
 800089c:	40010000 	andmi	r0, r1, r0
 80008a0:	08002b3b 	stmdaeq	r0, {r0, r1, r3, r4, r5, r8, r9, fp, sp}
 80008a4:	08002b45 	stmdaeq	r0, {r0, r2, r6, r8, r9, fp, sp}

080008a8 <puts>:
 80008a8:	b508      	push	{r3, lr}
 80008aa:	f000 ff9c 	bl	80017e6 <console_puts>
 80008ae:	200a      	movs	r0, #10
 80008b0:	f000 ff97 	bl	80017e2 <console_putc>
 80008b4:	2001      	movs	r0, #1
 80008b6:	bd08      	pop	{r3, pc}

080008b8 <gettimeofday>:
 80008b8:	b538      	push	{r3, r4, r5, lr}
 80008ba:	4605      	mov	r5, r0
 80008bc:	b928      	cbnz	r0, 80008ca <gettimeofday+0x12>
 80008be:	212c      	movs	r1, #44	; 0x2c
 80008c0:	4b12      	ldr	r3, [pc, #72]	; (800090c <gettimeofday+0x54>)
 80008c2:	4a13      	ldr	r2, [pc, #76]	; (8000910 <gettimeofday+0x58>)
 80008c4:	4813      	ldr	r0, [pc, #76]	; (8000914 <gettimeofday+0x5c>)
 80008c6:	f000 f861 	bl	800098c <__assert_func>
 80008ca:	4b13      	ldr	r3, [pc, #76]	; (8000918 <gettimeofday+0x60>)
 80008cc:	4a13      	ldr	r2, [pc, #76]	; (800091c <gettimeofday+0x64>)
 80008ce:	681b      	ldr	r3, [r3, #0]
 80008d0:	6814      	ldr	r4, [r2, #0]
 80008d2:	6013      	str	r3, [r2, #0]
 80008d4:	f44f 727a 	mov.w	r2, #1000	; 0x3e8
 80008d8:	429c      	cmp	r4, r3
 80008da:	bf2c      	ite	cs
 80008dc:	1ae4      	subcs	r4, r4, r3
 80008de:	1b1c      	subcc	r4, r3, r4
 80008e0:	4354      	muls	r4, r2
 80008e2:	4b0f      	ldr	r3, [pc, #60]	; (8000920 <gettimeofday+0x68>)
 80008e4:	e9d3 2100 	ldrd	r2, r1, [r3]
 80008e8:	18a4      	adds	r4, r4, r2
 80008ea:	f141 0100 	adc.w	r1, r1, #0
 80008ee:	e9c3 4100 	strd	r4, r1, [r3]
 80008f2:	4620      	mov	r0, r4
 80008f4:	2300      	movs	r3, #0
 80008f6:	4a0b      	ldr	r2, [pc, #44]	; (8000924 <gettimeofday+0x6c>)
 80008f8:	f7ff fed8 	bl	80006ac <__aeabi_uldivmod>
 80008fc:	4b09      	ldr	r3, [pc, #36]	; (8000924 <gettimeofday+0x6c>)
 80008fe:	6028      	str	r0, [r5, #0]
 8000900:	fb03 4410 	mls	r4, r3, r0, r4
 8000904:	2000      	movs	r0, #0
 8000906:	606c      	str	r4, [r5, #4]
 8000908:	bd38      	pop	{r3, r4, r5, pc}
 800090a:	bf00      	nop
 800090c:	08002b4e 	stmdaeq	r0, {r1, r2, r3, r6, r8, r9, fp, sp}
 8000910:	08002b73 	stmdaeq	r0, {r0, r1, r4, r5, r6, r8, r9, fp, sp}
 8000914:	08002b56 	stmdaeq	r0, {r1, r2, r4, r6, r8, r9, fp, sp}
 8000918:	20000114 	andcs	r0, r0, r4, lsl r1
 800091c:	20000078 	andcs	r0, r0, r8, ror r0
 8000920:	20000070 	andcs	r0, r0, r0, ror r0
 8000924:	000f4240 	andeq	r4, pc, r0, asr #4

08000928 <settimeofday>:
 8000928:	b510      	push	{r4, lr}
 800092a:	4604      	mov	r4, r0
 800092c:	b928      	cbnz	r0, 800093a <settimeofday+0x12>
 800092e:	2142      	movs	r1, #66	; 0x42
 8000930:	4b09      	ldr	r3, [pc, #36]	; (8000958 <settimeofday+0x30>)
 8000932:	4a0a      	ldr	r2, [pc, #40]	; (800095c <settimeofday+0x34>)
 8000934:	480a      	ldr	r0, [pc, #40]	; (8000960 <settimeofday+0x38>)
 8000936:	f000 f829 	bl	800098c <__assert_func>
 800093a:	4b0a      	ldr	r3, [pc, #40]	; (8000964 <settimeofday+0x3c>)
 800093c:	480a      	ldr	r0, [pc, #40]	; (8000968 <settimeofday+0x40>)
 800093e:	681a      	ldr	r2, [r3, #0]
 8000940:	4b0a      	ldr	r3, [pc, #40]	; (800096c <settimeofday+0x44>)
 8000942:	490b      	ldr	r1, [pc, #44]	; (8000970 <settimeofday+0x48>)
 8000944:	601a      	str	r2, [r3, #0]
 8000946:	6863      	ldr	r3, [r4, #4]
 8000948:	6824      	ldr	r4, [r4, #0]
 800094a:	17da      	asrs	r2, r3, #31
 800094c:	fbc4 3200 	smlal	r3, r2, r4, r0
 8000950:	2000      	movs	r0, #0
 8000952:	e9c1 3200 	strd	r3, r2, [r1]
 8000956:	bd10      	pop	{r4, pc}
 8000958:	08002b4e 	stmdaeq	r0, {r1, r2, r3, r6, r8, r9, fp, sp}
 800095c:	08002b66 	stmdaeq	r0, {r1, r2, r5, r6, r8, r9, fp, sp}
 8000960:	08002b56 	stmdaeq	r0, {r1, r2, r4, r6, r8, r9, fp, sp}
 8000964:	20000114 	andcs	r0, r0, r4, lsl r1
 8000968:	000f4240 	andeq	r4, pc, r0, asr #4
 800096c:	20000078 	andcs	r0, r0, r8, ror r0
 8000970:	20000070 	andcs	r0, r0, r0, ror r0

08000974 <time>:
 8000974:	b513      	push	{r0, r1, r4, lr}
 8000976:	4604      	mov	r4, r0
 8000978:	2100      	movs	r1, #0
 800097a:	4668      	mov	r0, sp
 800097c:	f7ff ff9c 	bl	80008b8 <gettimeofday>
 8000980:	9800      	ldr	r0, [sp, #0]
 8000982:	b104      	cbz	r4, 8000986 <time+0x12>
 8000984:	6020      	str	r0, [r4, #0]
 8000986:	b002      	add	sp, #8
 8000988:	bd10      	pop	{r4, pc}
	...

0800098c <__assert_func>:
 800098c:	460c      	mov	r4, r1
 800098e:	b507      	push	{r0, r1, r2, lr}
 8000990:	4619      	mov	r1, r3
 8000992:	b142      	cbz	r2, 80009a6 <__assert_func+0x1a>
 8000994:	4b05      	ldr	r3, [pc, #20]	; (80009ac <__assert_func+0x20>)
 8000996:	e9cd 3200 	strd	r3, r2, [sp]
 800099a:	4602      	mov	r2, r0
 800099c:	4623      	mov	r3, r4
 800099e:	4804      	ldr	r0, [pc, #16]	; (80009b0 <__assert_func+0x24>)
 80009a0:	f000 fb06 	bl	8000fb0 <printf>
 80009a4:	e7fe      	b.n	80009a4 <__assert_func+0x18>
 80009a6:	4b03      	ldr	r3, [pc, #12]	; (80009b4 <__assert_func+0x28>)
 80009a8:	461a      	mov	r2, r3
 80009aa:	e7f4      	b.n	8000996 <__assert_func+0xa>
 80009ac:	08002b80 	stmdaeq	r0, {r7, r8, r9, fp, sp}
 80009b0:	08002b8d 	stmdaeq	r0, {r0, r2, r3, r7, r8, r9, fp, sp}
 80009b4:	08002b44 	stmdaeq	r0, {r2, r6, r8, r9, fp, sp}

080009b8 <_itostr>:
 80009b8:	b5f0      	push	{r4, r5, r6, r7, lr}
 80009ba:	0fc7      	lsrs	r7, r0, #31
 80009bc:	b091      	sub	sp, #68	; 0x44
 80009be:	bf18      	it	ne
 80009c0:	4240      	negne	r0, r0
 80009c2:	f10d 043f 	add.w	r4, sp, #63	; 0x3f
 80009c6:	b9c8      	cbnz	r0, 80009fc <_itostr+0x44>
 80009c8:	2330      	movs	r3, #48	; 0x30
 80009ca:	f88d 303f 	strb.w	r3, [sp, #63]	; 0x3f
 80009ce:	f10d 033e 	add.w	r3, sp, #62	; 0x3e
 80009d2:	b132      	cbz	r2, 80009e2 <_itostr+0x2a>
 80009d4:	4668      	mov	r0, sp
 80009d6:	2530      	movs	r5, #48	; 0x30
 80009d8:	1ae6      	subs	r6, r4, r3
 80009da:	4296      	cmp	r6, r2
 80009dc:	da01      	bge.n	80009e2 <_itostr+0x2a>
 80009de:	4283      	cmp	r3, r0
 80009e0:	d81c      	bhi.n	8000a1c <_itostr+0x64>
 80009e2:	b117      	cbz	r7, 80009ea <_itostr+0x32>
 80009e4:	222d      	movs	r2, #45	; 0x2d
 80009e6:	f803 2901 	strb.w	r2, [r3], #-1
 80009ea:	3301      	adds	r3, #1
 80009ec:	1ae0      	subs	r0, r4, r3
 80009ee:	3901      	subs	r1, #1
 80009f0:	aa10      	add	r2, sp, #64	; 0x40
 80009f2:	4293      	cmp	r3, r2
 80009f4:	d315      	bcc.n	8000a22 <_itostr+0x6a>
 80009f6:	3001      	adds	r0, #1
 80009f8:	b011      	add	sp, #68	; 0x44
 80009fa:	bdf0      	pop	{r4, r5, r6, r7, pc}
 80009fc:	4623      	mov	r3, r4
 80009fe:	250a      	movs	r5, #10
 8000a00:	46ec      	mov	ip, sp
 8000a02:	fb90 f6f5 	sdiv	r6, r0, r5
 8000a06:	fb05 0016 	mls	r0, r5, r6, r0
 8000a0a:	3030      	adds	r0, #48	; 0x30
 8000a0c:	f803 0901 	strb.w	r0, [r3], #-1
 8000a10:	4630      	mov	r0, r6
 8000a12:	2e00      	cmp	r6, #0
 8000a14:	d0dd      	beq.n	80009d2 <_itostr+0x1a>
 8000a16:	4563      	cmp	r3, ip
 8000a18:	d1f3      	bne.n	8000a02 <_itostr+0x4a>
 8000a1a:	e7da      	b.n	80009d2 <_itostr+0x1a>
 8000a1c:	f803 5901 	strb.w	r5, [r3], #-1
 8000a20:	e7da      	b.n	80009d8 <_itostr+0x20>
 8000a22:	f813 2b01 	ldrb.w	r2, [r3], #1
 8000a26:	f801 2f01 	strb.w	r2, [r1, #1]!
 8000a2a:	e7e1      	b.n	80009f0 <_itostr+0x38>

08000a2c <_xputch>:
 8000a2c:	4603      	mov	r3, r0
 8000a2e:	b410      	push	{r4}
 8000a30:	4c08      	ldr	r4, [pc, #32]	; (8000a54 <_xputch+0x28>)
 8000a32:	68da      	ldr	r2, [r3, #12]
 8000a34:	4608      	mov	r0, r1
 8000a36:	6821      	ldr	r1, [r4, #0]
 8000a38:	3201      	adds	r2, #1
 8000a3a:	60da      	str	r2, [r3, #12]
 8000a3c:	b139      	cbz	r1, 8000a4e <_xputch+0x22>
 8000a3e:	691b      	ldr	r3, [r3, #16]
 8000a40:	429a      	cmp	r2, r3
 8000a42:	da02      	bge.n	8000a4a <_xputch+0x1e>
 8000a44:	1c4b      	adds	r3, r1, #1
 8000a46:	6023      	str	r3, [r4, #0]
 8000a48:	7008      	strb	r0, [r1, #0]
 8000a4a:	bc10      	pop	{r4}
 8000a4c:	4770      	bx	lr
 8000a4e:	bc10      	pop	{r4}
 8000a50:	f000 bec7 	b.w	80017e2 <console_putc>
 8000a54:	2000007c 	andcs	r0, r0, ip, ror r0

08000a58 <_format_int>:
 8000a58:	e92d 43f0 	stmdb	sp!, {r4, r5, r6, r7, r8, r9, lr}
 8000a5c:	4698      	mov	r8, r3
 8000a5e:	b091      	sub	sp, #68	; 0x44
 8000a60:	ea52 0308 	orrs.w	r3, r2, r8
 8000a64:	4606      	mov	r6, r0
 8000a66:	4617      	mov	r7, r2
 8000a68:	f10d 053f 	add.w	r5, sp, #63	; 0x3f
 8000a6c:	d133      	bne.n	8000ad6 <_format_int+0x7e>
 8000a6e:	2330      	movs	r3, #48	; 0x30
 8000a70:	f10d 043e 	add.w	r4, sp, #62	; 0x3e
 8000a74:	f88d 303f 	strb.w	r3, [sp, #63]	; 0x3f
 8000a78:	6833      	ldr	r3, [r6, #0]
 8000a7a:	07d8      	lsls	r0, r3, #31
 8000a7c:	d507      	bpl.n	8000a8e <_format_int+0x36>
 8000a7e:	466a      	mov	r2, sp
 8000a80:	2030      	movs	r0, #48	; 0x30
 8000a82:	6871      	ldr	r1, [r6, #4]
 8000a84:	1b2f      	subs	r7, r5, r4
 8000a86:	428f      	cmp	r7, r1
 8000a88:	da01      	bge.n	8000a8e <_format_int+0x36>
 8000a8a:	4294      	cmp	r4, r2
 8000a8c:	d839      	bhi.n	8000b02 <_format_int+0xaa>
 8000a8e:	0699      	lsls	r1, r3, #26
 8000a90:	d507      	bpl.n	8000aa2 <_format_int+0x4a>
 8000a92:	466a      	mov	r2, sp
 8000a94:	2030      	movs	r0, #48	; 0x30
 8000a96:	68b1      	ldr	r1, [r6, #8]
 8000a98:	1b2f      	subs	r7, r5, r4
 8000a9a:	428f      	cmp	r7, r1
 8000a9c:	da01      	bge.n	8000aa2 <_format_int+0x4a>
 8000a9e:	4294      	cmp	r4, r2
 8000aa0:	d832      	bhi.n	8000b08 <_format_int+0xb0>
 8000aa2:	071a      	lsls	r2, r3, #28
 8000aa4:	bf44      	itt	mi
 8000aa6:	222d      	movmi	r2, #45	; 0x2d
 8000aa8:	f804 2901 	strbmi.w	r2, [r4], #-1
 8000aac:	065b      	lsls	r3, r3, #25
 8000aae:	d407      	bmi.n	8000ac0 <_format_int+0x68>
 8000ab0:	466b      	mov	r3, sp
 8000ab2:	2120      	movs	r1, #32
 8000ab4:	68b2      	ldr	r2, [r6, #8]
 8000ab6:	1b28      	subs	r0, r5, r4
 8000ab8:	4290      	cmp	r0, r2
 8000aba:	da01      	bge.n	8000ac0 <_format_int+0x68>
 8000abc:	429c      	cmp	r4, r3
 8000abe:	d826      	bhi.n	8000b0e <_format_int+0xb6>
 8000ac0:	1b2d      	subs	r5, r5, r4
 8000ac2:	3401      	adds	r4, #1
 8000ac4:	ab10      	add	r3, sp, #64	; 0x40
 8000ac6:	429c      	cmp	r4, r3
 8000ac8:	d324      	bcc.n	8000b14 <_format_int+0xbc>
 8000aca:	68b3      	ldr	r3, [r6, #8]
 8000acc:	42ab      	cmp	r3, r5
 8000ace:	dc27      	bgt.n	8000b20 <_format_int+0xc8>
 8000ad0:	b011      	add	sp, #68	; 0x44
 8000ad2:	e8bd 83f0 	ldmia.w	sp!, {r4, r5, r6, r7, r8, r9, pc}
 8000ad6:	462c      	mov	r4, r5
 8000ad8:	46e9      	mov	r9, sp
 8000ada:	4638      	mov	r0, r7
 8000adc:	4641      	mov	r1, r8
 8000ade:	220a      	movs	r2, #10
 8000ae0:	2300      	movs	r3, #0
 8000ae2:	f7ff fde3 	bl	80006ac <__aeabi_uldivmod>
 8000ae6:	3230      	adds	r2, #48	; 0x30
 8000ae8:	f804 2901 	strb.w	r2, [r4], #-1
 8000aec:	463a      	mov	r2, r7
 8000aee:	4643      	mov	r3, r8
 8000af0:	2a0a      	cmp	r2, #10
 8000af2:	f173 0300 	sbcs.w	r3, r3, #0
 8000af6:	4607      	mov	r7, r0
 8000af8:	4688      	mov	r8, r1
 8000afa:	d3bd      	bcc.n	8000a78 <_format_int+0x20>
 8000afc:	454c      	cmp	r4, r9
 8000afe:	d1ec      	bne.n	8000ada <_format_int+0x82>
 8000b00:	e7ba      	b.n	8000a78 <_format_int+0x20>
 8000b02:	f804 0901 	strb.w	r0, [r4], #-1
 8000b06:	e7bd      	b.n	8000a84 <_format_int+0x2c>
 8000b08:	f804 0901 	strb.w	r0, [r4], #-1
 8000b0c:	e7c4      	b.n	8000a98 <_format_int+0x40>
 8000b0e:	f804 1901 	strb.w	r1, [r4], #-1
 8000b12:	e7d0      	b.n	8000ab6 <_format_int+0x5e>
 8000b14:	4630      	mov	r0, r6
 8000b16:	f814 1b01 	ldrb.w	r1, [r4], #1
 8000b1a:	f7ff ff87 	bl	8000a2c <_xputch>
 8000b1e:	e7d1      	b.n	8000ac4 <_format_int+0x6c>
 8000b20:	2120      	movs	r1, #32
 8000b22:	4630      	mov	r0, r6
 8000b24:	f7ff ff82 	bl	8000a2c <_xputch>
 8000b28:	3501      	adds	r5, #1
 8000b2a:	e7ce      	b.n	8000aca <_format_int+0x72>

08000b2c <_format_hex>:
 8000b2c:	b5f0      	push	{r4, r5, r6, r7, lr}
 8000b2e:	b091      	sub	sp, #68	; 0x44
 8000b30:	4606      	mov	r6, r0
 8000b32:	6804      	ldr	r4, [r0, #0]
 8000b34:	f10d 023f 	add.w	r2, sp, #63	; 0x3f
 8000b38:	bb61      	cbnz	r1, 8000b94 <_format_hex+0x68>
 8000b3a:	2330      	movs	r3, #48	; 0x30
 8000b3c:	f88d 303f 	strb.w	r3, [sp, #63]	; 0x3f
 8000b40:	f10d 033e 	add.w	r3, sp, #62	; 0x3e
 8000b44:	07e5      	lsls	r5, r4, #31
 8000b46:	d507      	bpl.n	8000b58 <_format_hex+0x2c>
 8000b48:	4669      	mov	r1, sp
 8000b4a:	2530      	movs	r5, #48	; 0x30
 8000b4c:	6870      	ldr	r0, [r6, #4]
 8000b4e:	1ad7      	subs	r7, r2, r3
 8000b50:	4287      	cmp	r7, r0
 8000b52:	da01      	bge.n	8000b58 <_format_hex+0x2c>
 8000b54:	428b      	cmp	r3, r1
 8000b56:	d831      	bhi.n	8000bbc <_format_hex+0x90>
 8000b58:	06a0      	lsls	r0, r4, #26
 8000b5a:	d507      	bpl.n	8000b6c <_format_hex+0x40>
 8000b5c:	4669      	mov	r1, sp
 8000b5e:	2530      	movs	r5, #48	; 0x30
 8000b60:	68b0      	ldr	r0, [r6, #8]
 8000b62:	1ad7      	subs	r7, r2, r3
 8000b64:	4287      	cmp	r7, r0
 8000b66:	da01      	bge.n	8000b6c <_format_hex+0x40>
 8000b68:	428b      	cmp	r3, r1
 8000b6a:	d82a      	bhi.n	8000bc2 <_format_hex+0x96>
 8000b6c:	0661      	lsls	r1, r4, #25
 8000b6e:	d407      	bmi.n	8000b80 <_format_hex+0x54>
 8000b70:	4669      	mov	r1, sp
 8000b72:	2420      	movs	r4, #32
 8000b74:	68b0      	ldr	r0, [r6, #8]
 8000b76:	1ad5      	subs	r5, r2, r3
 8000b78:	4285      	cmp	r5, r0
 8000b7a:	da01      	bge.n	8000b80 <_format_hex+0x54>
 8000b7c:	428b      	cmp	r3, r1
 8000b7e:	d823      	bhi.n	8000bc8 <_format_hex+0x9c>
 8000b80:	1ad5      	subs	r5, r2, r3
 8000b82:	1c5c      	adds	r4, r3, #1
 8000b84:	ab10      	add	r3, sp, #64	; 0x40
 8000b86:	429c      	cmp	r4, r3
 8000b88:	d321      	bcc.n	8000bce <_format_hex+0xa2>
 8000b8a:	68b3      	ldr	r3, [r6, #8]
 8000b8c:	429d      	cmp	r5, r3
 8000b8e:	db24      	blt.n	8000bda <_format_hex+0xae>
 8000b90:	b011      	add	sp, #68	; 0x44
 8000b92:	bdf0      	pop	{r4, r5, r6, r7, pc}
 8000b94:	f014 0f02 	tst.w	r4, #2
 8000b98:	bf0c      	ite	eq
 8000b9a:	2757      	moveq	r7, #87	; 0x57
 8000b9c:	2737      	movne	r7, #55	; 0x37
 8000b9e:	4613      	mov	r3, r2
 8000ba0:	466d      	mov	r5, sp
 8000ba2:	f001 000f 	and.w	r0, r1, #15
 8000ba6:	2809      	cmp	r0, #9
 8000ba8:	bf94      	ite	ls
 8000baa:	3030      	addls	r0, #48	; 0x30
 8000bac:	19c0      	addhi	r0, r0, r7
 8000bae:	0909      	lsrs	r1, r1, #4
 8000bb0:	f803 0901 	strb.w	r0, [r3], #-1
 8000bb4:	d0c6      	beq.n	8000b44 <_format_hex+0x18>
 8000bb6:	42ab      	cmp	r3, r5
 8000bb8:	d1f3      	bne.n	8000ba2 <_format_hex+0x76>
 8000bba:	e7c3      	b.n	8000b44 <_format_hex+0x18>
 8000bbc:	f803 5901 	strb.w	r5, [r3], #-1
 8000bc0:	e7c5      	b.n	8000b4e <_format_hex+0x22>
 8000bc2:	f803 5901 	strb.w	r5, [r3], #-1
 8000bc6:	e7cc      	b.n	8000b62 <_format_hex+0x36>
 8000bc8:	f803 4901 	strb.w	r4, [r3], #-1
 8000bcc:	e7d3      	b.n	8000b76 <_format_hex+0x4a>
 8000bce:	4630      	mov	r0, r6
 8000bd0:	f814 1b01 	ldrb.w	r1, [r4], #1
 8000bd4:	f7ff ff2a 	bl	8000a2c <_xputch>
 8000bd8:	e7d4      	b.n	8000b84 <_format_hex+0x58>
 8000bda:	2120      	movs	r1, #32
 8000bdc:	4630      	mov	r0, r6
 8000bde:	f7ff ff25 	bl	8000a2c <_xputch>
 8000be2:	3501      	adds	r5, #1
 8000be4:	e7d1      	b.n	8000b8a <_format_hex+0x5e>
	...

08000be8 <_vprintf>:
 8000be8:	e92d 4ff0 	stmdb	sp!, {r4, r5, r6, r7, r8, r9, sl, fp, lr}
 8000bec:	4614      	mov	r4, r2
 8000bee:	2200      	movs	r2, #0
 8000bf0:	460b      	mov	r3, r1
 8000bf2:	f04f 0800 	mov.w	r8, #0
 8000bf6:	b099      	sub	sp, #100	; 0x64
 8000bf8:	e9cd 2006 	strd	r2, r0, [sp, #24]
 8000bfc:	af08      	add	r7, sp, #32
 8000bfe:	7819      	ldrb	r1, [r3, #0]
 8000c00:	b919      	cbnz	r1, 8000c0a <_vprintf+0x22>
 8000c02:	9806      	ldr	r0, [sp, #24]
 8000c04:	b019      	add	sp, #100	; 0x64
 8000c06:	e8bd 8ff0 	ldmia.w	sp!, {r4, r5, r6, r7, r8, r9, sl, fp, pc}
 8000c0a:	2925      	cmp	r1, #37	; 0x25
 8000c0c:	f103 0601 	add.w	r6, r3, #1
 8000c10:	d004      	beq.n	8000c1c <_vprintf+0x34>
 8000c12:	a803      	add	r0, sp, #12
 8000c14:	f7ff ff0a 	bl	8000a2c <_xputch>
 8000c18:	4633      	mov	r3, r6
 8000c1a:	e7f0      	b.n	8000bfe <_vprintf+0x16>
 8000c1c:	2200      	movs	r2, #0
 8000c1e:	e9cd 2203 	strd	r2, r2, [sp, #12]
 8000c22:	9205      	str	r2, [sp, #20]
 8000c24:	785a      	ldrb	r2, [r3, #1]
 8000c26:	2a30      	cmp	r2, #48	; 0x30
 8000c28:	d129      	bne.n	8000c7e <_vprintf+0x96>
 8000c2a:	2220      	movs	r2, #32
 8000c2c:	9203      	str	r2, [sp, #12]
 8000c2e:	1c9e      	adds	r6, r3, #2
 8000c30:	2200      	movs	r2, #0
 8000c32:	4635      	mov	r5, r6
 8000c34:	4613      	mov	r3, r2
 8000c36:	f04f 0c0a 	mov.w	ip, #10
 8000c3a:	7829      	ldrb	r1, [r5, #0]
 8000c3c:	462e      	mov	r6, r5
 8000c3e:	f1a1 0030 	sub.w	r0, r1, #48	; 0x30
 8000c42:	2809      	cmp	r0, #9
 8000c44:	f105 0501 	add.w	r5, r5, #1
 8000c48:	d91d      	bls.n	8000c86 <_vprintf+0x9e>
 8000c4a:	b12a      	cbz	r2, 8000c58 <_vprintf+0x70>
 8000c4c:	9305      	str	r3, [sp, #20]
 8000c4e:	b11b      	cbz	r3, 8000c58 <_vprintf+0x70>
 8000c50:	9b03      	ldr	r3, [sp, #12]
 8000c52:	f043 0310 	orr.w	r3, r3, #16
 8000c56:	9303      	str	r3, [sp, #12]
 8000c58:	292e      	cmp	r1, #46	; 0x2e
 8000c5a:	d123      	bne.n	8000ca4 <_vprintf+0xbc>
 8000c5c:	7873      	ldrb	r3, [r6, #1]
 8000c5e:	2b2a      	cmp	r3, #42	; 0x2a
 8000c60:	d015      	beq.n	8000c8e <_vprintf+0xa6>
 8000c62:	2100      	movs	r1, #0
 8000c64:	250a      	movs	r5, #10
 8000c66:	460a      	mov	r2, r1
 8000c68:	1c70      	adds	r0, r6, #1
 8000c6a:	7803      	ldrb	r3, [r0, #0]
 8000c6c:	4606      	mov	r6, r0
 8000c6e:	3b30      	subs	r3, #48	; 0x30
 8000c70:	2b09      	cmp	r3, #9
 8000c72:	f100 0001 	add.w	r0, r0, #1
 8000c76:	d959      	bls.n	8000d2c <_vprintf+0x144>
 8000c78:	b181      	cbz	r1, 8000c9c <_vprintf+0xb4>
 8000c7a:	9204      	str	r2, [sp, #16]
 8000c7c:	e00e      	b.n	8000c9c <_vprintf+0xb4>
 8000c7e:	2a2d      	cmp	r2, #45	; 0x2d
 8000c80:	d1d6      	bne.n	8000c30 <_vprintf+0x48>
 8000c82:	2240      	movs	r2, #64	; 0x40
 8000c84:	e7d2      	b.n	8000c2c <_vprintf+0x44>
 8000c86:	2201      	movs	r2, #1
 8000c88:	fb0c 0303 	mla	r3, ip, r3, r0
 8000c8c:	e7d5      	b.n	8000c3a <_vprintf+0x52>
 8000c8e:	f854 3b04 	ldr.w	r3, [r4], #4
 8000c92:	3602      	adds	r6, #2
 8000c94:	2b00      	cmp	r3, #0
 8000c96:	bfb8      	it	lt
 8000c98:	425b      	neglt	r3, r3
 8000c9a:	9304      	str	r3, [sp, #16]
 8000c9c:	9b03      	ldr	r3, [sp, #12]
 8000c9e:	f043 0301 	orr.w	r3, r3, #1
 8000ca2:	9303      	str	r3, [sp, #12]
 8000ca4:	7833      	ldrb	r3, [r6, #0]
 8000ca6:	2b6c      	cmp	r3, #108	; 0x6c
 8000ca8:	bf04      	itt	eq
 8000caa:	9b03      	ldreq	r3, [sp, #12]
 8000cac:	3601      	addeq	r6, #1
 8000cae:	7831      	ldrb	r1, [r6, #0]
 8000cb0:	bf04      	itt	eq
 8000cb2:	f043 0304 	orreq.w	r3, r3, #4
 8000cb6:	9303      	streq	r3, [sp, #12]
 8000cb8:	2958      	cmp	r1, #88	; 0x58
 8000cba:	f000 8171 	beq.w	8000fa0 <_vprintf+0x3b8>
 8000cbe:	f1a1 0363 	sub.w	r3, r1, #99	; 0x63
 8000cc2:	b2da      	uxtb	r2, r3
 8000cc4:	2a15      	cmp	r2, #21
 8000cc6:	d8a4      	bhi.n	8000c12 <_vprintf+0x2a>
 8000cc8:	2b15      	cmp	r3, #21
 8000cca:	d8a2      	bhi.n	8000c12 <_vprintf+0x2a>
 8000ccc:	a201      	add	r2, pc, #4	; (adr r2, 8000cd4 <_vprintf+0xec>)
 8000cce:	f852 f023 	ldr.w	pc, [r2, r3, lsl #2]
 8000cd2:	bf00      	nop
 8000cd4:	08000d35 	stmdaeq	r0, {r0, r2, r4, r5, r8, sl, fp}
 8000cd8:	08000d47 	stmdaeq	r0, {r0, r1, r2, r6, r8, sl, fp}
 8000cdc:	08000c13 	stmdaeq	r0, {r0, r1, r4, sl, fp}
 8000ce0:	08000d7d 	stmdaeq	r0, {r0, r2, r3, r4, r5, r6, r8, sl, fp}
 8000ce4:	08000c13 	stmdaeq	r0, {r0, r1, r4, sl, fp}
 8000ce8:	08000c13 	stmdaeq	r0, {r0, r1, r4, sl, fp}
 8000cec:	08000d47 	stmdaeq	r0, {r0, r1, r2, r6, r8, sl, fp}
 8000cf0:	08000c13 	stmdaeq	r0, {r0, r1, r4, sl, fp}
 8000cf4:	08000c13 	stmdaeq	r0, {r0, r1, r4, sl, fp}
 8000cf8:	08000c13 	stmdaeq	r0, {r0, r1, r4, sl, fp}
 8000cfc:	08000c13 	stmdaeq	r0, {r0, r1, r4, sl, fp}
 8000d00:	08000c13 	stmdaeq	r0, {r0, r1, r4, sl, fp}
 8000d04:	08000c13 	stmdaeq	r0, {r0, r1, r4, sl, fp}
 8000d08:	08000ee3 	stmdaeq	r0, {r0, r1, r5, r6, r7, r9, sl, fp}
 8000d0c:	08000c13 	stmdaeq	r0, {r0, r1, r4, sl, fp}
 8000d10:	08000c13 	stmdaeq	r0, {r0, r1, r4, sl, fp}
 8000d14:	08000f0b 	stmdaeq	r0, {r0, r1, r3, r8, r9, sl, fp}
 8000d18:	08000c13 	stmdaeq	r0, {r0, r1, r4, sl, fp}
 8000d1c:	08000f81 	stmdaeq	r0, {r0, r7, r8, r9, sl, fp}
 8000d20:	08000c13 	stmdaeq	r0, {r0, r1, r4, sl, fp}
 8000d24:	08000c13 	stmdaeq	r0, {r0, r1, r4, sl, fp}
 8000d28:	08000fa9 	stmdaeq	r0, {r0, r3, r5, r7, r8, r9, sl, fp}
 8000d2c:	2101      	movs	r1, #1
 8000d2e:	fb05 3202 	mla	r2, r5, r2, r3
 8000d32:	e79a      	b.n	8000c6a <_vprintf+0x82>
 8000d34:	4625      	mov	r5, r4
 8000d36:	a803      	add	r0, sp, #12
 8000d38:	f855 1b04 	ldr.w	r1, [r5], #4
 8000d3c:	f7ff fe76 	bl	8000a2c <_xputch>
 8000d40:	462c      	mov	r4, r5
 8000d42:	3601      	adds	r6, #1
 8000d44:	e768      	b.n	8000c18 <_vprintf+0x30>
 8000d46:	9903      	ldr	r1, [sp, #12]
 8000d48:	074d      	lsls	r5, r1, #29
 8000d4a:	bf51      	iteee	pl
 8000d4c:	4625      	movpl	r5, r4
 8000d4e:	3407      	addmi	r4, #7
 8000d50:	f024 0407 	bicmi.w	r4, r4, #7
 8000d54:	4625      	movmi	r5, r4
 8000d56:	bf55      	itete	pl
 8000d58:	f855 2b04 	ldrpl.w	r2, [r5], #4
 8000d5c:	6863      	ldrmi	r3, [r4, #4]
 8000d5e:	17d3      	asrpl	r3, r2, #31
 8000d60:	f855 2b08 	ldrmi.w	r2, [r5], #8
 8000d64:	2b00      	cmp	r3, #0
 8000d66:	da05      	bge.n	8000d74 <_vprintf+0x18c>
 8000d68:	f041 0108 	orr.w	r1, r1, #8
 8000d6c:	4252      	negs	r2, r2
 8000d6e:	9103      	str	r1, [sp, #12]
 8000d70:	eb63 0343 	sbc.w	r3, r3, r3, lsl #1
 8000d74:	a803      	add	r0, sp, #12
 8000d76:	f7ff fe6f 	bl	8000a58 <_format_int>
 8000d7a:	e7e1      	b.n	8000d40 <_vprintf+0x158>
 8000d7c:	3407      	adds	r4, #7
 8000d7e:	f024 0507 	bic.w	r5, r4, #7
 8000d82:	e8f5 0102 	ldrd	r0, r1, [r5], #8
 8000d86:	f7ff fa97 	bl	80002b8 <__aeabi_d2f>
 8000d8a:	9b03      	ldr	r3, [sp, #12]
 8000d8c:	4641      	mov	r1, r8
 8000d8e:	07dc      	lsls	r4, r3, #31
 8000d90:	bf54      	ite	pl
 8000d92:	f04f 0a06 	movpl.w	sl, #6
 8000d96:	f8dd a010 	ldrmi.w	sl, [sp, #16]
 8000d9a:	4681      	mov	r9, r0
 8000d9c:	f7ff fc38 	bl	8000610 <__aeabi_fcmplt>
 8000da0:	2800      	cmp	r0, #0
 8000da2:	d063      	beq.n	8000e6c <_vprintf+0x284>
 8000da4:	232d      	movs	r3, #45	; 0x2d
 8000da6:	f109 4900 	add.w	r9, r9, #2147483648	; 0x80000000
 8000daa:	f88d 3020 	strb.w	r3, [sp, #32]
 8000dae:	f10d 0b21 	add.w	fp, sp, #33	; 0x21
 8000db2:	4648      	mov	r0, r9
 8000db4:	f7ff fc54 	bl	8000660 <__aeabi_f2iz>
 8000db8:	4659      	mov	r1, fp
 8000dba:	2200      	movs	r2, #0
 8000dbc:	4604      	mov	r4, r0
 8000dbe:	f7ff fdfb 	bl	80009b8 <_itostr>
 8000dc2:	eb0b 0200 	add.w	r2, fp, r0
 8000dc6:	e9cd 2000 	strd	r2, r0, [sp]
 8000dca:	4620      	mov	r0, r4
 8000dcc:	f7ff fb7e 	bl	80004cc <__aeabi_i2f>
 8000dd0:	4601      	mov	r1, r0
 8000dd2:	4648      	mov	r0, r9
 8000dd4:	f7ff fac4 	bl	8000360 <__aeabi_fsub>
 8000dd8:	222e      	movs	r2, #46	; 0x2e
 8000dda:	4601      	mov	r1, r0
 8000ddc:	200a      	movs	r0, #10
 8000dde:	9b00      	ldr	r3, [sp, #0]
 8000de0:	f10a 0901 	add.w	r9, sl, #1
 8000de4:	1c5c      	adds	r4, r3, #1
 8000de6:	9b01      	ldr	r3, [sp, #4]
 8000de8:	f80b 2003 	strb.w	r2, [fp, r3]
 8000dec:	4603      	mov	r3, r0
 8000dee:	f1ba 0f00 	cmp.w	sl, #0
 8000df2:	dc3d      	bgt.n	8000e70 <_vprintf+0x288>
 8000df4:	9100      	str	r1, [sp, #0]
 8000df6:	f7ff fb69 	bl	80004cc <__aeabi_i2f>
 8000dfa:	9900      	ldr	r1, [sp, #0]
 8000dfc:	f7ff f9a8 	bl	8000150 <__aeabi_fmul>
 8000e00:	f7ff fc2e 	bl	8000660 <__aeabi_f2iz>
 8000e04:	464a      	mov	r2, r9
 8000e06:	4621      	mov	r1, r4
 8000e08:	f7ff fdd6 	bl	80009b8 <_itostr>
 8000e0c:	4404      	add	r4, r0
 8000e0e:	1be0      	subs	r0, r4, r7
 8000e10:	1e44      	subs	r4, r0, #1
 8000e12:	5d3b      	ldrb	r3, [r7, r4]
 8000e14:	193a      	adds	r2, r7, r4
 8000e16:	2b34      	cmp	r3, #52	; 0x34
 8000e18:	d910      	bls.n	8000e3c <_vprintf+0x254>
 8000e1a:	f812 1c01 	ldrb.w	r1, [r2, #-1]
 8000e1e:	1e53      	subs	r3, r2, #1
 8000e20:	292e      	cmp	r1, #46	; 0x2e
 8000e22:	d02c      	beq.n	8000e7e <_vprintf+0x296>
 8000e24:	469c      	mov	ip, r3
 8000e26:	f04f 0e30 	mov.w	lr, #48	; 0x30
 8000e2a:	4663      	mov	r3, ip
 8000e2c:	f81c 1901 	ldrb.w	r1, [ip], #-1
 8000e30:	2939      	cmp	r1, #57	; 0x39
 8000e32:	d021      	beq.n	8000e78 <_vprintf+0x290>
 8000e34:	292e      	cmp	r1, #46	; 0x2e
 8000e36:	d022      	beq.n	8000e7e <_vprintf+0x296>
 8000e38:	3101      	adds	r1, #1
 8000e3a:	7019      	strb	r1, [r3, #0]
 8000e3c:	f104 0360 	add.w	r3, r4, #96	; 0x60
 8000e40:	446b      	add	r3, sp
 8000e42:	f813 3c41 	ldrb.w	r3, [r3, #-65]
 8000e46:	2b2e      	cmp	r3, #46	; 0x2e
 8000e48:	bf08      	it	eq
 8000e4a:	f104 34ff 	addeq.w	r4, r4, #4294967295	; 0xffffffff
 8000e4e:	46a1      	mov	r9, r4
 8000e50:	9b05      	ldr	r3, [sp, #20]
 8000e52:	4599      	cmp	r9, r3
 8000e54:	db3e      	blt.n	8000ed4 <_vprintf+0x2ec>
 8000e56:	46b9      	mov	r9, r7
 8000e58:	2c00      	cmp	r4, #0
 8000e5a:	f77f af71 	ble.w	8000d40 <_vprintf+0x158>
 8000e5e:	f819 1b01 	ldrb.w	r1, [r9], #1
 8000e62:	a803      	add	r0, sp, #12
 8000e64:	f7ff fde2 	bl	8000a2c <_xputch>
 8000e68:	3c01      	subs	r4, #1
 8000e6a:	e7f5      	b.n	8000e58 <_vprintf+0x270>
 8000e6c:	46bb      	mov	fp, r7
 8000e6e:	e7a0      	b.n	8000db2 <_vprintf+0x1ca>
 8000e70:	4358      	muls	r0, r3
 8000e72:	f10a 3aff 	add.w	sl, sl, #4294967295	; 0xffffffff
 8000e76:	e7ba      	b.n	8000dee <_vprintf+0x206>
 8000e78:	f88c e001 	strb.w	lr, [ip, #1]
 8000e7c:	e7d5      	b.n	8000e2a <_vprintf+0x242>
 8000e7e:	f04f 0c30 	mov.w	ip, #48	; 0x30
 8000e82:	3b01      	subs	r3, #1
 8000e84:	7819      	ldrb	r1, [r3, #0]
 8000e86:	2939      	cmp	r1, #57	; 0x39
 8000e88:	d112      	bne.n	8000eb0 <_vprintf+0x2c8>
 8000e8a:	42bb      	cmp	r3, r7
 8000e8c:	d20d      	bcs.n	8000eaa <_vprintf+0x2c2>
 8000e8e:	1c5c      	adds	r4, r3, #1
 8000e90:	1c99      	adds	r1, r3, #2
 8000e92:	428c      	cmp	r4, r1
 8000e94:	eba2 0203 	sub.w	r2, r2, r3
 8000e98:	d913      	bls.n	8000ec2 <_vprintf+0x2da>
 8000e9a:	4619      	mov	r1, r3
 8000e9c:	441a      	add	r2, r3
 8000e9e:	428a      	cmp	r2, r1
 8000ea0:	d10b      	bne.n	8000eba <_vprintf+0x2d2>
 8000ea2:	2231      	movs	r2, #49	; 0x31
 8000ea4:	4604      	mov	r4, r0
 8000ea6:	705a      	strb	r2, [r3, #1]
 8000ea8:	e7c8      	b.n	8000e3c <_vprintf+0x254>
 8000eaa:	f803 c901 	strb.w	ip, [r3], #-1
 8000eae:	e7e9      	b.n	8000e84 <_vprintf+0x29c>
 8000eb0:	42bb      	cmp	r3, r7
 8000eb2:	d3ec      	bcc.n	8000e8e <_vprintf+0x2a6>
 8000eb4:	292d      	cmp	r1, #45	; 0x2d
 8000eb6:	d0ea      	beq.n	8000e8e <_vprintf+0x2a6>
 8000eb8:	e7be      	b.n	8000e38 <_vprintf+0x250>
 8000eba:	f811 4f01 	ldrb.w	r4, [r1, #1]!
 8000ebe:	704c      	strb	r4, [r1, #1]
 8000ec0:	e7ed      	b.n	8000e9e <_vprintf+0x2b6>
 8000ec2:	4414      	add	r4, r2
 8000ec4:	440a      	add	r2, r1
 8000ec6:	428a      	cmp	r2, r1
 8000ec8:	d0eb      	beq.n	8000ea2 <_vprintf+0x2ba>
 8000eca:	f814 cd01 	ldrb.w	ip, [r4, #-1]!
 8000ece:	f802 cd01 	strb.w	ip, [r2, #-1]!
 8000ed2:	e7f8      	b.n	8000ec6 <_vprintf+0x2de>
 8000ed4:	2120      	movs	r1, #32
 8000ed6:	a803      	add	r0, sp, #12
 8000ed8:	f7ff fda8 	bl	8000a2c <_xputch>
 8000edc:	f109 0901 	add.w	r9, r9, #1
 8000ee0:	e7b6      	b.n	8000e50 <_vprintf+0x268>
 8000ee2:	2308      	movs	r3, #8
 8000ee4:	4625      	mov	r5, r4
 8000ee6:	9305      	str	r3, [sp, #20]
 8000ee8:	2320      	movs	r3, #32
 8000eea:	2130      	movs	r1, #48	; 0x30
 8000eec:	f855 4b04 	ldr.w	r4, [r5], #4
 8000ef0:	a803      	add	r0, sp, #12
 8000ef2:	9303      	str	r3, [sp, #12]
 8000ef4:	f7ff fd9a 	bl	8000a2c <_xputch>
 8000ef8:	2178      	movs	r1, #120	; 0x78
 8000efa:	a803      	add	r0, sp, #12
 8000efc:	f7ff fd96 	bl	8000a2c <_xputch>
 8000f00:	4621      	mov	r1, r4
 8000f02:	a803      	add	r0, sp, #12
 8000f04:	f7ff fe12 	bl	8000b2c <_format_hex>
 8000f08:	e71a      	b.n	8000d40 <_vprintf+0x158>
 8000f0a:	4625      	mov	r5, r4
 8000f0c:	2400      	movs	r4, #0
 8000f0e:	f855 9b04 	ldr.w	r9, [r5], #4
 8000f12:	f819 3004 	ldrb.w	r3, [r9, r4]
 8000f16:	b993      	cbnz	r3, 8000f3e <_vprintf+0x356>
 8000f18:	9b03      	ldr	r3, [sp, #12]
 8000f1a:	07d9      	lsls	r1, r3, #31
 8000f1c:	d503      	bpl.n	8000f26 <_vprintf+0x33e>
 8000f1e:	9b04      	ldr	r3, [sp, #16]
 8000f20:	429c      	cmp	r4, r3
 8000f22:	bfa8      	it	ge
 8000f24:	461c      	movge	r4, r3
 8000f26:	9b03      	ldr	r3, [sp, #12]
 8000f28:	f104 0a01 	add.w	sl, r4, #1
 8000f2c:	065a      	lsls	r2, r3, #25
 8000f2e:	d403      	bmi.n	8000f38 <_vprintf+0x350>
 8000f30:	9b05      	ldr	r3, [sp, #20]
 8000f32:	429c      	cmp	r4, r3
 8000f34:	db05      	blt.n	8000f42 <_vprintf+0x35a>
 8000f36:	4654      	mov	r4, sl
 8000f38:	f109 39ff 	add.w	r9, r9, #4294967295	; 0xffffffff
 8000f3c:	e00d      	b.n	8000f5a <_vprintf+0x372>
 8000f3e:	3401      	adds	r4, #1
 8000f40:	e7e7      	b.n	8000f12 <_vprintf+0x32a>
 8000f42:	2120      	movs	r1, #32
 8000f44:	a803      	add	r0, sp, #12
 8000f46:	f7ff fd71 	bl	8000a2c <_xputch>
 8000f4a:	4654      	mov	r4, sl
 8000f4c:	e7eb      	b.n	8000f26 <_vprintf+0x33e>
 8000f4e:	a803      	add	r0, sp, #12
 8000f50:	f7ff fd6c 	bl	8000a2c <_xputch>
 8000f54:	9b04      	ldr	r3, [sp, #16]
 8000f56:	3b01      	subs	r3, #1
 8000f58:	9304      	str	r3, [sp, #16]
 8000f5a:	9b03      	ldr	r3, [sp, #12]
 8000f5c:	07db      	lsls	r3, r3, #31
 8000f5e:	d501      	bpl.n	8000f64 <_vprintf+0x37c>
 8000f60:	9b04      	ldr	r3, [sp, #16]
 8000f62:	b11b      	cbz	r3, 8000f6c <_vprintf+0x384>
 8000f64:	f819 1f01 	ldrb.w	r1, [r9, #1]!
 8000f68:	2900      	cmp	r1, #0
 8000f6a:	d1f0      	bne.n	8000f4e <_vprintf+0x366>
 8000f6c:	9b05      	ldr	r3, [sp, #20]
 8000f6e:	429c      	cmp	r4, r3
 8000f70:	f6bf aee6 	bge.w	8000d40 <_vprintf+0x158>
 8000f74:	2120      	movs	r1, #32
 8000f76:	a803      	add	r0, sp, #12
 8000f78:	f7ff fd58 	bl	8000a2c <_xputch>
 8000f7c:	3401      	adds	r4, #1
 8000f7e:	e7f5      	b.n	8000f6c <_vprintf+0x384>
 8000f80:	9b03      	ldr	r3, [sp, #12]
 8000f82:	f013 0304 	ands.w	r3, r3, #4
 8000f86:	bf1d      	ittte	ne
 8000f88:	3407      	addne	r4, #7
 8000f8a:	f024 0407 	bicne.w	r4, r4, #7
 8000f8e:	4625      	movne	r5, r4
 8000f90:	4625      	moveq	r5, r4
 8000f92:	bf1a      	itte	ne
 8000f94:	f855 2b08 	ldrne.w	r2, [r5], #8
 8000f98:	6863      	ldrne	r3, [r4, #4]
 8000f9a:	f855 2b04 	ldreq.w	r2, [r5], #4
 8000f9e:	e6e9      	b.n	8000d74 <_vprintf+0x18c>
 8000fa0:	9b03      	ldr	r3, [sp, #12]
 8000fa2:	f043 0302 	orr.w	r3, r3, #2
 8000fa6:	9303      	str	r3, [sp, #12]
 8000fa8:	4625      	mov	r5, r4
 8000faa:	f855 1b04 	ldr.w	r1, [r5], #4
 8000fae:	e7a8      	b.n	8000f02 <_vprintf+0x31a>

08000fb0 <printf>:
 8000fb0:	b40f      	push	{r0, r1, r2, r3}
 8000fb2:	b507      	push	{r0, r1, r2, lr}
 8000fb4:	aa04      	add	r2, sp, #16
 8000fb6:	f852 1b04 	ldr.w	r1, [r2], #4
 8000fba:	f06f 4000 	mvn.w	r0, #2147483648	; 0x80000000
 8000fbe:	9201      	str	r2, [sp, #4]
 8000fc0:	f7ff fe12 	bl	8000be8 <_vprintf>
 8000fc4:	b003      	add	sp, #12
 8000fc6:	f85d eb04 	ldr.w	lr, [sp], #4
 8000fca:	b004      	add	sp, #16
 8000fcc:	4770      	bx	lr
	...

08000fd0 <__udivmoddi4>:
 8000fd0:	e92d 47f0 	stmdb	sp!, {r4, r5, r6, r7, r8, r9, sl, lr}
 8000fd4:	9e08      	ldr	r6, [sp, #32]
 8000fd6:	460d      	mov	r5, r1
 8000fd8:	4604      	mov	r4, r0
 8000fda:	468e      	mov	lr, r1
 8000fdc:	2b00      	cmp	r3, #0
 8000fde:	d14c      	bne.n	800107a <__udivmoddi4+0xaa>
 8000fe0:	428a      	cmp	r2, r1
 8000fe2:	4694      	mov	ip, r2
 8000fe4:	d967      	bls.n	80010b6 <__udivmoddi4+0xe6>
 8000fe6:	fab2 f382 	clz	r3, r2
 8000fea:	b153      	cbz	r3, 8001002 <__udivmoddi4+0x32>
 8000fec:	fa02 fc03 	lsl.w	ip, r2, r3
 8000ff0:	f1c3 0220 	rsb	r2, r3, #32
 8000ff4:	fa01 fe03 	lsl.w	lr, r1, r3
 8000ff8:	fa20 f202 	lsr.w	r2, r0, r2
 8000ffc:	ea42 0e0e 	orr.w	lr, r2, lr
 8001000:	409c      	lsls	r4, r3
 8001002:	ea4f 471c 	mov.w	r7, ip, lsr #16
 8001006:	fbbe f1f7 	udiv	r1, lr, r7
 800100a:	fa1f f58c 	uxth.w	r5, ip
 800100e:	fb07 ee11 	mls	lr, r7, r1, lr
 8001012:	fb01 f005 	mul.w	r0, r1, r5
 8001016:	0c22      	lsrs	r2, r4, #16
 8001018:	ea42 420e 	orr.w	r2, r2, lr, lsl #16
 800101c:	4290      	cmp	r0, r2
 800101e:	d90a      	bls.n	8001036 <__udivmoddi4+0x66>
 8001020:	eb1c 0202 	adds.w	r2, ip, r2
 8001024:	f101 3eff 	add.w	lr, r1, #4294967295	; 0xffffffff
 8001028:	f080 8119 	bcs.w	800125e <__udivmoddi4+0x28e>
 800102c:	4290      	cmp	r0, r2
 800102e:	f240 8116 	bls.w	800125e <__udivmoddi4+0x28e>
 8001032:	3902      	subs	r1, #2
 8001034:	4462      	add	r2, ip
 8001036:	1a12      	subs	r2, r2, r0
 8001038:	fbb2 f0f7 	udiv	r0, r2, r7
 800103c:	fb07 2210 	mls	r2, r7, r0, r2
 8001040:	fb00 f505 	mul.w	r5, r0, r5
 8001044:	b2a4      	uxth	r4, r4
 8001046:	ea44 4402 	orr.w	r4, r4, r2, lsl #16
 800104a:	42a5      	cmp	r5, r4
 800104c:	d90a      	bls.n	8001064 <__udivmoddi4+0x94>
 800104e:	eb1c 0404 	adds.w	r4, ip, r4
 8001052:	f100 32ff 	add.w	r2, r0, #4294967295	; 0xffffffff
 8001056:	f080 8104 	bcs.w	8001262 <__udivmoddi4+0x292>
 800105a:	42a5      	cmp	r5, r4
 800105c:	f240 8101 	bls.w	8001262 <__udivmoddi4+0x292>
 8001060:	4464      	add	r4, ip
 8001062:	3802      	subs	r0, #2
 8001064:	ea40 4001 	orr.w	r0, r0, r1, lsl #16
 8001068:	2100      	movs	r1, #0
 800106a:	1b64      	subs	r4, r4, r5
 800106c:	b11e      	cbz	r6, 8001076 <__udivmoddi4+0xa6>
 800106e:	40dc      	lsrs	r4, r3
 8001070:	2300      	movs	r3, #0
 8001072:	e9c6 4300 	strd	r4, r3, [r6]
 8001076:	e8bd 87f0 	ldmia.w	sp!, {r4, r5, r6, r7, r8, r9, sl, pc}
 800107a:	428b      	cmp	r3, r1
 800107c:	d908      	bls.n	8001090 <__udivmoddi4+0xc0>
 800107e:	2e00      	cmp	r6, #0
 8001080:	f000 80ea 	beq.w	8001258 <__udivmoddi4+0x288>
 8001084:	2100      	movs	r1, #0
 8001086:	e9c6 0500 	strd	r0, r5, [r6]
 800108a:	4608      	mov	r0, r1
 800108c:	e8bd 87f0 	ldmia.w	sp!, {r4, r5, r6, r7, r8, r9, sl, pc}
 8001090:	fab3 f183 	clz	r1, r3
 8001094:	2900      	cmp	r1, #0
 8001096:	d148      	bne.n	800112a <__udivmoddi4+0x15a>
 8001098:	42ab      	cmp	r3, r5
 800109a:	d302      	bcc.n	80010a2 <__udivmoddi4+0xd2>
 800109c:	4282      	cmp	r2, r0
 800109e:	f200 80f8 	bhi.w	8001292 <__udivmoddi4+0x2c2>
 80010a2:	1a84      	subs	r4, r0, r2
 80010a4:	eb65 0203 	sbc.w	r2, r5, r3
 80010a8:	2001      	movs	r0, #1
 80010aa:	4696      	mov	lr, r2
 80010ac:	2e00      	cmp	r6, #0
 80010ae:	d0e2      	beq.n	8001076 <__udivmoddi4+0xa6>
 80010b0:	e9c6 4e00 	strd	r4, lr, [r6]
 80010b4:	e7df      	b.n	8001076 <__udivmoddi4+0xa6>
 80010b6:	b902      	cbnz	r2, 80010ba <__udivmoddi4+0xea>
 80010b8:	deff      	udf	#255	; 0xff
 80010ba:	fab2 f382 	clz	r3, r2
 80010be:	2b00      	cmp	r3, #0
 80010c0:	f040 808e 	bne.w	80011e0 <__udivmoddi4+0x210>
 80010c4:	1a88      	subs	r0, r1, r2
 80010c6:	2101      	movs	r1, #1
 80010c8:	0c17      	lsrs	r7, r2, #16
 80010ca:	fa1f fe82 	uxth.w	lr, r2
 80010ce:	fbb0 f5f7 	udiv	r5, r0, r7
 80010d2:	fb07 0015 	mls	r0, r7, r5, r0
 80010d6:	0c22      	lsrs	r2, r4, #16
 80010d8:	ea42 4200 	orr.w	r2, r2, r0, lsl #16
 80010dc:	fb0e f005 	mul.w	r0, lr, r5
 80010e0:	4290      	cmp	r0, r2
 80010e2:	d908      	bls.n	80010f6 <__udivmoddi4+0x126>
 80010e4:	eb1c 0202 	adds.w	r2, ip, r2
 80010e8:	f105 38ff 	add.w	r8, r5, #4294967295	; 0xffffffff
 80010ec:	d202      	bcs.n	80010f4 <__udivmoddi4+0x124>
 80010ee:	4290      	cmp	r0, r2
 80010f0:	f200 80cc 	bhi.w	800128c <__udivmoddi4+0x2bc>
 80010f4:	4645      	mov	r5, r8
 80010f6:	1a12      	subs	r2, r2, r0
 80010f8:	fbb2 f0f7 	udiv	r0, r2, r7
 80010fc:	fb07 2210 	mls	r2, r7, r0, r2
 8001100:	fb0e fe00 	mul.w	lr, lr, r0
 8001104:	b2a4      	uxth	r4, r4
 8001106:	ea44 4402 	orr.w	r4, r4, r2, lsl #16
 800110a:	45a6      	cmp	lr, r4
 800110c:	d908      	bls.n	8001120 <__udivmoddi4+0x150>
 800110e:	eb1c 0404 	adds.w	r4, ip, r4
 8001112:	f100 32ff 	add.w	r2, r0, #4294967295	; 0xffffffff
 8001116:	d202      	bcs.n	800111e <__udivmoddi4+0x14e>
 8001118:	45a6      	cmp	lr, r4
 800111a:	f200 80b4 	bhi.w	8001286 <__udivmoddi4+0x2b6>
 800111e:	4610      	mov	r0, r2
 8001120:	eba4 040e 	sub.w	r4, r4, lr
 8001124:	ea40 4005 	orr.w	r0, r0, r5, lsl #16
 8001128:	e7a0      	b.n	800106c <__udivmoddi4+0x9c>
 800112a:	f1c1 0720 	rsb	r7, r1, #32
 800112e:	408b      	lsls	r3, r1
 8001130:	fa22 fc07 	lsr.w	ip, r2, r7
 8001134:	ea4c 0c03 	orr.w	ip, ip, r3
 8001138:	fa25 fa07 	lsr.w	sl, r5, r7
 800113c:	ea4f 491c 	mov.w	r9, ip, lsr #16
 8001140:	fbba f8f9 	udiv	r8, sl, r9
 8001144:	408d      	lsls	r5, r1
 8001146:	fa20 f307 	lsr.w	r3, r0, r7
 800114a:	fb09 aa18 	mls	sl, r9, r8, sl
 800114e:	fa1f fe8c 	uxth.w	lr, ip
 8001152:	432b      	orrs	r3, r5
 8001154:	fa00 f501 	lsl.w	r5, r0, r1
 8001158:	fb08 f00e 	mul.w	r0, r8, lr
 800115c:	0c1c      	lsrs	r4, r3, #16
 800115e:	ea44 440a 	orr.w	r4, r4, sl, lsl #16
 8001162:	42a0      	cmp	r0, r4
 8001164:	fa02 f201 	lsl.w	r2, r2, r1
 8001168:	d90b      	bls.n	8001182 <__udivmoddi4+0x1b2>
 800116a:	eb1c 0404 	adds.w	r4, ip, r4
 800116e:	f108 3aff 	add.w	sl, r8, #4294967295	; 0xffffffff
 8001172:	f080 8086 	bcs.w	8001282 <__udivmoddi4+0x2b2>
 8001176:	42a0      	cmp	r0, r4
 8001178:	f240 8083 	bls.w	8001282 <__udivmoddi4+0x2b2>
 800117c:	f1a8 0802 	sub.w	r8, r8, #2
 8001180:	4464      	add	r4, ip
 8001182:	1a24      	subs	r4, r4, r0
 8001184:	b298      	uxth	r0, r3
 8001186:	fbb4 f3f9 	udiv	r3, r4, r9
 800118a:	fb09 4413 	mls	r4, r9, r3, r4
 800118e:	fb03 fe0e 	mul.w	lr, r3, lr
 8001192:	ea40 4404 	orr.w	r4, r0, r4, lsl #16
 8001196:	45a6      	cmp	lr, r4
 8001198:	d908      	bls.n	80011ac <__udivmoddi4+0x1dc>
 800119a:	eb1c 0404 	adds.w	r4, ip, r4
 800119e:	f103 30ff 	add.w	r0, r3, #4294967295	; 0xffffffff
 80011a2:	d26a      	bcs.n	800127a <__udivmoddi4+0x2aa>
 80011a4:	45a6      	cmp	lr, r4
 80011a6:	d968      	bls.n	800127a <__udivmoddi4+0x2aa>
 80011a8:	3b02      	subs	r3, #2
 80011aa:	4464      	add	r4, ip
 80011ac:	ea43 4008 	orr.w	r0, r3, r8, lsl #16
 80011b0:	fba0 9302 	umull	r9, r3, r0, r2
 80011b4:	eba4 040e 	sub.w	r4, r4, lr
 80011b8:	429c      	cmp	r4, r3
 80011ba:	46c8      	mov	r8, r9
 80011bc:	469e      	mov	lr, r3
 80011be:	d354      	bcc.n	800126a <__udivmoddi4+0x29a>
 80011c0:	d051      	beq.n	8001266 <__udivmoddi4+0x296>
 80011c2:	2e00      	cmp	r6, #0
 80011c4:	d067      	beq.n	8001296 <__udivmoddi4+0x2c6>
 80011c6:	ebb5 0308 	subs.w	r3, r5, r8
 80011ca:	eb64 040e 	sbc.w	r4, r4, lr
 80011ce:	40cb      	lsrs	r3, r1
 80011d0:	fa04 f707 	lsl.w	r7, r4, r7
 80011d4:	431f      	orrs	r7, r3
 80011d6:	40cc      	lsrs	r4, r1
 80011d8:	e9c6 7400 	strd	r7, r4, [r6]
 80011dc:	2100      	movs	r1, #0
 80011de:	e74a      	b.n	8001076 <__udivmoddi4+0xa6>
 80011e0:	fa02 fc03 	lsl.w	ip, r2, r3
 80011e4:	f1c3 0020 	rsb	r0, r3, #32
 80011e8:	40c1      	lsrs	r1, r0
 80011ea:	409d      	lsls	r5, r3
 80011ec:	fa24 f000 	lsr.w	r0, r4, r0
 80011f0:	ea4f 471c 	mov.w	r7, ip, lsr #16
 80011f4:	4328      	orrs	r0, r5
 80011f6:	fbb1 f5f7 	udiv	r5, r1, r7
 80011fa:	fb07 1115 	mls	r1, r7, r5, r1
 80011fe:	fa1f fe8c 	uxth.w	lr, ip
 8001202:	0c02      	lsrs	r2, r0, #16
 8001204:	ea42 4201 	orr.w	r2, r2, r1, lsl #16
 8001208:	fb05 f10e 	mul.w	r1, r5, lr
 800120c:	4291      	cmp	r1, r2
 800120e:	fa04 f403 	lsl.w	r4, r4, r3
 8001212:	d908      	bls.n	8001226 <__udivmoddi4+0x256>
 8001214:	eb1c 0202 	adds.w	r2, ip, r2
 8001218:	f105 38ff 	add.w	r8, r5, #4294967295	; 0xffffffff
 800121c:	d22f      	bcs.n	800127e <__udivmoddi4+0x2ae>
 800121e:	4291      	cmp	r1, r2
 8001220:	d92d      	bls.n	800127e <__udivmoddi4+0x2ae>
 8001222:	3d02      	subs	r5, #2
 8001224:	4462      	add	r2, ip
 8001226:	1a52      	subs	r2, r2, r1
 8001228:	fbb2 f1f7 	udiv	r1, r2, r7
 800122c:	fb07 2211 	mls	r2, r7, r1, r2
 8001230:	b280      	uxth	r0, r0
 8001232:	ea40 4002 	orr.w	r0, r0, r2, lsl #16
 8001236:	fb01 f20e 	mul.w	r2, r1, lr
 800123a:	4282      	cmp	r2, r0
 800123c:	d908      	bls.n	8001250 <__udivmoddi4+0x280>
 800123e:	eb1c 0000 	adds.w	r0, ip, r0
 8001242:	f101 38ff 	add.w	r8, r1, #4294967295	; 0xffffffff
 8001246:	d216      	bcs.n	8001276 <__udivmoddi4+0x2a6>
 8001248:	4282      	cmp	r2, r0
 800124a:	d914      	bls.n	8001276 <__udivmoddi4+0x2a6>
 800124c:	3902      	subs	r1, #2
 800124e:	4460      	add	r0, ip
 8001250:	1a80      	subs	r0, r0, r2
 8001252:	ea41 4105 	orr.w	r1, r1, r5, lsl #16
 8001256:	e73a      	b.n	80010ce <__udivmoddi4+0xfe>
 8001258:	4631      	mov	r1, r6
 800125a:	4630      	mov	r0, r6
 800125c:	e70b      	b.n	8001076 <__udivmoddi4+0xa6>
 800125e:	4671      	mov	r1, lr
 8001260:	e6e9      	b.n	8001036 <__udivmoddi4+0x66>
 8001262:	4610      	mov	r0, r2
 8001264:	e6fe      	b.n	8001064 <__udivmoddi4+0x94>
 8001266:	454d      	cmp	r5, r9
 8001268:	d2ab      	bcs.n	80011c2 <__udivmoddi4+0x1f2>
 800126a:	ebb9 0802 	subs.w	r8, r9, r2
 800126e:	eb63 0e0c 	sbc.w	lr, r3, ip
 8001272:	3801      	subs	r0, #1
 8001274:	e7a5      	b.n	80011c2 <__udivmoddi4+0x1f2>
 8001276:	4641      	mov	r1, r8
 8001278:	e7ea      	b.n	8001250 <__udivmoddi4+0x280>
 800127a:	4603      	mov	r3, r0
 800127c:	e796      	b.n	80011ac <__udivmoddi4+0x1dc>
 800127e:	4645      	mov	r5, r8
 8001280:	e7d1      	b.n	8001226 <__udivmoddi4+0x256>
 8001282:	46d0      	mov	r8, sl
 8001284:	e77d      	b.n	8001182 <__udivmoddi4+0x1b2>
 8001286:	4464      	add	r4, ip
 8001288:	3802      	subs	r0, #2
 800128a:	e749      	b.n	8001120 <__udivmoddi4+0x150>
 800128c:	3d02      	subs	r5, #2
 800128e:	4462      	add	r2, ip
 8001290:	e731      	b.n	80010f6 <__udivmoddi4+0x126>
 8001292:	4608      	mov	r0, r1
 8001294:	e70a      	b.n	80010ac <__udivmoddi4+0xdc>
 8001296:	4631      	mov	r1, r6
 8001298:	e6ed      	b.n	8001076 <__udivmoddi4+0xa6>
 800129a:	bf00      	nop

0800129c <Display::PrintInfo() [clone .isra.0]>:
 800129c:	b910      	cbnz	r0, 80012a4 <Display::PrintInfo() [clone .isra.0]+0x8>
 800129e:	4803      	ldr	r0, [pc, #12]	; (80012ac <Display::PrintInfo() [clone .isra.0]+0x10>)
 80012a0:	f7ff bb02 	b.w	80008a8 <puts>
 80012a4:	6803      	ldr	r3, [r0, #0]
 80012a6:	6b5b      	ldr	r3, [r3, #52]	; 0x34
 80012a8:	4718      	bx	r3
 80012aa:	bf00      	nop
 80012ac:	08002bbc 	stmdaeq	r0, {r2, r3, r4, r5, r7, r8, r9, fp, sp}

080012b0 <HAL_I2C::WriteRegister(unsigned char, unsigned short)>:
 80012b0:	b513      	push	{r0, r1, r4, lr}
 80012b2:	4604      	mov	r4, r0
 80012b4:	0a13      	lsrs	r3, r2, #8
 80012b6:	7800      	ldrb	r0, [r0, #0]
 80012b8:	f88d 1004 	strb.w	r1, [sp, #4]
 80012bc:	f88d 3005 	strb.w	r3, [sp, #5]
 80012c0:	f88d 2006 	strb.w	r2, [sp, #6]
 80012c4:	f001 f80a 	bl	80022dc <gd32_i2c_set_address>
 80012c8:	6860      	ldr	r0, [r4, #4]
 80012ca:	f000 ffff 	bl	80022cc <gd32_i2c_set_baudrate>
 80012ce:	2103      	movs	r1, #3
 80012d0:	a801      	add	r0, sp, #4
 80012d2:	f001 f809 	bl	80022e8 <gd32_i2c_write>
 80012d6:	b002      	add	sp, #8
 80012d8:	bd10      	pop	{r4, pc}

080012da <HAL_I2C::IsConnected_(unsigned char, unsigned int)>:
 80012da:	b537      	push	{r0, r1, r2, r4, r5, lr}
 80012dc:	460d      	mov	r5, r1
 80012de:	4604      	mov	r4, r0
 80012e0:	f000 fffc 	bl	80022dc <gd32_i2c_set_address>
 80012e4:	4628      	mov	r0, r5
 80012e6:	f000 fff1 	bl	80022cc <gd32_i2c_set_baudrate>
 80012ea:	f1a4 0330 	sub.w	r3, r4, #48	; 0x30
 80012ee:	2b07      	cmp	r3, #7
 80012f0:	d902      	bls.n	80012f8 <HAL_I2C::IsConnected_(unsigned char, unsigned int)+0x1e>
 80012f2:	3c50      	subs	r4, #80	; 0x50
 80012f4:	2c0f      	cmp	r4, #15
 80012f6:	d809      	bhi.n	800130c <HAL_I2C::IsConnected_(unsigned char, unsigned int)+0x32>
 80012f8:	2101      	movs	r1, #1
 80012fa:	f10d 0007 	add.w	r0, sp, #7
 80012fe:	f001 f859 	bl	80023b4 <gd32_i2c_read>
 8001302:	fab0 f080 	clz	r0, r0
 8001306:	0940      	lsrs	r0, r0, #5
 8001308:	b003      	add	sp, #12
 800130a:	bd30      	pop	{r4, r5, pc}
 800130c:	2100      	movs	r1, #0
 800130e:	4608      	mov	r0, r1
 8001310:	f000 ffea 	bl	80022e8 <gd32_i2c_write>
 8001314:	e7f5      	b.n	8001302 <HAL_I2C::IsConnected_(unsigned char, unsigned int)+0x28>

08001316 <Display::Detect7Segment()>:
 8001316:	b538      	push	{r3, r4, r5, lr}
 8001318:	68c1      	ldr	r1, [r0, #12]
 800131a:	4604      	mov	r4, r0
 800131c:	7a00      	ldrb	r0, [r0, #8]
 800131e:	f7ff ffdc 	bl	80012da <HAL_I2C::IsConnected_(unsigned char, unsigned int)>
 8001322:	7460      	strb	r0, [r4, #17]
 8001324:	b170      	cbz	r0, 8001344 <Display::Detect7Segment()+0x2e>
 8001326:	2200      	movs	r2, #0
 8001328:	f104 0508 	add.w	r5, r4, #8
 800132c:	4611      	mov	r1, r2
 800132e:	4628      	mov	r0, r5
 8001330:	f7ff ffbe 	bl	80012b0 <HAL_I2C::WriteRegister(unsigned char, unsigned short)>
 8001334:	7c63      	ldrb	r3, [r4, #17]
 8001336:	b12b      	cbz	r3, 8001344 <Display::Detect7Segment()+0x2e>
 8001338:	f24c 02ff 	movw	r2, #49407	; 0xc0ff
 800133c:	2112      	movs	r1, #18
 800133e:	4628      	mov	r0, r5
 8001340:	f7ff ffb6 	bl	80012b0 <HAL_I2C::WriteRegister(unsigned char, unsigned short)>
 8001344:	bd38      	pop	{r3, r4, r5, pc}

08001346 <Display::Detect(display::Type)>:
 8001346:	2902      	cmp	r1, #2
 8001348:	b538      	push	{r3, r4, r5, lr}
 800134a:	4604      	mov	r4, r0
 800134c:	d014      	beq.n	8001378 <Display::Detect(display::Type)+0x32>
 800134e:	2904      	cmp	r1, #4
 8001350:	d01b      	beq.n	800138a <Display::Detect(display::Type)+0x44>
 8001352:	69a0      	ldr	r0, [r4, #24]
 8001354:	b168      	cbz	r0, 8001372 <Display::Detect(display::Type)+0x2c>
 8001356:	6803      	ldr	r3, [r0, #0]
 8001358:	689b      	ldr	r3, [r3, #8]
 800135a:	4798      	blx	r3
 800135c:	4603      	mov	r3, r0
 800135e:	69a0      	ldr	r0, [r4, #24]
 8001360:	b9ab      	cbnz	r3, 800138e <Display::Detect(display::Type)+0x48>
 8001362:	b110      	cbz	r0, 800136a <Display::Detect(display::Type)+0x24>
 8001364:	6803      	ldr	r3, [r0, #0]
 8001366:	685b      	ldr	r3, [r3, #4]
 8001368:	4798      	blx	r3
 800136a:	2300      	movs	r3, #0
 800136c:	61a3      	str	r3, [r4, #24]
 800136e:	2304      	movs	r3, #4
 8001370:	6023      	str	r3, [r4, #0]
 8001372:	2300      	movs	r3, #0
 8001374:	6163      	str	r3, [r4, #20]
 8001376:	e010      	b.n	800139a <Display::Detect(display::Type)+0x54>
 8001378:	2020      	movs	r0, #32
 800137a:	f000 faa1 	bl	80018c0 <operator new(unsigned int)>
 800137e:	4605      	mov	r5, r0
 8001380:	2100      	movs	r1, #0
 8001382:	f000 f89d 	bl	80014c0 <Ssd1306::Ssd1306(TOledPanel)>
 8001386:	61a5      	str	r5, [r4, #24]
 8001388:	e7e3      	b.n	8001352 <Display::Detect(display::Type)+0xc>
 800138a:	6001      	str	r1, [r0, #0]
 800138c:	e7e1      	b.n	8001352 <Display::Detect(display::Type)+0xc>
 800138e:	6803      	ldr	r3, [r0, #0]
 8001390:	68db      	ldr	r3, [r3, #12]
 8001392:	4798      	blx	r3
 8001394:	69a3      	ldr	r3, [r4, #24]
 8001396:	2b00      	cmp	r3, #0
 8001398:	d0eb      	beq.n	8001372 <Display::Detect(display::Type)+0x2c>
 800139a:	bd38      	pop	{r3, r4, r5, pc}

0800139c <Display::Display()>:
 800139c:	2304      	movs	r3, #4
 800139e:	b510      	push	{r4, lr}
 80013a0:	6003      	str	r3, [r0, #0]
 80013a2:	4b0f      	ldr	r3, [pc, #60]	; (80013e0 <Display::Display()+0x44>)
 80013a4:	4604      	mov	r4, r0
 80013a6:	681b      	ldr	r3, [r3, #0]
 80013a8:	4a0e      	ldr	r2, [pc, #56]	; (80013e4 <Display::Display()+0x48>)
 80013aa:	6043      	str	r3, [r0, #4]
 80013ac:	2321      	movs	r3, #33	; 0x21
 80013ae:	7203      	strb	r3, [r0, #8]
 80013b0:	4b0d      	ldr	r3, [pc, #52]	; (80013e8 <Display::Display()+0x4c>)
 80013b2:	2102      	movs	r1, #2
 80013b4:	60c3      	str	r3, [r0, #12]
 80013b6:	2300      	movs	r3, #0
 80013b8:	e9c0 2305 	strd	r2, r3, [r0, #20]
 80013bc:	8203      	strh	r3, [r0, #16]
 80013be:	4b0b      	ldr	r3, [pc, #44]	; (80013ec <Display::Display()+0x50>)
 80013c0:	6018      	str	r0, [r3, #0]
 80013c2:	f7ff ffc0 	bl	8001346 <Display::Detect(display::Type)>
 80013c6:	4620      	mov	r0, r4
 80013c8:	f7ff ffa5 	bl	8001316 <Display::Detect7Segment()>
 80013cc:	69a3      	ldr	r3, [r4, #24]
 80013ce:	b10b      	cbz	r3, 80013d4 <Display::Display()+0x38>
 80013d0:	f000 fa06 	bl	80017e0 <display::timeout::gpio_init()>
 80013d4:	69a0      	ldr	r0, [r4, #24]
 80013d6:	f7ff ff61 	bl	800129c <Display::PrintInfo() [clone .isra.0]>
 80013da:	4620      	mov	r0, r4
 80013dc:	bd10      	pop	{r4, pc}
 80013de:	bf00      	nop
 80013e0:	20000114 	andcs	r0, r0, r4, lsl r1
 80013e4:	000493e0 	andeq	r9, r4, r0, ror #7
 80013e8:	00061a80 	andeq	r1, r6, r0, lsl #21
 80013ec:	20000080 	andcs	r0, r0, r0, lsl #1

080013f0 <Ssd1306::~Ssd1306()>:
 80013f0:	4770      	bx	lr

080013f2 <Ssd1306::SetCursor(unsigned int)>:
 80013f2:	4770      	bx	lr

080013f4 <Ssd1306::PrintInfo()>:
 80013f4:	b410      	push	{r4}
 80013f6:	e9d0 3201 	ldrd	r3, r2, [r0, #4]
 80013fa:	7e44      	ldrb	r4, [r0, #25]
 80013fc:	4904      	ldr	r1, [pc, #16]	; (8001410 <Ssd1306::PrintInfo()+0x1c>)
 80013fe:	4805      	ldr	r0, [pc, #20]	; (8001414 <Ssd1306::PrintInfo()+0x20>)
 8001400:	2c00      	cmp	r4, #0
 8001402:	bf08      	it	eq
 8001404:	4601      	moveq	r1, r0
 8001406:	4804      	ldr	r0, [pc, #16]	; (8001418 <Ssd1306::PrintInfo()+0x24>)
 8001408:	bc10      	pop	{r4}
 800140a:	f7ff bdd1 	b.w	8000fb0 <printf>
 800140e:	bf00      	nop
 8001410:	08002bcd 	stmdaeq	r0, {r0, r2, r3, r6, r7, r8, r9, fp, sp}
 8001414:	08002bd4 	stmdaeq	r0, {r2, r4, r6, r7, r8, r9, fp, sp}
 8001418:	08002bdc 	stmdaeq	r0, {r2, r3, r4, r6, r7, r8, r9, fp, sp}

0800141c <Ssd1306::~Ssd1306()>:
 800141c:	b510      	push	{r4, lr}
 800141e:	4604      	mov	r4, r0
 8001420:	f000 fa4c 	bl	80018bc <operator delete(void*)>
 8001424:	4620      	mov	r0, r4
 8001426:	bd10      	pop	{r4, pc}

08001428 <HAL_I2C::Setup()>:
 8001428:	b510      	push	{r4, lr}
 800142a:	4604      	mov	r4, r0
 800142c:	7800      	ldrb	r0, [r0, #0]
 800142e:	f000 ff55 	bl	80022dc <gd32_i2c_set_address>
 8001432:	6860      	ldr	r0, [r4, #4]
 8001434:	e8bd 4010 	ldmia.w	sp!, {r4, lr}
 8001438:	f000 bf48 	b.w	80022cc <gd32_i2c_set_baudrate>

0800143c <Ssd1306::PutChar(int)>:
 800143c:	b510      	push	{r4, lr}
 800143e:	f1a1 0420 	sub.w	r4, r1, #32
 8001442:	2c5f      	cmp	r4, #95	; 0x5f
 8001444:	bf88      	it	hi
 8001446:	2400      	movhi	r4, #0
 8001448:	3010      	adds	r0, #16
 800144a:	f7ff ffed 	bl	8001428 <HAL_I2C::Setup()>
 800144e:	4804      	ldr	r0, [pc, #16]	; (8001460 <Ssd1306::PutChar(int)+0x24>)
 8001450:	ebc4 04c4 	rsb	r4, r4, r4, lsl #3
 8001454:	4420      	add	r0, r4
 8001456:	2107      	movs	r1, #7
 8001458:	e8bd 4010 	ldmia.w	sp!, {r4, lr}
 800145c:	f000 bf44 	b.w	80022e8 <gd32_i2c_write>
 8001460:	08002bf0 	stmdaeq	r0, {r4, r5, r6, r7, r8, r9, fp, sp}

08001464 <Ssd1306::PutString(char const*)>:
 8001464:	b538      	push	{r3, r4, r5, lr}
 8001466:	4605      	mov	r5, r0
 8001468:	1e4c      	subs	r4, r1, #1
 800146a:	f814 1f01 	ldrb.w	r1, [r4, #1]!
 800146e:	b901      	cbnz	r1, 8001472 <Ssd1306::PutString(char const*)+0xe>
 8001470:	bd38      	pop	{r3, r4, r5, pc}
 8001472:	4628      	mov	r0, r5
 8001474:	f7ff ffe2 	bl	800143c <Ssd1306::PutChar(int)>
 8001478:	e7f7      	b.n	800146a <Ssd1306::PutString(char const*)+0x6>

0800147a <Ssd1306::Text(char const*, unsigned int)>:
 800147a:	6843      	ldr	r3, [r0, #4]
 800147c:	b570      	push	{r4, r5, r6, lr}
 800147e:	4605      	mov	r5, r0
 8001480:	460c      	mov	r4, r1
 8001482:	429a      	cmp	r2, r3
 8001484:	bf94      	ite	ls
 8001486:	188e      	addls	r6, r1, r2
 8001488:	18ce      	addhi	r6, r1, r3
 800148a:	42b4      	cmp	r4, r6
 800148c:	d100      	bne.n	8001490 <Ssd1306::Text(char const*, unsigned int)+0x16>
 800148e:	bd70      	pop	{r4, r5, r6, pc}
 8001490:	4628      	mov	r0, r5
 8001492:	f814 1b01 	ldrb.w	r1, [r4], #1
 8001496:	f7ff ffd1 	bl	800143c <Ssd1306::PutChar(int)>
 800149a:	e7f6      	b.n	800148a <Ssd1306::Text(char const*, unsigned int)+0x10>

0800149c <Ssd1306::InitMembers()>:
 800149c:	7e03      	ldrb	r3, [r0, #24]
 800149e:	b14b      	cbz	r3, 80014b4 <Ssd1306::InitMembers()+0x18>
 80014a0:	3b01      	subs	r3, #1
 80014a2:	2b01      	cmp	r3, #1
 80014a4:	d909      	bls.n	80014ba <Ssd1306::InitMembers()+0x1e>
 80014a6:	2308      	movs	r3, #8
 80014a8:	2204      	movs	r2, #4
 80014aa:	2115      	movs	r1, #21
 80014ac:	61c2      	str	r2, [r0, #28]
 80014ae:	e9c0 1301 	strd	r1, r3, [r0, #4]
 80014b2:	4770      	bx	lr
 80014b4:	2308      	movs	r3, #8
 80014b6:	461a      	mov	r2, r3
 80014b8:	e7f7      	b.n	80014aa <Ssd1306::InitMembers()+0xe>
 80014ba:	2304      	movs	r3, #4
 80014bc:	e7fb      	b.n	80014b6 <Ssd1306::InitMembers()+0x1a>
	...

080014c0 <Ssd1306::Ssd1306(TOledPanel)>:
 80014c0:	227f      	movs	r2, #127	; 0x7f
 80014c2:	8182      	strh	r2, [r0, #12]
 80014c4:	4a07      	ldr	r2, [pc, #28]	; (80014e4 <Ssd1306::Ssd1306(TOledPanel)+0x24>)
 80014c6:	b508      	push	{r3, lr}
 80014c8:	6002      	str	r2, [r0, #0]
 80014ca:	223c      	movs	r2, #60	; 0x3c
 80014cc:	7402      	strb	r2, [r0, #16]
 80014ce:	4a06      	ldr	r2, [pc, #24]	; (80014e8 <Ssd1306::Ssd1306(TOledPanel)+0x28>)
 80014d0:	7601      	strb	r1, [r0, #24]
 80014d2:	6142      	str	r2, [r0, #20]
 80014d4:	2200      	movs	r2, #0
 80014d6:	7642      	strb	r2, [r0, #25]
 80014d8:	4a04      	ldr	r2, [pc, #16]	; (80014ec <Ssd1306::Ssd1306(TOledPanel)+0x2c>)
 80014da:	6010      	str	r0, [r2, #0]
 80014dc:	f7ff ffde 	bl	800149c <Ssd1306::InitMembers()>
 80014e0:	bd08      	pop	{r3, pc}
 80014e2:	bf00      	nop
 80014e4:	08002ec8 	stmdaeq	r0, {r3, r6, r7, r9, sl, fp, sp}
 80014e8:	00061a80 	andeq	r1, r6, r0, lsl #21
 80014ec:	2000010c 	andcs	r0, r0, ip, lsl #2

080014f0 <Ssd1306::SendCommand(unsigned char)>:
 80014f0:	2300      	movs	r3, #0
 80014f2:	b507      	push	{r0, r1, r2, lr}
 80014f4:	3010      	adds	r0, #16
 80014f6:	f88d 3004 	strb.w	r3, [sp, #4]
 80014fa:	f88d 1005 	strb.w	r1, [sp, #5]
 80014fe:	f7ff ff93 	bl	8001428 <HAL_I2C::Setup()>
 8001502:	2102      	movs	r1, #2
 8001504:	a801      	add	r0, sp, #4
 8001506:	f000 feef 	bl	80022e8 <gd32_i2c_write>
 800150a:	b003      	add	sp, #12
 800150c:	f85d fb04 	ldr.w	pc, [sp], #4

08001510 <Ssd1306::SetCursorPos(unsigned int, unsigned int)>:
 8001510:	2914      	cmp	r1, #20
 8001512:	b570      	push	{r4, r5, r6, lr}
 8001514:	4605      	mov	r5, r0
 8001516:	4616      	mov	r6, r2
 8001518:	d81d      	bhi.n	8001556 <Ssd1306::SetCursorPos(unsigned int, unsigned int)+0x46>
 800151a:	6883      	ldr	r3, [r0, #8]
 800151c:	4293      	cmp	r3, r2
 800151e:	d91a      	bls.n	8001556 <Ssd1306::SetCursorPos(unsigned int, unsigned int)+0x46>
 8001520:	eb01 0141 	add.w	r1, r1, r1, lsl #1
 8001524:	7e43      	ldrb	r3, [r0, #25]
 8001526:	004c      	lsls	r4, r1, #1
 8001528:	b2e4      	uxtb	r4, r4
 800152a:	b10b      	cbz	r3, 8001530 <Ssd1306::SetCursorPos(unsigned int, unsigned int)+0x20>
 800152c:	3404      	adds	r4, #4
 800152e:	b2e4      	uxtb	r4, r4
 8001530:	4628      	mov	r0, r5
 8001532:	f004 010e 	and.w	r1, r4, #14
 8001536:	f7ff ffdb 	bl	80014f0 <Ssd1306::SendCommand(unsigned char)>
 800153a:	0921      	lsrs	r1, r4, #4
 800153c:	4628      	mov	r0, r5
 800153e:	f041 0110 	orr.w	r1, r1, #16
 8001542:	f7ff ffd5 	bl	80014f0 <Ssd1306::SendCommand(unsigned char)>
 8001546:	f066 014f 	orn	r1, r6, #79	; 0x4f
 800154a:	4628      	mov	r0, r5
 800154c:	e8bd 4070 	ldmia.w	sp!, {r4, r5, r6, lr}
 8001550:	b2c9      	uxtb	r1, r1
 8001552:	f7ff bfcd 	b.w	80014f0 <Ssd1306::SendCommand(unsigned char)>
 8001556:	bd70      	pop	{r4, r5, r6, pc}

08001558 <Ssd1306::TextLine(unsigned int, char const*, unsigned int)>:
 8001558:	b570      	push	{r4, r5, r6, lr}
 800155a:	461e      	mov	r6, r3
 800155c:	6883      	ldr	r3, [r0, #8]
 800155e:	4604      	mov	r4, r0
 8001560:	428b      	cmp	r3, r1
 8001562:	4615      	mov	r5, r2
 8001564:	d30b      	bcc.n	800157e <Ssd1306::TextLine(unsigned int, char const*, unsigned int)+0x26>
 8001566:	3901      	subs	r1, #1
 8001568:	b2ca      	uxtb	r2, r1
 800156a:	2100      	movs	r1, #0
 800156c:	f7ff ffd0 	bl	8001510 <Ssd1306::SetCursorPos(unsigned int, unsigned int)>
 8001570:	4632      	mov	r2, r6
 8001572:	4629      	mov	r1, r5
 8001574:	4620      	mov	r0, r4
 8001576:	e8bd 4070 	ldmia.w	sp!, {r4, r5, r6, lr}
 800157a:	f7ff bf7e 	b.w	800147a <Ssd1306::Text(char const*, unsigned int)>
 800157e:	bd70      	pop	{r4, r5, r6, pc}

08001580 <Ssd1306::ClearLine(unsigned int)>:
 8001580:	b538      	push	{r3, r4, r5, lr}
 8001582:	6883      	ldr	r3, [r0, #8]
 8001584:	4605      	mov	r5, r0
 8001586:	428b      	cmp	r3, r1
 8001588:	d314      	bcc.n	80015b4 <Ssd1306::ClearLine(unsigned int)+0x34>
 800158a:	3901      	subs	r1, #1
 800158c:	b2cc      	uxtb	r4, r1
 800158e:	4622      	mov	r2, r4
 8001590:	2100      	movs	r1, #0
 8001592:	f7ff ffbd 	bl	8001510 <Ssd1306::SetCursorPos(unsigned int, unsigned int)>
 8001596:	f105 0010 	add.w	r0, r5, #16
 800159a:	f7ff ff45 	bl	8001428 <HAL_I2C::Setup()>
 800159e:	2181      	movs	r1, #129	; 0x81
 80015a0:	4805      	ldr	r0, [pc, #20]	; (80015b8 <Ssd1306::ClearLine(unsigned int)+0x38>)
 80015a2:	f000 fea1 	bl	80022e8 <gd32_i2c_write>
 80015a6:	4622      	mov	r2, r4
 80015a8:	4628      	mov	r0, r5
 80015aa:	e8bd 4038 	ldmia.w	sp!, {r3, r4, r5, lr}
 80015ae:	2100      	movs	r1, #0
 80015b0:	f7ff bfae 	b.w	8001510 <Ssd1306::SetCursorPos(unsigned int, unsigned int)>
 80015b4:	bd38      	pop	{r3, r4, r5, pc}
 80015b6:	bf00      	nop
 80015b8:	20000084 	andcs	r0, r0, r4, lsl #1

080015bc <Ssd1306::SetSleep(bool)>:
 80015bc:	b111      	cbz	r1, 80015c4 <Ssd1306::SetSleep(bool)+0x8>
 80015be:	21ae      	movs	r1, #174	; 0xae
 80015c0:	f7ff bf96 	b.w	80014f0 <Ssd1306::SendCommand(unsigned char)>
 80015c4:	21af      	movs	r1, #175	; 0xaf
 80015c6:	e7fb      	b.n	80015c0 <Ssd1306::SetSleep(bool)+0x4>

080015c8 <Ssd1306::SetContrast(unsigned char)>:
 80015c8:	b538      	push	{r3, r4, r5, lr}
 80015ca:	4604      	mov	r4, r0
 80015cc:	460d      	mov	r5, r1
 80015ce:	7301      	strb	r1, [r0, #12]
 80015d0:	2181      	movs	r1, #129	; 0x81
 80015d2:	f7ff ff8d 	bl	80014f0 <Ssd1306::SendCommand(unsigned char)>
 80015d6:	4629      	mov	r1, r5
 80015d8:	4620      	mov	r0, r4
 80015da:	e8bd 4038 	ldmia.w	sp!, {r3, r4, r5, lr}
 80015de:	f7ff bf87 	b.w	80014f0 <Ssd1306::SendCommand(unsigned char)>

080015e2 <Ssd1306::SetFlipVertically(bool)>:
 80015e2:	b510      	push	{r4, lr}
 80015e4:	4604      	mov	r4, r0
 80015e6:	7341      	strb	r1, [r0, #13]
 80015e8:	b141      	cbz	r1, 80015fc <Ssd1306::SetFlipVertically(bool)+0x1a>
 80015ea:	21c0      	movs	r1, #192	; 0xc0
 80015ec:	f7ff ff80 	bl	80014f0 <Ssd1306::SendCommand(unsigned char)>
 80015f0:	21a0      	movs	r1, #160	; 0xa0
 80015f2:	4620      	mov	r0, r4
 80015f4:	e8bd 4010 	ldmia.w	sp!, {r4, lr}
 80015f8:	f7ff bf7a 	b.w	80014f0 <Ssd1306::SendCommand(unsigned char)>
 80015fc:	21c8      	movs	r1, #200	; 0xc8
 80015fe:	f7ff ff77 	bl	80014f0 <Ssd1306::SendCommand(unsigned char)>
 8001602:	21a1      	movs	r1, #161	; 0xa1
 8001604:	e7f5      	b.n	80015f2 <Ssd1306::SetFlipVertically(bool)+0x10>
	...

08001608 <Ssd1306::CheckSH1106()>:
 8001608:	b530      	push	{r4, r5, lr}
 800160a:	4604      	mov	r4, r0
 800160c:	b087      	sub	sp, #28
 800160e:	2100      	movs	r1, #0
 8001610:	f7ff ff6e 	bl	80014f0 <Ssd1306::SendCommand(unsigned char)>
 8001614:	2190      	movs	r1, #144	; 0x90
 8001616:	4620      	mov	r0, r4
 8001618:	f7ff ff6a 	bl	80014f0 <Ssd1306::SendCommand(unsigned char)>
 800161c:	21b0      	movs	r1, #176	; 0xb0
 800161e:	4620      	mov	r0, r4
 8001620:	f7ff ff66 	bl	80014f0 <Ssd1306::SendCommand(unsigned char)>
 8001624:	4b22      	ldr	r3, [pc, #136]	; (80016b0 <Ssd1306::CheckSH1106()+0xa8>)
 8001626:	f104 0510 	add.w	r5, r4, #16
 800162a:	6818      	ldr	r0, [r3, #0]
 800162c:	791b      	ldrb	r3, [r3, #4]
 800162e:	9002      	str	r0, [sp, #8]
 8001630:	4628      	mov	r0, r5
 8001632:	f88d 300c 	strb.w	r3, [sp, #12]
 8001636:	f7ff fef7 	bl	8001428 <HAL_I2C::Setup()>
 800163a:	2105      	movs	r1, #5
 800163c:	a802      	add	r0, sp, #8
 800163e:	f000 fe53 	bl	80022e8 <gd32_i2c_write>
 8001642:	2100      	movs	r1, #0
 8001644:	4620      	mov	r0, r4
 8001646:	f7ff ff53 	bl	80014f0 <Ssd1306::SendCommand(unsigned char)>
 800164a:	2190      	movs	r1, #144	; 0x90
 800164c:	4620      	mov	r0, r4
 800164e:	f7ff ff4f 	bl	80014f0 <Ssd1306::SendCommand(unsigned char)>
 8001652:	21b0      	movs	r1, #176	; 0xb0
 8001654:	4620      	mov	r0, r4
 8001656:	f7ff ff4b 	bl	80014f0 <Ssd1306::SendCommand(unsigned char)>
 800165a:	2300      	movs	r3, #0
 800165c:	9304      	str	r3, [sp, #16]
 800165e:	f88d 3014 	strb.w	r3, [sp, #20]
 8001662:	2340      	movs	r3, #64	; 0x40
 8001664:	4628      	mov	r0, r5
 8001666:	f88d 3007 	strb.w	r3, [sp, #7]
 800166a:	f7ff fedd 	bl	8001428 <HAL_I2C::Setup()>
 800166e:	2101      	movs	r1, #1
 8001670:	f10d 0007 	add.w	r0, sp, #7
 8001674:	f000 fe38 	bl	80022e8 <gd32_i2c_write>
 8001678:	4628      	mov	r0, r5
 800167a:	f7ff fed5 	bl	8001428 <HAL_I2C::Setup()>
 800167e:	2105      	movs	r1, #5
 8001680:	a804      	add	r0, sp, #16
 8001682:	f000 fe97 	bl	80023b4 <gd32_i2c_read>
 8001686:	2004      	movs	r0, #4
 8001688:	aa02      	add	r2, sp, #8
 800168a:	a904      	add	r1, sp, #16
 800168c:	3801      	subs	r0, #1
 800168e:	d201      	bcs.n	8001694 <Ssd1306::CheckSH1106()+0x8c>
 8001690:	2300      	movs	r3, #0
 8001692:	e006      	b.n	80016a2 <Ssd1306::CheckSH1106()+0x9a>
 8001694:	f812 3f01 	ldrb.w	r3, [r2, #1]!
 8001698:	f811 5f01 	ldrb.w	r5, [r1, #1]!
 800169c:	42ab      	cmp	r3, r5
 800169e:	d0f5      	beq.n	800168c <Ssd1306::CheckSH1106()+0x84>
 80016a0:	1b5b      	subs	r3, r3, r5
 80016a2:	fab3 f383 	clz	r3, r3
 80016a6:	095b      	lsrs	r3, r3, #5
 80016a8:	7663      	strb	r3, [r4, #25]
 80016aa:	b007      	add	sp, #28
 80016ac:	bd30      	pop	{r4, r5, pc}
 80016ae:	bf00      	nop
 80016b0:	08002be8 	stmdaeq	r0, {r3, r5, r6, r7, r8, r9, fp, sp}

080016b4 <Ssd1306::Cls()>:
 80016b4:	e92d 41f0 	stmdb	sp!, {r4, r5, r6, r7, r8, lr}
 80016b8:	4604      	mov	r4, r0
 80016ba:	2600      	movs	r6, #0
 80016bc:	7e45      	ldrb	r5, [r0, #25]
 80016be:	00ad      	lsls	r5, r5, #2
 80016c0:	b2ed      	uxtb	r5, r5
 80016c2:	f1a5 077f 	sub.w	r7, r5, #127	; 0x7f
 80016c6:	f045 0810 	orr.w	r8, r5, #16
 80016ca:	b2ff      	uxtb	r7, r7
 80016cc:	69e3      	ldr	r3, [r4, #28]
 80016ce:	4629      	mov	r1, r5
 80016d0:	42b3      	cmp	r3, r6
 80016d2:	4620      	mov	r0, r4
 80016d4:	d80b      	bhi.n	80016ee <Ssd1306::Cls()+0x3a>
 80016d6:	f7ff ff0b 	bl	80014f0 <Ssd1306::SendCommand(unsigned char)>
 80016da:	4641      	mov	r1, r8
 80016dc:	4620      	mov	r0, r4
 80016de:	f7ff ff07 	bl	80014f0 <Ssd1306::SendCommand(unsigned char)>
 80016e2:	4620      	mov	r0, r4
 80016e4:	e8bd 41f0 	ldmia.w	sp!, {r4, r5, r6, r7, r8, lr}
 80016e8:	21b0      	movs	r1, #176	; 0xb0
 80016ea:	f7ff bf01 	b.w	80014f0 <Ssd1306::SendCommand(unsigned char)>
 80016ee:	f7ff feff 	bl	80014f0 <Ssd1306::SendCommand(unsigned char)>
 80016f2:	4641      	mov	r1, r8
 80016f4:	4620      	mov	r0, r4
 80016f6:	f7ff fefb 	bl	80014f0 <Ssd1306::SendCommand(unsigned char)>
 80016fa:	f066 014f 	orn	r1, r6, #79	; 0x4f
 80016fe:	4620      	mov	r0, r4
 8001700:	b2c9      	uxtb	r1, r1
 8001702:	f7ff fef5 	bl	80014f0 <Ssd1306::SendCommand(unsigned char)>
 8001706:	7e23      	ldrb	r3, [r4, #24]
 8001708:	b123      	cbz	r3, 8001714 <Ssd1306::Cls()+0x60>
 800170a:	3b01      	subs	r3, #1
 800170c:	2b01      	cmp	r3, #1
 800170e:	d901      	bls.n	8001714 <Ssd1306::Cls()+0x60>
 8001710:	3601      	adds	r6, #1
 8001712:	e7db      	b.n	80016cc <Ssd1306::Cls()+0x18>
 8001714:	f104 0010 	add.w	r0, r4, #16
 8001718:	f7ff fe86 	bl	8001428 <HAL_I2C::Setup()>
 800171c:	4639      	mov	r1, r7
 800171e:	4802      	ldr	r0, [pc, #8]	; (8001728 <Ssd1306::Cls()+0x74>)
 8001720:	f000 fde2 	bl	80022e8 <gd32_i2c_write>
 8001724:	e7f4      	b.n	8001710 <Ssd1306::Cls()+0x5c>
 8001726:	bf00      	nop
 8001728:	20000084 	andcs	r0, r0, r4, lsl #1

0800172c <Ssd1306::Start()>:
 800172c:	b5f7      	push	{r0, r1, r2, r4, r5, r6, r7, lr}
 800172e:	7c04      	ldrb	r4, [r0, #16]
 8001730:	6946      	ldr	r6, [r0, #20]
 8001732:	4605      	mov	r5, r0
 8001734:	4620      	mov	r0, r4
 8001736:	f000 fdd1 	bl	80022dc <gd32_i2c_set_address>
 800173a:	4630      	mov	r0, r6
 800173c:	f000 fdc6 	bl	80022cc <gd32_i2c_set_baudrate>
 8001740:	f1a4 0330 	sub.w	r3, r4, #48	; 0x30
 8001744:	2b07      	cmp	r3, #7
 8001746:	d902      	bls.n	800174e <Ssd1306::Start()+0x22>
 8001748:	3c50      	subs	r4, #80	; 0x50
 800174a:	2c0f      	cmp	r4, #15
 800174c:	d80f      	bhi.n	800176e <Ssd1306::Start()+0x42>
 800174e:	2101      	movs	r1, #1
 8001750:	f10d 0007 	add.w	r0, sp, #7
 8001754:	f000 fe2e 	bl	80023b4 <gd32_i2c_read>
 8001758:	fab0 f480 	clz	r4, r0
 800175c:	0964      	lsrs	r4, r4, #5
 800175e:	b35c      	cbz	r4, 80017b8 <Ssd1306::Start()+0x8c>
 8001760:	7e2e      	ldrb	r6, [r5, #24]
 8001762:	b14e      	cbz	r6, 8001778 <Ssd1306::Start()+0x4c>
 8001764:	3e01      	subs	r6, #1
 8001766:	2e01      	cmp	r6, #1
 8001768:	d929      	bls.n	80017be <Ssd1306::Start()+0x92>
 800176a:	2400      	movs	r4, #0
 800176c:	e024      	b.n	80017b8 <Ssd1306::Start()+0x8c>
 800176e:	2100      	movs	r1, #0
 8001770:	4608      	mov	r0, r1
 8001772:	f000 fdb9 	bl	80022e8 <gd32_i2c_write>
 8001776:	e7ef      	b.n	8001758 <Ssd1306::Start()+0x2c>
 8001778:	4f16      	ldr	r7, [pc, #88]	; (80017d4 <Ssd1306::Start()+0xa8>)
 800177a:	4628      	mov	r0, r5
 800177c:	f817 1b01 	ldrb.w	r1, [r7], #1
 8001780:	3601      	adds	r6, #1
 8001782:	f7ff feb5 	bl	80014f0 <Ssd1306::SendCommand(unsigned char)>
 8001786:	2e18      	cmp	r6, #24
 8001788:	d1f7      	bne.n	800177a <Ssd1306::Start()+0x4e>
 800178a:	2300      	movs	r3, #0
 800178c:	4a12      	ldr	r2, [pc, #72]	; (80017d8 <Ssd1306::Start()+0xac>)
 800178e:	4618      	mov	r0, r3
 8001790:	4611      	mov	r1, r2
 8001792:	3301      	adds	r3, #1
 8001794:	2b86      	cmp	r3, #134	; 0x86
 8001796:	f802 0b01 	strb.w	r0, [r2], #1
 800179a:	d1fa      	bne.n	8001792 <Ssd1306::Start()+0x66>
 800179c:	2340      	movs	r3, #64	; 0x40
 800179e:	4628      	mov	r0, r5
 80017a0:	700b      	strb	r3, [r1, #0]
 80017a2:	f7ff ff31 	bl	8001608 <Ssd1306::CheckSH1106()>
 80017a6:	4628      	mov	r0, r5
 80017a8:	f7ff ff84 	bl	80016b4 <Ssd1306::Cls()>
 80017ac:	21af      	movs	r1, #175	; 0xaf
 80017ae:	4628      	mov	r0, r5
 80017b0:	f7ff fe9e 	bl	80014f0 <Ssd1306::SendCommand(unsigned char)>
 80017b4:	2301      	movs	r3, #1
 80017b6:	736b      	strb	r3, [r5, #13]
 80017b8:	4620      	mov	r0, r4
 80017ba:	b003      	add	sp, #12
 80017bc:	bdf0      	pop	{r4, r5, r6, r7, pc}
 80017be:	2600      	movs	r6, #0
 80017c0:	4f06      	ldr	r7, [pc, #24]	; (80017dc <Ssd1306::Start()+0xb0>)
 80017c2:	4628      	mov	r0, r5
 80017c4:	f817 1b01 	ldrb.w	r1, [r7], #1
 80017c8:	3601      	adds	r6, #1
 80017ca:	f7ff fe91 	bl	80014f0 <Ssd1306::SendCommand(unsigned char)>
 80017ce:	2e18      	cmp	r6, #24
 80017d0:	d1f7      	bne.n	80017c2 <Ssd1306::Start()+0x96>
 80017d2:	e7da      	b.n	800178a <Ssd1306::Start()+0x5e>
 80017d4:	08002ea8 	stmdaeq	r0, {r3, r5, r7, r9, sl, fp, sp}
 80017d8:	20000084 	andcs	r0, r0, r4, lsl #1
 80017dc:	08002e90 	stmdaeq	r0, {r4, r7, r9, sl, fp, sp}

080017e0 <display::timeout::gpio_init()>:
 80017e0:	4770      	bx	lr

080017e2 <console_putc>:
 80017e2:	f000 b97b 	b.w	8001adc <uart0_putc>

080017e6 <console_puts>:
 80017e6:	f000 b999 	b.w	8001b1c <uart0_puts>
	...

080017ec <Hardware::Hardware()>:
 80017ec:	2306      	movs	r3, #6
 80017ee:	b570      	push	{r4, r5, r6, lr}
 80017f0:	2400      	movs	r4, #0
 80017f2:	6043      	str	r3, [r0, #4]
 80017f4:	f44f 73fa 	mov.w	r3, #500	; 0x1f4
 80017f8:	e9c0 3403 	strd	r3, r4, [r0, #12]
 80017fc:	4b2d      	ldr	r3, [pc, #180]	; (80018b4 <Hardware::Hardware()+0xc8>)
 80017fe:	b090      	sub	sp, #64	; 0x40
 8001800:	7004      	strb	r4, [r0, #0]
 8001802:	7204      	strb	r4, [r0, #8]
 8001804:	6144      	str	r4, [r0, #20]
 8001806:	6018      	str	r0, [r3, #0]
 8001808:	4605      	mov	r5, r0
 800180a:	f7fe fc91 	bl	8000130 <console_init>
 800180e:	f000 f995 	bl	8001b3c <systick_config>
 8001812:	f000 ff6f 	bl	80026f4 <udelay_init()>
 8001816:	f000 ff6b 	bl	80026f0 <micros_init()>
 800181a:	f240 701b 	movw	r0, #1819	; 0x71b
 800181e:	f000 fabd 	bl	8001d9c <rcu_periph_clock_enable>
 8001822:	f240 701c 	movw	r0, #1820	; 0x71c
 8001826:	f000 fab9 	bl	8001d9c <rcu_periph_clock_enable>
 800182a:	4e23      	ldr	r6, [pc, #140]	; (80018b8 <Hardware::Hardware()+0xcc>)
 800182c:	f000 faae 	bl	8001d8c <pmu_backup_write_enable>
 8001830:	4621      	mov	r1, r4
 8001832:	2002      	movs	r0, #2
 8001834:	f000 fa10 	bl	8001c58 <bkp_data_write>
 8001838:	f240 7004 	movw	r0, #1796	; 0x704
 800183c:	f000 faae 	bl	8001d9c <rcu_periph_clock_enable>
 8001840:	4630      	mov	r0, r6
 8001842:	f000 fb51 	bl	8001ee8 <timer_deinit>
 8001846:	236b      	movs	r3, #107	; 0x6b
 8001848:	f8ad 300c 	strh.w	r3, [sp, #12]
 800184c:	f04f 33ff 	mov.w	r3, #4294967295	; 0xffffffff
 8001850:	a903      	add	r1, sp, #12
 8001852:	4630      	mov	r0, r6
 8001854:	9305      	str	r3, [sp, #20]
 8001856:	f000 fba9 	bl	8001fac <timer_init>
 800185a:	4630      	mov	r0, r6
 800185c:	f000 fbfe 	bl	800205c <timer_enable>
 8001860:	f000 fca6 	bl	80021b0 <gd32_adc_init()>
 8001864:	2213      	movs	r2, #19
 8001866:	2302      	movs	r3, #2
 8001868:	e9cd 230a 	strd	r2, r3, [sp, #40]	; 0x28
 800186c:	237b      	movs	r3, #123	; 0x7b
 800186e:	a807      	add	r0, sp, #28
 8001870:	930c      	str	r3, [sp, #48]	; 0x30
 8001872:	e9cd 4408 	strd	r4, r4, [sp, #32]
 8001876:	9407      	str	r4, [sp, #28]
 8001878:	940f      	str	r4, [sp, #60]	; 0x3c
 800187a:	f000 f8d3 	bl	8001a24 <mktime>
 800187e:	4621      	mov	r1, r4
 8001880:	e9cd 0401 	strd	r0, r4, [sp, #4]
 8001884:	a801      	add	r0, sp, #4
 8001886:	f104 4480 	add.w	r4, r4, #1073741824	; 0x40000000
 800188a:	f7ff f84d 	bl	8000928 <settimeofday>
 800188e:	f504 3488 	add.w	r4, r4, #69632	; 0x11000
 8001892:	f000 fce7 	bl	8002264 <gd32_i2c_begin>
 8001896:	f240 6004 	movw	r0, #1540	; 0x604
 800189a:	f000 fa7f 	bl	8001d9c <rcu_periph_clock_enable>
 800189e:	4620      	mov	r0, r4
 80018a0:	2301      	movs	r3, #1
 80018a2:	2203      	movs	r2, #3
 80018a4:	2110      	movs	r1, #16
 80018a6:	f000 f9ed 	bl	8001c84 <gpio_init>
 80018aa:	2301      	movs	r3, #1
 80018ac:	4628      	mov	r0, r5
 80018ae:	6163      	str	r3, [r4, #20]
 80018b0:	b010      	add	sp, #64	; 0x40
 80018b2:	bd70      	pop	{r4, r5, r6, pc}
 80018b4:	20000110 	andcs	r0, r0, r0, lsl r1
 80018b8:	40001000 	andmi	r1, r0, r0

080018bc <operator delete(void*)>:
 80018bc:	f000 b862 	b.w	8001984 <free>

080018c0 <operator new(unsigned int)>:
 80018c0:	f000 b800 	b.w	80018c4 <malloc>

080018c4 <malloc>:
 80018c4:	b5f8      	push	{r3, r4, r5, r6, r7, lr}
 80018c6:	4605      	mov	r5, r0
 80018c8:	bb38      	cbnz	r0, 800191a <malloc+0x56>
 80018ca:	2500      	movs	r5, #0
 80018cc:	4628      	mov	r0, r5
 80018ce:	bdf8      	pop	{r3, r4, r5, r6, r7, pc}
 80018d0:	429d      	cmp	r5, r3
 80018d2:	d93d      	bls.n	8001950 <malloc+0x8c>
 80018d4:	3608      	adds	r6, #8
 80018d6:	6833      	ldr	r3, [r6, #0]
 80018d8:	2b00      	cmp	r3, #0
 80018da:	d1f9      	bne.n	80018d0 <malloc+0xc>
 80018dc:	4f1f      	ldr	r7, [pc, #124]	; (800195c <malloc+0x98>)
 80018de:	f105 061b 	add.w	r6, r5, #27
 80018e2:	683c      	ldr	r4, [r7, #0]
 80018e4:	f026 060f 	bic.w	r6, r6, #15
 80018e8:	07a1      	lsls	r1, r4, #30
 80018ea:	4426      	add	r6, r4
 80018ec:	d005      	beq.n	80018fa <malloc+0x36>
 80018ee:	2177      	movs	r1, #119	; 0x77
 80018f0:	4b1b      	ldr	r3, [pc, #108]	; (8001960 <malloc+0x9c>)
 80018f2:	4a1c      	ldr	r2, [pc, #112]	; (8001964 <malloc+0xa0>)
 80018f4:	481c      	ldr	r0, [pc, #112]	; (8001968 <malloc+0xa4>)
 80018f6:	f7ff f849 	bl	800098c <__assert_func>
 80018fa:	07b2      	lsls	r2, r6, #30
 80018fc:	d005      	beq.n	800190a <malloc+0x46>
 80018fe:	2178      	movs	r1, #120	; 0x78
 8001900:	4b1a      	ldr	r3, [pc, #104]	; (800196c <malloc+0xa8>)
 8001902:	4a18      	ldr	r2, [pc, #96]	; (8001964 <malloc+0xa0>)
 8001904:	4818      	ldr	r0, [pc, #96]	; (8001968 <malloc+0xa4>)
 8001906:	f7ff f841 	bl	800098c <__assert_func>
 800190a:	4b19      	ldr	r3, [pc, #100]	; (8001970 <malloc+0xac>)
 800190c:	429e      	cmp	r6, r3
 800190e:	d8dc      	bhi.n	80018ca <malloc+0x6>
 8001910:	4b18      	ldr	r3, [pc, #96]	; (8001974 <malloc+0xb0>)
 8001912:	603e      	str	r6, [r7, #0]
 8001914:	e9c4 3500 	strd	r3, r5, [r4]
 8001918:	e00d      	b.n	8001936 <malloc+0x72>
 800191a:	4e17      	ldr	r6, [pc, #92]	; (8001978 <malloc+0xb4>)
 800191c:	e7db      	b.n	80018d6 <malloc+0x12>
 800191e:	6822      	ldr	r2, [r4, #0]
 8001920:	4b14      	ldr	r3, [pc, #80]	; (8001974 <malloc+0xb0>)
 8001922:	429a      	cmp	r2, r3
 8001924:	d005      	beq.n	8001932 <malloc+0x6e>
 8001926:	216d      	movs	r1, #109	; 0x6d
 8001928:	4b14      	ldr	r3, [pc, #80]	; (800197c <malloc+0xb8>)
 800192a:	4a0e      	ldr	r2, [pc, #56]	; (8001964 <malloc+0xa0>)
 800192c:	480e      	ldr	r0, [pc, #56]	; (8001968 <malloc+0xa4>)
 800192e:	f7ff f82d 	bl	800098c <__assert_func>
 8001932:	68a3      	ldr	r3, [r4, #8]
 8001934:	6073      	str	r3, [r6, #4]
 8001936:	2300      	movs	r3, #0
 8001938:	60a3      	str	r3, [r4, #8]
 800193a:	07a3      	lsls	r3, r4, #30
 800193c:	f104 050c 	add.w	r5, r4, #12
 8001940:	d0c4      	beq.n	80018cc <malloc+0x8>
 8001942:	218c      	movs	r1, #140	; 0x8c
 8001944:	4b0e      	ldr	r3, [pc, #56]	; (8001980 <malloc+0xbc>)
 8001946:	4a07      	ldr	r2, [pc, #28]	; (8001964 <malloc+0xa0>)
 8001948:	4807      	ldr	r0, [pc, #28]	; (8001968 <malloc+0xa4>)
 800194a:	f7ff f81f 	bl	800098c <__assert_func>
 800194e:	e7bd      	b.n	80018cc <malloc+0x8>
 8001950:	6874      	ldr	r4, [r6, #4]
 8001952:	2c00      	cmp	r4, #0
 8001954:	d1e3      	bne.n	800191e <malloc+0x5a>
 8001956:	461d      	mov	r5, r3
 8001958:	e7c0      	b.n	80018dc <malloc+0x18>
 800195a:	bf00      	nop
 800195c:	20000000 	andcs	r0, r0, r0
 8001960:	08002f59 	stmdaeq	r0, {r0, r3, r4, r6, r8, r9, sl, fp, sp}
 8001964:	08002fd4 	stmdaeq	r0, {r2, r4, r6, r7, r8, r9, sl, fp, sp}
 8001968:	08002f2f 	stmdaeq	r0, {r0, r1, r2, r3, r5, r8, r9, sl, fp, sp}
 800196c:	08002f7f 	stmdaeq	r0, {r0, r1, r2, r3, r4, r5, r6, r8, r9, sl, fp, sp}
 8001970:	2000b000 	andcs	fp, r0, r0
 8001974:	424c4d43 	submi	r4, ip, #4288	; 0x10c0
 8001978:	20000004 	andcs	r0, r0, r4
 800197c:	08002f3c 	stmdaeq	r0, {r2, r3, r4, r5, r8, r9, sl, fp, sp}
 8001980:	08002fa3 	stmdaeq	r0, {r0, r1, r5, r7, r8, r9, sl, fp, sp}

08001984 <free>:
 8001984:	b538      	push	{r3, r4, r5, lr}
 8001986:	4604      	mov	r4, r0
 8001988:	b1d8      	cbz	r0, 80019c2 <free+0x3e>
 800198a:	4d0e      	ldr	r5, [pc, #56]	; (80019c4 <free+0x40>)
 800198c:	f850 3c0c 	ldr.w	r3, [r0, #-12]
 8001990:	42ab      	cmp	r3, r5
 8001992:	d009      	beq.n	80019a8 <free+0x24>
 8001994:	4b0c      	ldr	r3, [pc, #48]	; (80019c8 <free+0x44>)
 8001996:	219d      	movs	r1, #157	; 0x9d
 8001998:	4a0c      	ldr	r2, [pc, #48]	; (80019cc <free+0x48>)
 800199a:	480d      	ldr	r0, [pc, #52]	; (80019d0 <free+0x4c>)
 800199c:	f7fe fff6 	bl	800098c <__assert_func>
 80019a0:	f854 3c0c 	ldr.w	r3, [r4, #-12]
 80019a4:	42ab      	cmp	r3, r5
 80019a6:	d10c      	bne.n	80019c2 <free+0x3e>
 80019a8:	4b0a      	ldr	r3, [pc, #40]	; (80019d4 <free+0x50>)
 80019aa:	e000      	b.n	80019ae <free+0x2a>
 80019ac:	3308      	adds	r3, #8
 80019ae:	681a      	ldr	r2, [r3, #0]
 80019b0:	b13a      	cbz	r2, 80019c2 <free+0x3e>
 80019b2:	f854 1c08 	ldr.w	r1, [r4, #-8]
 80019b6:	4291      	cmp	r1, r2
 80019b8:	d1f8      	bne.n	80019ac <free+0x28>
 80019ba:	685a      	ldr	r2, [r3, #4]
 80019bc:	3c0c      	subs	r4, #12
 80019be:	60a2      	str	r2, [r4, #8]
 80019c0:	605c      	str	r4, [r3, #4]
 80019c2:	bd38      	pop	{r3, r4, r5, pc}
 80019c4:	424c4d43 	submi	r4, ip, #4288	; 0x10c0
 80019c8:	08002f3c 	stmdaeq	r0, {r2, r3, r4, r5, r8, r9, sl, fp, sp}
 80019cc:	08002fcf 	stmdaeq	r0, {r0, r1, r2, r3, r6, r7, r8, r9, sl, fp, sp}
 80019d0:	08002f2f 	stmdaeq	r0, {r0, r1, r2, r3, r5, r8, r9, sl, fp, sp}
 80019d4:	20000004 	andcs	r0, r0, r4

080019d8 <isleapyear>:
 80019d8:	2264      	movs	r2, #100	; 0x64
 80019da:	fb90 f3f2 	sdiv	r3, r0, r2
 80019de:	fb02 0313 	mls	r3, r2, r3, r0
 80019e2:	b94b      	cbnz	r3, 80019f8 <isleapyear+0x20>
 80019e4:	f44f 73c8 	mov.w	r3, #400	; 0x190
 80019e8:	fb90 f2f3 	sdiv	r2, r0, r3
 80019ec:	fb03 0012 	mls	r0, r3, r2, r0
 80019f0:	fab0 f080 	clz	r0, r0
 80019f4:	0940      	lsrs	r0, r0, #5
 80019f6:	4770      	bx	lr
 80019f8:	f010 0f03 	tst.w	r0, #3
 80019fc:	bf0c      	ite	eq
 80019fe:	2001      	moveq	r0, #1
 8001a00:	2000      	movne	r0, #0
 8001a02:	4770      	bx	lr

08001a04 <getdaysofmonth>:
 8001a04:	b510      	push	{r4, lr}
 8001a06:	4604      	mov	r4, r0
 8001a08:	2c01      	cmp	r4, #1
 8001a0a:	4608      	mov	r0, r1
 8001a0c:	d102      	bne.n	8001a14 <getdaysofmonth+0x10>
 8001a0e:	f7ff ffe3 	bl	80019d8 <isleapyear>
 8001a12:	b918      	cbnz	r0, 8001a1c <getdaysofmonth+0x18>
 8001a14:	4b02      	ldr	r3, [pc, #8]	; (8001a20 <getdaysofmonth+0x1c>)
 8001a16:	f853 0024 	ldr.w	r0, [r3, r4, lsl #2]
 8001a1a:	bd10      	pop	{r4, pc}
 8001a1c:	201d      	movs	r0, #29
 8001a1e:	e7fc      	b.n	8001a1a <getdaysofmonth+0x16>
 8001a20:	08002fdc 	stmdaeq	r0, {r2, r3, r4, r6, r7, r8, r9, sl, fp, sp}

08001a24 <mktime>:
 8001a24:	e92d 41f0 	stmdb	sp!, {r4, r5, r6, r7, r8, lr}
 8001a28:	4604      	mov	r4, r0
 8001a2a:	2800      	cmp	r0, #0
 8001a2c:	d043      	beq.n	8001ab6 <mktime+0x92>
 8001a2e:	6941      	ldr	r1, [r0, #20]
 8001a30:	f1a1 0346 	sub.w	r3, r1, #70	; 0x46
 8001a34:	2b45      	cmp	r3, #69	; 0x45
 8001a36:	d83e      	bhi.n	8001ab6 <mktime+0x92>
 8001a38:	2600      	movs	r6, #0
 8001a3a:	f240 75b2 	movw	r5, #1970	; 0x7b2
 8001a3e:	f240 186d 	movw	r8, #365	; 0x16d
 8001a42:	f201 776b 	addw	r7, r1, #1899	; 0x76b
 8001a46:	42af      	cmp	r7, r5
 8001a48:	da24      	bge.n	8001a94 <mktime+0x70>
 8001a4a:	6927      	ldr	r7, [r4, #16]
 8001a4c:	2f0b      	cmp	r7, #11
 8001a4e:	d832      	bhi.n	8001ab6 <mktime+0x92>
 8001a50:	2500      	movs	r5, #0
 8001a52:	42af      	cmp	r7, r5
 8001a54:	d129      	bne.n	8001aaa <mktime+0x86>
 8001a56:	68e5      	ldr	r5, [r4, #12]
 8001a58:	2d00      	cmp	r5, #0
 8001a5a:	dd2c      	ble.n	8001ab6 <mktime+0x92>
 8001a5c:	4638      	mov	r0, r7
 8001a5e:	f7ff ffd1 	bl	8001a04 <getdaysofmonth>
 8001a62:	4285      	cmp	r5, r0
 8001a64:	dc27      	bgt.n	8001ab6 <mktime+0x92>
 8001a66:	2318      	movs	r3, #24
 8001a68:	3d01      	subs	r5, #1
 8001a6a:	4435      	add	r5, r6
 8001a6c:	435d      	muls	r5, r3
 8001a6e:	68a3      	ldr	r3, [r4, #8]
 8001a70:	2b17      	cmp	r3, #23
 8001a72:	d820      	bhi.n	8001ab6 <mktime+0x92>
 8001a74:	213c      	movs	r1, #60	; 0x3c
 8001a76:	442b      	add	r3, r5
 8001a78:	fb01 f203 	mul.w	r2, r1, r3
 8001a7c:	6863      	ldr	r3, [r4, #4]
 8001a7e:	2b3b      	cmp	r3, #59	; 0x3b
 8001a80:	d819      	bhi.n	8001ab6 <mktime+0x92>
 8001a82:	6820      	ldr	r0, [r4, #0]
 8001a84:	4413      	add	r3, r2
 8001a86:	283b      	cmp	r0, #59	; 0x3b
 8001a88:	fb01 f303 	mul.w	r3, r1, r3
 8001a8c:	d813      	bhi.n	8001ab6 <mktime+0x92>
 8001a8e:	4418      	add	r0, r3
 8001a90:	e8bd 81f0 	ldmia.w	sp!, {r4, r5, r6, r7, r8, pc}
 8001a94:	4628      	mov	r0, r5
 8001a96:	f7ff ff9f 	bl	80019d8 <isleapyear>
 8001a9a:	2800      	cmp	r0, #0
 8001a9c:	bf14      	ite	ne
 8001a9e:	f44f 73b7 	movne.w	r3, #366	; 0x16e
 8001aa2:	4643      	moveq	r3, r8
 8001aa4:	3501      	adds	r5, #1
 8001aa6:	441e      	add	r6, r3
 8001aa8:	e7cd      	b.n	8001a46 <mktime+0x22>
 8001aaa:	4628      	mov	r0, r5
 8001aac:	f7ff ffaa 	bl	8001a04 <getdaysofmonth>
 8001ab0:	3501      	adds	r5, #1
 8001ab2:	4406      	add	r6, r0
 8001ab4:	e7cd      	b.n	8001a52 <mktime+0x2e>
 8001ab6:	f04f 30ff 	mov.w	r0, #4294967295	; 0xffffffff
 8001aba:	e7e9      	b.n	8001a90 <mktime+0x6c>

08001abc <uart0_init>:
 8001abc:	2301      	movs	r3, #1
 8001abe:	b507      	push	{r0, r1, r2, lr}
 8001ac0:	2208      	movs	r2, #8
 8001ac2:	9300      	str	r3, [sp, #0]
 8001ac4:	f44f 31e1 	mov.w	r1, #115200	; 0x1c200
 8001ac8:	2300      	movs	r3, #0
 8001aca:	4803      	ldr	r0, [pc, #12]	; (8001ad8 <uart0_init+0x1c>)
 8001acc:	f000 fd16 	bl	80024fc <gd32_uart_begin>
 8001ad0:	b003      	add	sp, #12
 8001ad2:	f85d fb04 	ldr.w	pc, [sp], #4
 8001ad6:	bf00      	nop
 8001ad8:	40013800 	andmi	r3, r1, r0, lsl #16

08001adc <uart0_putc>:
 8001adc:	280a      	cmp	r0, #10
 8001ade:	b538      	push	{r3, r4, r5, lr}
 8001ae0:	4604      	mov	r4, r0
 8001ae2:	d10a      	bne.n	8001afa <uart0_putc+0x1e>
 8001ae4:	4d0b      	ldr	r5, [pc, #44]	; (8001b14 <uart0_putc+0x38>)
 8001ae6:	2107      	movs	r1, #7
 8001ae8:	4628      	mov	r0, r5
 8001aea:	f000 fb55 	bl	8002198 <usart_flag_get>
 8001aee:	2800      	cmp	r0, #0
 8001af0:	d0f9      	beq.n	8001ae6 <uart0_putc+0xa>
 8001af2:	220d      	movs	r2, #13
 8001af4:	4b08      	ldr	r3, [pc, #32]	; (8001b18 <uart0_putc+0x3c>)
 8001af6:	f8c3 2804 	str.w	r2, [r3, #2052]	; 0x804
 8001afa:	4d06      	ldr	r5, [pc, #24]	; (8001b14 <uart0_putc+0x38>)
 8001afc:	2107      	movs	r1, #7
 8001afe:	4628      	mov	r0, r5
 8001b00:	f000 fb4a 	bl	8002198 <usart_flag_get>
 8001b04:	2800      	cmp	r0, #0
 8001b06:	d0f9      	beq.n	8001afc <uart0_putc+0x20>
 8001b08:	4b03      	ldr	r3, [pc, #12]	; (8001b18 <uart0_putc+0x3c>)
 8001b0a:	b2e4      	uxtb	r4, r4
 8001b0c:	f8c3 4804 	str.w	r4, [r3, #2052]	; 0x804
 8001b10:	bd38      	pop	{r3, r4, r5, pc}
 8001b12:	bf00      	nop
 8001b14:	40013800 	andmi	r3, r1, r0, lsl #16
 8001b18:	40013000 	andmi	r3, r1, r0

08001b1c <uart0_puts>:
 8001b1c:	b510      	push	{r4, lr}
 8001b1e:	1e44      	subs	r4, r0, #1
 8001b20:	f814 3f01 	ldrb.w	r3, [r4, #1]!
 8001b24:	b903      	cbnz	r3, 8001b28 <uart0_puts+0xc>
 8001b26:	bd10      	pop	{r4, pc}
 8001b28:	2b0a      	cmp	r3, #10
 8001b2a:	d102      	bne.n	8001b32 <uart0_puts+0x16>
 8001b2c:	200d      	movs	r0, #13
 8001b2e:	f7ff ffd5 	bl	8001adc <uart0_putc>
 8001b32:	7820      	ldrb	r0, [r4, #0]
 8001b34:	f7ff ffd2 	bl	8001adc <uart0_putc>
 8001b38:	e7f2      	b.n	8001b20 <uart0_puts+0x4>
	...

08001b3c <systick_config>:
 8001b3c:	f44f 727a 	mov.w	r2, #1000	; 0x3e8
 8001b40:	4b0b      	ldr	r3, [pc, #44]	; (8001b70 <systick_config+0x34>)
 8001b42:	681b      	ldr	r3, [r3, #0]
 8001b44:	fbb3 f3f2 	udiv	r3, r3, r2
 8001b48:	3b01      	subs	r3, #1
 8001b4a:	f1b3 7f80 	cmp.w	r3, #16777216	; 0x1000000
 8001b4e:	d20d      	bcs.n	8001b6c <systick_config+0x30>
 8001b50:	f04f 22e0 	mov.w	r2, #3758153728	; 0xe000e000
 8001b54:	21f0      	movs	r1, #240	; 0xf0
 8001b56:	6153      	str	r3, [r2, #20]
 8001b58:	4b06      	ldr	r3, [pc, #24]	; (8001b74 <systick_config+0x38>)
 8001b5a:	2007      	movs	r0, #7
 8001b5c:	f883 1023 	strb.w	r1, [r3, #35]	; 0x23
 8001b60:	2100      	movs	r1, #0
 8001b62:	6191      	str	r1, [r2, #24]
 8001b64:	6110      	str	r0, [r2, #16]
 8001b66:	f883 1023 	strb.w	r1, [r3, #35]	; 0x23
 8001b6a:	4770      	bx	lr
 8001b6c:	e7fe      	b.n	8001b6c <systick_config+0x30>
 8001b6e:	bf00      	nop
 8001b70:	2000006c 	andcs	r0, r0, ip, rrx
 8001b74:	e000ed00 	and	lr, r0, r0, lsl #26

08001b78 <SysTick_Handler>:
 8001b78:	4a02      	ldr	r2, [pc, #8]	; (8001b84 <SysTick_Handler+0xc>)
 8001b7a:	6813      	ldr	r3, [r2, #0]
 8001b7c:	3301      	adds	r3, #1
 8001b7e:	6013      	str	r3, [r2, #0]
 8001b80:	4770      	bx	lr
 8001b82:	bf00      	nop
 8001b84:	20000114 	andcs	r0, r0, r4, lsl r1

08001b88 <SystemInit>:
 8001b88:	4b30      	ldr	r3, [pc, #192]	; (8001c4c <SystemInit+0xc4>)
 8001b8a:	4931      	ldr	r1, [pc, #196]	; (8001c50 <SystemInit+0xc8>)
 8001b8c:	681a      	ldr	r2, [r3, #0]
 8001b8e:	f042 0201 	orr.w	r2, r2, #1
 8001b92:	601a      	str	r2, [r3, #0]
 8001b94:	685a      	ldr	r2, [r3, #4]
 8001b96:	f022 0203 	bic.w	r2, r2, #3
 8001b9a:	605a      	str	r2, [r3, #4]
 8001b9c:	681a      	ldr	r2, [r3, #0]
 8001b9e:	400a      	ands	r2, r1
 8001ba0:	601a      	str	r2, [r3, #0]
 8001ba2:	6858      	ldr	r0, [r3, #4]
 8001ba4:	4a2b      	ldr	r2, [pc, #172]	; (8001c54 <SystemInit+0xcc>)
 8001ba6:	4002      	ands	r2, r0
 8001ba8:	605a      	str	r2, [r3, #4]
 8001baa:	681a      	ldr	r2, [r3, #0]
 8001bac:	400a      	ands	r2, r1
 8001bae:	601a      	str	r2, [r3, #0]
 8001bb0:	681a      	ldr	r2, [r3, #0]
 8001bb2:	f422 2280 	bic.w	r2, r2, #262144	; 0x40000
 8001bb6:	601a      	str	r2, [r3, #0]
 8001bb8:	685a      	ldr	r2, [r3, #4]
 8001bba:	f022 620f 	bic.w	r2, r2, #149946368	; 0x8f00000
 8001bbe:	f422 2270 	bic.w	r2, r2, #983040	; 0xf0000
 8001bc2:	605a      	str	r2, [r3, #4]
 8001bc4:	681a      	ldr	r2, [r3, #0]
 8001bc6:	400a      	ands	r2, r1
 8001bc8:	601a      	str	r2, [r3, #0]
 8001bca:	f44f 021f 	mov.w	r2, #10420224	; 0x9f0000
 8001bce:	609a      	str	r2, [r3, #8]
 8001bd0:	681a      	ldr	r2, [r3, #0]
 8001bd2:	f442 3280 	orr.w	r2, r2, #65536	; 0x10000
 8001bd6:	601a      	str	r2, [r3, #0]
 8001bd8:	f64f 72ff 	movw	r2, #65535	; 0xffff
 8001bdc:	6819      	ldr	r1, [r3, #0]
 8001bde:	0389      	lsls	r1, r1, #14
 8001be0:	d401      	bmi.n	8001be6 <SystemInit+0x5e>
 8001be2:	3a01      	subs	r2, #1
 8001be4:	d1fa      	bne.n	8001bdc <SystemInit+0x54>
 8001be6:	681a      	ldr	r2, [r3, #0]
 8001be8:	0390      	lsls	r0, r2, #14
 8001bea:	d400      	bmi.n	8001bee <SystemInit+0x66>
 8001bec:	e7fe      	b.n	8001bec <SystemInit+0x64>
 8001bee:	685a      	ldr	r2, [r3, #4]
 8001bf0:	605a      	str	r2, [r3, #4]
 8001bf2:	685a      	ldr	r2, [r3, #4]
 8001bf4:	605a      	str	r2, [r3, #4]
 8001bf6:	685a      	ldr	r2, [r3, #4]
 8001bf8:	f442 6280 	orr.w	r2, r2, #1024	; 0x400
 8001bfc:	605a      	str	r2, [r3, #4]
 8001bfe:	685a      	ldr	r2, [r3, #4]
 8001c00:	f422 3240 	bic.w	r2, r2, #196608	; 0x30000
 8001c04:	605a      	str	r2, [r3, #4]
 8001c06:	685a      	ldr	r2, [r3, #4]
 8001c08:	f442 3240 	orr.w	r2, r2, #196608	; 0x30000
 8001c0c:	605a      	str	r2, [r3, #4]
 8001c0e:	685a      	ldr	r2, [r3, #4]
 8001c10:	f022 6203 	bic.w	r2, r2, #137363456	; 0x8300000
 8001c14:	f422 2240 	bic.w	r2, r2, #786432	; 0xc0000
 8001c18:	605a      	str	r2, [r3, #4]
 8001c1a:	685a      	ldr	r2, [r3, #4]
 8001c1c:	f042 6202 	orr.w	r2, r2, #136314880	; 0x8200000
 8001c20:	f442 2200 	orr.w	r2, r2, #524288	; 0x80000
 8001c24:	605a      	str	r2, [r3, #4]
 8001c26:	681a      	ldr	r2, [r3, #0]
 8001c28:	f042 7280 	orr.w	r2, r2, #16777216	; 0x1000000
 8001c2c:	601a      	str	r2, [r3, #0]
 8001c2e:	681a      	ldr	r2, [r3, #0]
 8001c30:	0191      	lsls	r1, r2, #6
 8001c32:	d5fc      	bpl.n	8001c2e <SystemInit+0xa6>
 8001c34:	685a      	ldr	r2, [r3, #4]
 8001c36:	f022 0203 	bic.w	r2, r2, #3
 8001c3a:	605a      	str	r2, [r3, #4]
 8001c3c:	685a      	ldr	r2, [r3, #4]
 8001c3e:	f042 0202 	orr.w	r2, r2, #2
 8001c42:	605a      	str	r2, [r3, #4]
 8001c44:	685a      	ldr	r2, [r3, #4]
 8001c46:	0712      	lsls	r2, r2, #28
 8001c48:	d5fc      	bpl.n	8001c44 <SystemInit+0xbc>
 8001c4a:	4770      	bx	lr
 8001c4c:	40021000 	andmi	r1, r2, r0
 8001c50:	fef6ffff 	mrc2	15, 7, pc, cr6, cr15, {7}
 8001c54:	e8ff000c 	ldm	pc!, {r2, r3}^	; <UNPREDICTABLE>

08001c58 <bkp_data_write>:
 8001c58:	f1a0 030b 	sub.w	r3, r0, #11
 8001c5c:	2b1f      	cmp	r3, #31
 8001c5e:	d804      	bhi.n	8001c6a <bkp_data_write+0x12>
 8001c60:	4b07      	ldr	r3, [pc, #28]	; (8001c80 <bkp_data_write+0x28>)
 8001c62:	4403      	add	r3, r0
 8001c64:	009b      	lsls	r3, r3, #2
 8001c66:	8019      	strh	r1, [r3, #0]
 8001c68:	4770      	bx	lr
 8001c6a:	1e43      	subs	r3, r0, #1
 8001c6c:	2b09      	cmp	r3, #9
 8001c6e:	bf9f      	itttt	ls
 8001c70:	f100 5080 	addls.w	r0, r0, #268435456	; 0x10000000
 8001c74:	f500 50d8 	addls.w	r0, r0, #6912	; 0x1b00
 8001c78:	0080      	lslls	r0, r0, #2
 8001c7a:	8001      	strhls	r1, [r0, #0]
 8001c7c:	4770      	bx	lr
 8001c7e:	bf00      	nop
 8001c80:	10001b05 	andne	r1, r0, r5, lsl #22

08001c84 <gpio_init>:
 8001c84:	e92d 41f0 	stmdb	sp!, {r4, r5, r6, r7, r8, lr}
 8001c88:	f04f 0c0f 	mov.w	ip, #15
 8001c8c:	06cf      	lsls	r7, r1, #27
 8001c8e:	f04f 0400 	mov.w	r4, #0
 8001c92:	f04f 0701 	mov.w	r7, #1
 8001c96:	f001 050f 	and.w	r5, r1, #15
 8001c9a:	bf48      	it	mi
 8001c9c:	4315      	orrmi	r5, r2
 8001c9e:	fa23 f204 	lsr.w	r2, r3, r4
 8001ca2:	07d6      	lsls	r6, r2, #31
 8001ca4:	d510      	bpl.n	8001cc8 <gpio_init+0x44>
 8001ca6:	00a2      	lsls	r2, r4, #2
 8001ca8:	6806      	ldr	r6, [r0, #0]
 8001caa:	fa0c fe02 	lsl.w	lr, ip, r2
 8001cae:	ea26 060e 	bic.w	r6, r6, lr
 8001cb2:	fa05 f202 	lsl.w	r2, r5, r2
 8001cb6:	2928      	cmp	r1, #40	; 0x28
 8001cb8:	ea42 0206 	orr.w	r2, r2, r6
 8001cbc:	d128      	bne.n	8001d10 <gpio_init+0x8c>
 8001cbe:	fa07 f604 	lsl.w	r6, r7, r4
 8001cc2:	401e      	ands	r6, r3
 8001cc4:	6146      	str	r6, [r0, #20]
 8001cc6:	6002      	str	r2, [r0, #0]
 8001cc8:	3401      	adds	r4, #1
 8001cca:	2c08      	cmp	r4, #8
 8001ccc:	d1e7      	bne.n	8001c9e <gpio_init+0x1a>
 8001cce:	2600      	movs	r6, #0
 8001cd0:	f04f 0c0f 	mov.w	ip, #15
 8001cd4:	2701      	movs	r7, #1
 8001cd6:	f106 0208 	add.w	r2, r6, #8
 8001cda:	fa23 f402 	lsr.w	r4, r3, r2
 8001cde:	07e4      	lsls	r4, r4, #31
 8001ce0:	d511      	bpl.n	8001d06 <gpio_init+0x82>
 8001ce2:	00b4      	lsls	r4, r6, #2
 8001ce4:	f8d0 e004 	ldr.w	lr, [r0, #4]
 8001ce8:	fa0c f804 	lsl.w	r8, ip, r4
 8001cec:	ea2e 0e08 	bic.w	lr, lr, r8
 8001cf0:	fa05 f404 	lsl.w	r4, r5, r4
 8001cf4:	2928      	cmp	r1, #40	; 0x28
 8001cf6:	ea44 040e 	orr.w	r4, r4, lr
 8001cfa:	d110      	bne.n	8001d1e <gpio_init+0x9a>
 8001cfc:	fa07 f202 	lsl.w	r2, r7, r2
 8001d00:	401a      	ands	r2, r3
 8001d02:	6142      	str	r2, [r0, #20]
 8001d04:	6044      	str	r4, [r0, #4]
 8001d06:	3601      	adds	r6, #1
 8001d08:	2e08      	cmp	r6, #8
 8001d0a:	d1e4      	bne.n	8001cd6 <gpio_init+0x52>
 8001d0c:	e8bd 81f0 	ldmia.w	sp!, {r4, r5, r6, r7, r8, pc}
 8001d10:	2948      	cmp	r1, #72	; 0x48
 8001d12:	bf02      	ittt	eq
 8001d14:	fa07 f604 	lsleq.w	r6, r7, r4
 8001d18:	401e      	andeq	r6, r3
 8001d1a:	6106      	streq	r6, [r0, #16]
 8001d1c:	e7d3      	b.n	8001cc6 <gpio_init+0x42>
 8001d1e:	2948      	cmp	r1, #72	; 0x48
 8001d20:	bf02      	ittt	eq
 8001d22:	fa07 f202 	lsleq.w	r2, r7, r2
 8001d26:	401a      	andeq	r2, r3
 8001d28:	6102      	streq	r2, [r0, #16]
 8001d2a:	e7eb      	b.n	8001d04 <gpio_init+0x80>

08001d2c <gpio_pin_remap_config>:
 8001d2c:	2800      	cmp	r0, #0
 8001d2e:	4a16      	ldr	r2, [pc, #88]	; (8001d88 <gpio_pin_remap_config+0x5c>)
 8001d30:	b530      	push	{r4, r5, lr}
 8001d32:	f400 1540 	and.w	r5, r0, #3145728	; 0x300000
 8001d36:	bfb4      	ite	lt
 8001d38:	69d3      	ldrlt	r3, [r2, #28]
 8001d3a:	6853      	ldrge	r3, [r2, #4]
 8001d3c:	f5b5 1f40 	cmp.w	r5, #3145728	; 0x300000
 8001d40:	b284      	uxth	r4, r0
 8001d42:	d110      	bne.n	8001d66 <gpio_pin_remap_config+0x3a>
 8001d44:	6855      	ldr	r5, [r2, #4]
 8001d46:	f023 6370 	bic.w	r3, r3, #251658240	; 0xf000000
 8001d4a:	f025 6570 	bic.w	r5, r5, #251658240	; 0xf000000
 8001d4e:	6055      	str	r5, [r2, #4]
 8001d50:	b119      	cbz	r1, 8001d5a <gpio_pin_remap_config+0x2e>
 8001d52:	0d42      	lsrs	r2, r0, #21
 8001d54:	0112      	lsls	r2, r2, #4
 8001d56:	4094      	lsls	r4, r2
 8001d58:	4323      	orrs	r3, r4
 8001d5a:	4a0b      	ldr	r2, [pc, #44]	; (8001d88 <gpio_pin_remap_config+0x5c>)
 8001d5c:	2800      	cmp	r0, #0
 8001d5e:	bfb4      	ite	lt
 8001d60:	61d3      	strlt	r3, [r2, #28]
 8001d62:	6053      	strge	r3, [r2, #4]
 8001d64:	bd30      	pop	{r4, r5, pc}
 8001d66:	02c2      	lsls	r2, r0, #11
 8001d68:	bf4d      	iteet	mi
 8001d6a:	2203      	movmi	r2, #3
 8001d6c:	0d42      	lsrpl	r2, r0, #21
 8001d6e:	0112      	lslpl	r2, r2, #4
 8001d70:	f3c0 4503 	ubfxmi	r5, r0, #16, #4
 8001d74:	bf4c      	ite	mi
 8001d76:	40aa      	lslmi	r2, r5
 8001d78:	fa04 f202 	lslpl.w	r2, r4, r2
 8001d7c:	ea23 0302 	bic.w	r3, r3, r2
 8001d80:	f043 6370 	orr.w	r3, r3, #251658240	; 0xf000000
 8001d84:	e7e4      	b.n	8001d50 <gpio_pin_remap_config+0x24>
 8001d86:	bf00      	nop
 8001d88:	40010000 	andmi	r0, r1, r0

08001d8c <pmu_backup_write_enable>:
 8001d8c:	4a02      	ldr	r2, [pc, #8]	; (8001d98 <pmu_backup_write_enable+0xc>)
 8001d8e:	6813      	ldr	r3, [r2, #0]
 8001d90:	f443 7380 	orr.w	r3, r3, #256	; 0x100
 8001d94:	6013      	str	r3, [r2, #0]
 8001d96:	4770      	bx	lr
 8001d98:	40007000 	andmi	r7, r0, r0

08001d9c <rcu_periph_clock_enable>:
 8001d9c:	2201      	movs	r2, #1
 8001d9e:	0983      	lsrs	r3, r0, #6
 8001da0:	f103 4380 	add.w	r3, r3, #1073741824	; 0x40000000
 8001da4:	f503 3304 	add.w	r3, r3, #135168	; 0x21000
 8001da8:	6819      	ldr	r1, [r3, #0]
 8001daa:	f000 001f 	and.w	r0, r0, #31
 8001dae:	4082      	lsls	r2, r0
 8001db0:	430a      	orrs	r2, r1
 8001db2:	601a      	str	r2, [r3, #0]
 8001db4:	4770      	bx	lr

08001db6 <rcu_periph_clock_disable>:
 8001db6:	2101      	movs	r1, #1
 8001db8:	0983      	lsrs	r3, r0, #6
 8001dba:	f103 4380 	add.w	r3, r3, #1073741824	; 0x40000000
 8001dbe:	f503 3304 	add.w	r3, r3, #135168	; 0x21000
 8001dc2:	681a      	ldr	r2, [r3, #0]
 8001dc4:	f000 001f 	and.w	r0, r0, #31
 8001dc8:	4081      	lsls	r1, r0
 8001dca:	ea22 0201 	bic.w	r2, r2, r1
 8001dce:	601a      	str	r2, [r3, #0]
 8001dd0:	4770      	bx	lr

08001dd2 <rcu_periph_reset_enable>:
 8001dd2:	f7ff bfe3 	b.w	8001d9c <rcu_periph_clock_enable>

08001dd6 <rcu_periph_reset_disable>:
 8001dd6:	f7ff bfee 	b.w	8001db6 <rcu_periph_clock_disable>
	...

08001ddc <rcu_adc_clock_config>:
 8001ddc:	490c      	ldr	r1, [pc, #48]	; (8001e10 <rcu_adc_clock_config+0x34>)
 8001dde:	2805      	cmp	r0, #5
 8001de0:	684b      	ldr	r3, [r1, #4]
 8001de2:	f023 5380 	bic.w	r3, r3, #268435456	; 0x10000000
 8001de6:	f423 4340 	bic.w	r3, r3, #49152	; 0xc000
 8001dea:	d006      	beq.n	8001dfa <rcu_adc_clock_config+0x1e>
 8001dec:	d803      	bhi.n	8001df6 <rcu_adc_clock_config+0x1a>
 8001dee:	2804      	cmp	r0, #4
 8001df0:	d10a      	bne.n	8001e08 <rcu_adc_clock_config+0x2c>
 8001df2:	604b      	str	r3, [r1, #4]
 8001df4:	4770      	bx	lr
 8001df6:	2807      	cmp	r0, #7
 8001df8:	d1fb      	bne.n	8001df2 <rcu_adc_clock_config+0x16>
 8001dfa:	4a06      	ldr	r2, [pc, #24]	; (8001e14 <rcu_adc_clock_config+0x38>)
 8001dfc:	ea02 3280 	and.w	r2, r2, r0, lsl #14
 8001e00:	4313      	orrs	r3, r2
 8001e02:	f043 5380 	orr.w	r3, r3, #268435456	; 0x10000000
 8001e06:	e7f4      	b.n	8001df2 <rcu_adc_clock_config+0x16>
 8001e08:	ea43 3380 	orr.w	r3, r3, r0, lsl #14
 8001e0c:	e7f1      	b.n	8001df2 <rcu_adc_clock_config+0x16>
 8001e0e:	bf00      	nop
 8001e10:	40021000 	andmi	r1, r2, r0
 8001e14:	fffec000 			; <UNDEFINED> instruction: 0xfffec000

08001e18 <rcu_clock_freq_get>:
 8001e18:	4b2f      	ldr	r3, [pc, #188]	; (8001ed8 <rcu_clock_freq_get+0xc0>)
 8001e1a:	b5f0      	push	{r4, r5, r6, r7, lr}
 8001e1c:	4604      	mov	r4, r0
 8001e1e:	461f      	mov	r7, r3
 8001e20:	b089      	sub	sp, #36	; 0x24
 8001e22:	ad04      	add	r5, sp, #16
 8001e24:	f103 0610 	add.w	r6, r3, #16
 8001e28:	462a      	mov	r2, r5
 8001e2a:	6818      	ldr	r0, [r3, #0]
 8001e2c:	6859      	ldr	r1, [r3, #4]
 8001e2e:	3308      	adds	r3, #8
 8001e30:	c203      	stmia	r2!, {r0, r1}
 8001e32:	42b3      	cmp	r3, r6
 8001e34:	4615      	mov	r5, r2
 8001e36:	d1f7      	bne.n	8001e28 <rcu_clock_freq_get+0x10>
 8001e38:	466b      	mov	r3, sp
 8001e3a:	6938      	ldr	r0, [r7, #16]
 8001e3c:	6871      	ldr	r1, [r6, #4]
 8001e3e:	4a27      	ldr	r2, [pc, #156]	; (8001edc <rcu_clock_freq_get+0xc4>)
 8001e40:	c303      	stmia	r3!, {r0, r1}
 8001e42:	c303      	stmia	r3!, {r0, r1}
 8001e44:	6853      	ldr	r3, [r2, #4]
 8001e46:	f3c3 0381 	ubfx	r3, r3, #2, #2
 8001e4a:	2b02      	cmp	r3, #2
 8001e4c:	d137      	bne.n	8001ebe <rcu_clock_freq_get+0xa6>
 8001e4e:	6853      	ldr	r3, [r2, #4]
 8001e50:	03dd      	lsls	r5, r3, #15
 8001e52:	d510      	bpl.n	8001e76 <rcu_clock_freq_get+0x5e>
 8001e54:	6853      	ldr	r3, [r2, #4]
 8001e56:	4922      	ldr	r1, [pc, #136]	; (8001ee0 <rcu_clock_freq_get+0xc8>)
 8001e58:	f413 3f00 	tst.w	r3, #131072	; 0x20000
 8001e5c:	4b21      	ldr	r3, [pc, #132]	; (8001ee4 <rcu_clock_freq_get+0xcc>)
 8001e5e:	bf08      	it	eq
 8001e60:	4619      	moveq	r1, r3
 8001e62:	6853      	ldr	r3, [r2, #4]
 8001e64:	6850      	ldr	r0, [r2, #4]
 8001e66:	f3c3 4383 	ubfx	r3, r3, #18, #4
 8001e6a:	0100      	lsls	r0, r0, #4
 8001e6c:	d505      	bpl.n	8001e7a <rcu_clock_freq_get+0x62>
 8001e6e:	f043 0310 	orr.w	r3, r3, #16
 8001e72:	3301      	adds	r3, #1
 8001e74:	e004      	b.n	8001e80 <rcu_clock_freq_get+0x68>
 8001e76:	491a      	ldr	r1, [pc, #104]	; (8001ee0 <rcu_clock_freq_get+0xc8>)
 8001e78:	e7f3      	b.n	8001e62 <rcu_clock_freq_get+0x4a>
 8001e7a:	2b0f      	cmp	r3, #15
 8001e7c:	d0f9      	beq.n	8001e72 <rcu_clock_freq_get+0x5a>
 8001e7e:	3302      	adds	r3, #2
 8001e80:	fb01 f003 	mul.w	r0, r1, r3
 8001e84:	6853      	ldr	r3, [r2, #4]
 8001e86:	6851      	ldr	r1, [r2, #4]
 8001e88:	f3c3 1303 	ubfx	r3, r3, #4, #4
 8001e8c:	6852      	ldr	r2, [r2, #4]
 8001e8e:	3320      	adds	r3, #32
 8001e90:	446b      	add	r3, sp
 8001e92:	f3c1 2102 	ubfx	r1, r1, #8, #3
 8001e96:	f3c2 22c2 	ubfx	r2, r2, #11, #3
 8001e9a:	f813 3c10 	ldrb.w	r3, [r3, #-16]
 8001e9e:	3120      	adds	r1, #32
 8001ea0:	3220      	adds	r2, #32
 8001ea2:	4469      	add	r1, sp
 8001ea4:	446a      	add	r2, sp
 8001ea6:	f811 1c20 	ldrb.w	r1, [r1, #-32]
 8001eaa:	f812 2c18 	ldrb.w	r2, [r2, #-24]
 8001eae:	fa20 f303 	lsr.w	r3, r0, r3
 8001eb2:	2c03      	cmp	r4, #3
 8001eb4:	d80e      	bhi.n	8001ed4 <rcu_clock_freq_get+0xbc>
 8001eb6:	e8df f004 	tbb	[pc, r4]
 8001eba:	0a070405 	beq	81c2ed6 <__exidx_end+0x1bfe4e>
 8001ebe:	4809      	ldr	r0, [pc, #36]	; (8001ee4 <rcu_clock_freq_get+0xcc>)
 8001ec0:	e7e0      	b.n	8001e84 <rcu_clock_freq_get+0x6c>
 8001ec2:	4618      	mov	r0, r3
 8001ec4:	b009      	add	sp, #36	; 0x24
 8001ec6:	bdf0      	pop	{r4, r5, r6, r7, pc}
 8001ec8:	fa23 f001 	lsr.w	r0, r3, r1
 8001ecc:	e7fa      	b.n	8001ec4 <rcu_clock_freq_get+0xac>
 8001ece:	fa23 f002 	lsr.w	r0, r3, r2
 8001ed2:	e7f7      	b.n	8001ec4 <rcu_clock_freq_get+0xac>
 8001ed4:	2000      	movs	r0, #0
 8001ed6:	e7f5      	b.n	8001ec4 <rcu_clock_freq_get+0xac>
 8001ed8:	08002aa4 	stmdaeq	r0, {r2, r5, r7, r9, fp, sp}
 8001edc:	40021000 	andmi	r1, r2, r0
 8001ee0:	003d0900 	eorseq	r0, sp, r0, lsl #18
 8001ee4:	007a1200 	rsbseq	r1, sl, r0, lsl #4

08001ee8 <timer_deinit>:
 8001ee8:	b508      	push	{r3, lr}
 8001eea:	4b2d      	ldr	r3, [pc, #180]	; (8001fa0 <timer_deinit+0xb8>)
 8001eec:	4298      	cmp	r0, r3
 8001eee:	d048      	beq.n	8001f82 <timer_deinit+0x9a>
 8001ef0:	d816      	bhi.n	8001f20 <timer_deinit+0x38>
 8001ef2:	f5a3 6300 	sub.w	r3, r3, #2048	; 0x800
 8001ef6:	4298      	cmp	r0, r3
 8001ef8:	d03c      	beq.n	8001f74 <timer_deinit+0x8c>
 8001efa:	d807      	bhi.n	8001f0c <timer_deinit+0x24>
 8001efc:	f1b0 4f80 	cmp.w	r0, #1073741824	; 0x40000000
 8001f00:	d02a      	beq.n	8001f58 <timer_deinit+0x70>
 8001f02:	f5a3 6380 	sub.w	r3, r3, #1024	; 0x400
 8001f06:	4298      	cmp	r0, r3
 8001f08:	d02d      	beq.n	8001f66 <timer_deinit+0x7e>
 8001f0a:	bd08      	pop	{r3, pc}
 8001f0c:	4b25      	ldr	r3, [pc, #148]	; (8001fa4 <timer_deinit+0xbc>)
 8001f0e:	4298      	cmp	r0, r3
 8001f10:	d1fb      	bne.n	8001f0a <timer_deinit+0x22>
 8001f12:	f240 4003 	movw	r0, #1027	; 0x403
 8001f16:	f7ff ff5c 	bl	8001dd2 <rcu_periph_reset_enable>
 8001f1a:	f240 4003 	movw	r0, #1027	; 0x403
 8001f1e:	e017      	b.n	8001f50 <timer_deinit+0x68>
 8001f20:	4b21      	ldr	r3, [pc, #132]	; (8001fa8 <timer_deinit+0xc0>)
 8001f22:	4298      	cmp	r0, r3
 8001f24:	d00e      	beq.n	8001f44 <timer_deinit+0x5c>
 8001f26:	f503 6300 	add.w	r3, r3, #2048	; 0x800
 8001f2a:	4298      	cmp	r0, r3
 8001f2c:	d030      	beq.n	8001f90 <timer_deinit+0xa8>
 8001f2e:	f5a3 3390 	sub.w	r3, r3, #73728	; 0x12000
 8001f32:	4298      	cmp	r0, r3
 8001f34:	d1e9      	bne.n	8001f0a <timer_deinit+0x22>
 8001f36:	f240 4005 	movw	r0, #1029	; 0x405
 8001f3a:	f7ff ff4a 	bl	8001dd2 <rcu_periph_reset_enable>
 8001f3e:	f240 4005 	movw	r0, #1029	; 0x405
 8001f42:	e005      	b.n	8001f50 <timer_deinit+0x68>
 8001f44:	f240 300b 	movw	r0, #779	; 0x30b
 8001f48:	f7ff ff43 	bl	8001dd2 <rcu_periph_reset_enable>
 8001f4c:	f240 300b 	movw	r0, #779	; 0x30b
 8001f50:	e8bd 4008 	ldmia.w	sp!, {r3, lr}
 8001f54:	f7ff bf3f 	b.w	8001dd6 <rcu_periph_reset_disable>
 8001f58:	f44f 6080 	mov.w	r0, #1024	; 0x400
 8001f5c:	f7ff ff39 	bl	8001dd2 <rcu_periph_reset_enable>
 8001f60:	f44f 6080 	mov.w	r0, #1024	; 0x400
 8001f64:	e7f4      	b.n	8001f50 <timer_deinit+0x68>
 8001f66:	f240 4001 	movw	r0, #1025	; 0x401
 8001f6a:	f7ff ff32 	bl	8001dd2 <rcu_periph_reset_enable>
 8001f6e:	f240 4001 	movw	r0, #1025	; 0x401
 8001f72:	e7ed      	b.n	8001f50 <timer_deinit+0x68>
 8001f74:	f240 4002 	movw	r0, #1026	; 0x402
 8001f78:	f7ff ff2b 	bl	8001dd2 <rcu_periph_reset_enable>
 8001f7c:	f240 4002 	movw	r0, #1026	; 0x402
 8001f80:	e7e6      	b.n	8001f50 <timer_deinit+0x68>
 8001f82:	f240 4004 	movw	r0, #1028	; 0x404
 8001f86:	f7ff ff24 	bl	8001dd2 <rcu_periph_reset_enable>
 8001f8a:	f240 4004 	movw	r0, #1028	; 0x404
 8001f8e:	e7df      	b.n	8001f50 <timer_deinit+0x68>
 8001f90:	f240 300d 	movw	r0, #781	; 0x30d
 8001f94:	f7ff ff1d 	bl	8001dd2 <rcu_periph_reset_enable>
 8001f98:	f240 300d 	movw	r0, #781	; 0x30d
 8001f9c:	e7d8      	b.n	8001f50 <timer_deinit+0x68>
 8001f9e:	bf00      	nop
 8001fa0:	40001000 	andmi	r1, r0, r0
 8001fa4:	40000c00 	andmi	r0, r0, r0, lsl #24
 8001fa8:	40012c00 	andmi	r2, r1, r0, lsl #24

08001fac <timer_init>:
 8001fac:	880b      	ldrh	r3, [r1, #0]
 8001fae:	6283      	str	r3, [r0, #40]	; 0x28
 8001fb0:	4b26      	ldr	r3, [pc, #152]	; (800204c <timer_init+0xa0>)
 8001fb2:	4298      	cmp	r0, r3
 8001fb4:	d018      	beq.n	8001fe8 <timer_init+0x3c>
 8001fb6:	f420 6240 	bic.w	r2, r0, #3072	; 0xc00
 8001fba:	f1b2 4f80 	cmp.w	r2, #1073741824	; 0x40000000
 8001fbe:	f420 6380 	bic.w	r3, r0, #1024	; 0x400
 8001fc2:	d011      	beq.n	8001fe8 <timer_init+0x3c>
 8001fc4:	4a22      	ldr	r2, [pc, #136]	; (8002050 <timer_init+0xa4>)
 8001fc6:	4290      	cmp	r0, r2
 8001fc8:	d00e      	beq.n	8001fe8 <timer_init+0x3c>
 8001fca:	f502 52c0 	add.w	r2, r2, #6144	; 0x1800
 8001fce:	4290      	cmp	r0, r2
 8001fd0:	d00a      	beq.n	8001fe8 <timer_init+0x3c>
 8001fd2:	f502 6280 	add.w	r2, r2, #1024	; 0x400
 8001fd6:	4293      	cmp	r3, r2
 8001fd8:	d006      	beq.n	8001fe8 <timer_init+0x3c>
 8001fda:	f5a2 329c 	sub.w	r2, r2, #79872	; 0x13800
 8001fde:	4293      	cmp	r3, r2
 8001fe0:	d002      	beq.n	8001fe8 <timer_init+0x3c>
 8001fe2:	4b1c      	ldr	r3, [pc, #112]	; (8002054 <timer_init+0xa8>)
 8001fe4:	4298      	cmp	r0, r3
 8001fe6:	d10f      	bne.n	8002008 <timer_init+0x5c>
 8001fe8:	6803      	ldr	r3, [r0, #0]
 8001fea:	f023 0370 	bic.w	r3, r3, #112	; 0x70
 8001fee:	6003      	str	r3, [r0, #0]
 8001ff0:	884b      	ldrh	r3, [r1, #2]
 8001ff2:	6802      	ldr	r2, [r0, #0]
 8001ff4:	f003 0360 	and.w	r3, r3, #96	; 0x60
 8001ff8:	4313      	orrs	r3, r2
 8001ffa:	6003      	str	r3, [r0, #0]
 8001ffc:	888b      	ldrh	r3, [r1, #4]
 8001ffe:	6802      	ldr	r2, [r0, #0]
 8002000:	f003 0310 	and.w	r3, r3, #16
 8002004:	4313      	orrs	r3, r2
 8002006:	6003      	str	r3, [r0, #0]
 8002008:	688b      	ldr	r3, [r1, #8]
 800200a:	62c3      	str	r3, [r0, #44]	; 0x2c
 800200c:	4b12      	ldr	r3, [pc, #72]	; (8002058 <timer_init+0xac>)
 800200e:	4298      	cmp	r0, r3
 8002010:	d003      	beq.n	800201a <timer_init+0x6e>
 8002012:	f503 6380 	add.w	r3, r3, #1024	; 0x400
 8002016:	4298      	cmp	r0, r3
 8002018:	d104      	bne.n	8002024 <timer_init+0x78>
 800201a:	6943      	ldr	r3, [r0, #20]
 800201c:	f043 0301 	orr.w	r3, r3, #1
 8002020:	6143      	str	r3, [r0, #20]
 8002022:	4770      	bx	lr
 8002024:	6803      	ldr	r3, [r0, #0]
 8002026:	f423 7340 	bic.w	r3, r3, #768	; 0x300
 800202a:	6003      	str	r3, [r0, #0]
 800202c:	898b      	ldrh	r3, [r1, #12]
 800202e:	6802      	ldr	r2, [r0, #0]
 8002030:	f403 7340 	and.w	r3, r3, #768	; 0x300
 8002034:	4313      	orrs	r3, r2
 8002036:	6003      	str	r3, [r0, #0]
 8002038:	4b04      	ldr	r3, [pc, #16]	; (800204c <timer_init+0xa0>)
 800203a:	4298      	cmp	r0, r3
 800203c:	d002      	beq.n	8002044 <timer_init+0x98>
 800203e:	4b04      	ldr	r3, [pc, #16]	; (8002050 <timer_init+0xa4>)
 8002040:	4298      	cmp	r0, r3
 8002042:	d1ea      	bne.n	800201a <timer_init+0x6e>
 8002044:	7b8b      	ldrb	r3, [r1, #14]
 8002046:	6303      	str	r3, [r0, #48]	; 0x30
 8002048:	e7e7      	b.n	800201a <timer_init+0x6e>
 800204a:	bf00      	nop
 800204c:	40012c00 	andmi	r2, r1, r0, lsl #24
 8002050:	40013400 	andmi	r3, r1, r0, lsl #8
 8002054:	40002000 	andmi	r2, r0, r0
 8002058:	40001000 	andmi	r1, r0, r0

0800205c <timer_enable>:
 800205c:	6803      	ldr	r3, [r0, #0]
 800205e:	f043 0301 	orr.w	r3, r3, #1
 8002062:	6003      	str	r3, [r0, #0]
 8002064:	4770      	bx	lr
	...

08002068 <usart_deinit>:
 8002068:	b508      	push	{r3, lr}
 800206a:	4b1d      	ldr	r3, [pc, #116]	; (80020e0 <usart_deinit+0x78>)
 800206c:	4298      	cmp	r0, r3
 800206e:	d028      	beq.n	80020c2 <usart_deinit+0x5a>
 8002070:	d808      	bhi.n	8002084 <usart_deinit+0x1c>
 8002072:	f5a3 6300 	sub.w	r3, r3, #2048	; 0x800
 8002076:	4298      	cmp	r0, r3
 8002078:	d015      	beq.n	80020a6 <usart_deinit+0x3e>
 800207a:	f503 6380 	add.w	r3, r3, #1024	; 0x400
 800207e:	4298      	cmp	r0, r3
 8002080:	d018      	beq.n	80020b4 <usart_deinit+0x4c>
 8002082:	bd08      	pop	{r3, pc}
 8002084:	4b17      	ldr	r3, [pc, #92]	; (80020e4 <usart_deinit+0x7c>)
 8002086:	4298      	cmp	r0, r3
 8002088:	d022      	beq.n	80020d0 <usart_deinit+0x68>
 800208a:	f503 4368 	add.w	r3, r3, #59392	; 0xe800
 800208e:	4298      	cmp	r0, r3
 8002090:	d1f7      	bne.n	8002082 <usart_deinit+0x1a>
 8002092:	f240 300e 	movw	r0, #782	; 0x30e
 8002096:	f7ff fe9c 	bl	8001dd2 <rcu_periph_reset_enable>
 800209a:	f240 300e 	movw	r0, #782	; 0x30e
 800209e:	e8bd 4008 	ldmia.w	sp!, {r3, lr}
 80020a2:	f7ff be98 	b.w	8001dd6 <rcu_periph_reset_disable>
 80020a6:	f240 4011 	movw	r0, #1041	; 0x411
 80020aa:	f7ff fe92 	bl	8001dd2 <rcu_periph_reset_enable>
 80020ae:	f240 4011 	movw	r0, #1041	; 0x411
 80020b2:	e7f4      	b.n	800209e <usart_deinit+0x36>
 80020b4:	f240 4012 	movw	r0, #1042	; 0x412
 80020b8:	f7ff fe8b 	bl	8001dd2 <rcu_periph_reset_enable>
 80020bc:	f240 4012 	movw	r0, #1042	; 0x412
 80020c0:	e7ed      	b.n	800209e <usart_deinit+0x36>
 80020c2:	f240 4013 	movw	r0, #1043	; 0x413
 80020c6:	f7ff fe84 	bl	8001dd2 <rcu_periph_reset_enable>
 80020ca:	f240 4013 	movw	r0, #1043	; 0x413
 80020ce:	e7e6      	b.n	800209e <usart_deinit+0x36>
 80020d0:	f240 4014 	movw	r0, #1044	; 0x414
 80020d4:	f7ff fe7d 	bl	8001dd2 <rcu_periph_reset_enable>
 80020d8:	f240 4014 	movw	r0, #1044	; 0x414
 80020dc:	e7df      	b.n	800209e <usart_deinit+0x36>
 80020de:	bf00      	nop
 80020e0:	40004c00 	andmi	r4, r0, r0, lsl #24
 80020e4:	40005000 	andmi	r5, r0, r0

080020e8 <usart_baudrate_set>:
 80020e8:	b538      	push	{r3, r4, r5, lr}
 80020ea:	4b11      	ldr	r3, [pc, #68]	; (8002130 <usart_baudrate_set+0x48>)
 80020ec:	4604      	mov	r4, r0
 80020ee:	4298      	cmp	r0, r3
 80020f0:	460d      	mov	r5, r1
 80020f2:	d01b      	beq.n	800212c <usart_baudrate_set+0x44>
 80020f4:	d809      	bhi.n	800210a <usart_baudrate_set+0x22>
 80020f6:	f5a3 6300 	sub.w	r3, r3, #2048	; 0x800
 80020fa:	4298      	cmp	r0, r3
 80020fc:	d016      	beq.n	800212c <usart_baudrate_set+0x44>
 80020fe:	f503 6380 	add.w	r3, r3, #1024	; 0x400
 8002102:	4298      	cmp	r0, r3
 8002104:	d012      	beq.n	800212c <usart_baudrate_set+0x44>
 8002106:	2000      	movs	r0, #0
 8002108:	e009      	b.n	800211e <usart_baudrate_set+0x36>
 800210a:	4b0a      	ldr	r3, [pc, #40]	; (8002134 <usart_baudrate_set+0x4c>)
 800210c:	4298      	cmp	r0, r3
 800210e:	d00d      	beq.n	800212c <usart_baudrate_set+0x44>
 8002110:	f503 4368 	add.w	r3, r3, #59392	; 0xe800
 8002114:	4298      	cmp	r0, r3
 8002116:	d1f6      	bne.n	8002106 <usart_baudrate_set+0x1e>
 8002118:	2003      	movs	r0, #3
 800211a:	f7ff fe7d 	bl	8001e18 <rcu_clock_freq_get>
 800211e:	eb00 0155 	add.w	r1, r0, r5, lsr #1
 8002122:	fbb1 f1f5 	udiv	r1, r1, r5
 8002126:	b289      	uxth	r1, r1
 8002128:	60a1      	str	r1, [r4, #8]
 800212a:	bd38      	pop	{r3, r4, r5, pc}
 800212c:	2002      	movs	r0, #2
 800212e:	e7f4      	b.n	800211a <usart_baudrate_set+0x32>
 8002130:	40004c00 	andmi	r4, r0, r0, lsl #24
 8002134:	40005000 	andmi	r5, r0, r0

08002138 <usart_parity_config>:
 8002138:	68c3      	ldr	r3, [r0, #12]
 800213a:	f423 63c0 	bic.w	r3, r3, #1536	; 0x600
 800213e:	60c3      	str	r3, [r0, #12]
 8002140:	68c3      	ldr	r3, [r0, #12]
 8002142:	430b      	orrs	r3, r1
 8002144:	60c3      	str	r3, [r0, #12]
 8002146:	4770      	bx	lr

08002148 <usart_word_length_set>:
 8002148:	68c3      	ldr	r3, [r0, #12]
 800214a:	f423 5380 	bic.w	r3, r3, #4096	; 0x1000
 800214e:	60c3      	str	r3, [r0, #12]
 8002150:	68c3      	ldr	r3, [r0, #12]
 8002152:	430b      	orrs	r3, r1
 8002154:	60c3      	str	r3, [r0, #12]
 8002156:	4770      	bx	lr

08002158 <usart_stop_bit_set>:
 8002158:	6903      	ldr	r3, [r0, #16]
 800215a:	f423 5340 	bic.w	r3, r3, #12288	; 0x3000
 800215e:	6103      	str	r3, [r0, #16]
 8002160:	6903      	ldr	r3, [r0, #16]
 8002162:	430b      	orrs	r3, r1
 8002164:	6103      	str	r3, [r0, #16]
 8002166:	4770      	bx	lr

08002168 <usart_transmit_config>:
 8002168:	68c3      	ldr	r3, [r0, #12]
 800216a:	f023 0308 	bic.w	r3, r3, #8
 800216e:	430b      	orrs	r3, r1
 8002170:	60c3      	str	r3, [r0, #12]
 8002172:	4770      	bx	lr

08002174 <usart_receive_config>:
 8002174:	68c3      	ldr	r3, [r0, #12]
 8002176:	f023 0304 	bic.w	r3, r3, #4
 800217a:	430b      	orrs	r3, r1
 800217c:	60c3      	str	r3, [r0, #12]
 800217e:	4770      	bx	lr

08002180 <usart_hardware_flow_rts_config>:
 8002180:	6943      	ldr	r3, [r0, #20]
 8002182:	f423 7380 	bic.w	r3, r3, #256	; 0x100
 8002186:	430b      	orrs	r3, r1
 8002188:	6143      	str	r3, [r0, #20]
 800218a:	4770      	bx	lr

0800218c <usart_hardware_flow_cts_config>:
 800218c:	6943      	ldr	r3, [r0, #20]
 800218e:	f423 7300 	bic.w	r3, r3, #512	; 0x200
 8002192:	430b      	orrs	r3, r1
 8002194:	6143      	str	r3, [r0, #20]
 8002196:	4770      	bx	lr

08002198 <usart_flag_get>:
 8002198:	098b      	lsrs	r3, r1, #6
 800219a:	581a      	ldr	r2, [r3, r0]
 800219c:	2301      	movs	r3, #1
 800219e:	f001 011f 	and.w	r1, r1, #31
 80021a2:	408b      	lsls	r3, r1
 80021a4:	4213      	tst	r3, r2
 80021a6:	bf14      	ite	ne
 80021a8:	2001      	movne	r0, #1
 80021aa:	2000      	moveq	r0, #0
 80021ac:	4770      	bx	lr
	...

080021b0 <gd32_adc_init()>:
 80021b0:	b510      	push	{r4, lr}
 80021b2:	f240 6009 	movw	r0, #1545	; 0x609
 80021b6:	4c21      	ldr	r4, [pc, #132]	; (800223c <gd32_adc_init()+0x8c>)
 80021b8:	f7ff fdf0 	bl	8001d9c <rcu_periph_clock_enable>
 80021bc:	2005      	movs	r0, #5
 80021be:	f7ff fe0d 	bl	8001ddc <rcu_adc_clock_config>
 80021c2:	4620      	mov	r0, r4
 80021c4:	2201      	movs	r2, #1
 80021c6:	f44f 7180 	mov.w	r1, #256	; 0x100
 80021ca:	f000 fae5 	bl	8002798 <adc_special_function_config>
 80021ce:	f44f 42e0 	mov.w	r2, #28672	; 0x7000
 80021d2:	4620      	mov	r0, r4
 80021d4:	2102      	movs	r1, #2
 80021d6:	f000 fb7e 	bl	80028d6 <adc_external_trigger_source_config>
 80021da:	2100      	movs	r1, #0
 80021dc:	4620      	mov	r0, r4
 80021de:	f000 fb03 	bl	80027e8 <adc_data_alignment_config>
 80021e2:	2000      	movs	r0, #0
 80021e4:	f000 fac8 	bl	8002778 <adc_mode_config>
 80021e8:	2202      	movs	r2, #2
 80021ea:	4620      	mov	r0, r4
 80021ec:	4611      	mov	r1, r2
 80021ee:	f000 fb27 	bl	8002840 <adc_channel_length_config>
 80021f2:	4620      	mov	r0, r4
 80021f4:	2307      	movs	r3, #7
 80021f6:	2210      	movs	r2, #16
 80021f8:	2100      	movs	r1, #0
 80021fa:	f000 fb3e 	bl	800287a <adc_inserted_channel_config>
 80021fe:	2307      	movs	r3, #7
 8002200:	4620      	mov	r0, r4
 8002202:	2211      	movs	r2, #17
 8002204:	2101      	movs	r1, #1
 8002206:	f000 fb38 	bl	800287a <adc_inserted_channel_config>
 800220a:	2201      	movs	r2, #1
 800220c:	2102      	movs	r1, #2
 800220e:	4620      	mov	r0, r4
 8002210:	f000 fb72 	bl	80028f8 <adc_external_trigger_config>
 8002214:	f000 fb0a 	bl	800282c <adc_tempsensor_vrefint_enable>
 8002218:	4620      	mov	r0, r4
 800221a:	f000 faee 	bl	80027fa <adc_enable>
 800221e:	2100      	movs	r1, #0
 8002220:	f44f 707a 	mov.w	r0, #1000	; 0x3e8
 8002224:	f000 fa90 	bl	8002748 <udelay(unsigned int, unsigned int)>
 8002228:	4620      	mov	r0, r4
 800222a:	f000 faee 	bl	800280a <adc_calibration_enable>
 800222e:	4620      	mov	r0, r4
 8002230:	e8bd 4010 	ldmia.w	sp!, {r4, lr}
 8002234:	2102      	movs	r1, #2
 8002236:	f000 bb7a 	b.w	800292e <adc_software_trigger_enable>
 800223a:	bf00      	nop
 800223c:	40012400 	andmi	r2, r1, r0, lsl #8

08002240 <_stop() [clone .isra.0]>:
 8002240:	b508      	push	{r3, lr}
 8002242:	4806      	ldr	r0, [pc, #24]	; (800225c <_stop() [clone .isra.0]+0x1c>)
 8002244:	f000 fc06 	bl	8002a54 <i2c_stop_on_bus>
 8002248:	f640 73ff 	movw	r3, #4095	; 0xfff
 800224c:	4904      	ldr	r1, [pc, #16]	; (8002260 <_stop() [clone .isra.0]+0x20>)
 800224e:	f8d1 2400 	ldr.w	r2, [r1, #1024]	; 0x400
 8002252:	0592      	lsls	r2, r2, #22
 8002254:	d501      	bpl.n	800225a <_stop() [clone .isra.0]+0x1a>
 8002256:	3b01      	subs	r3, #1
 8002258:	d1f9      	bne.n	800224e <_stop() [clone .isra.0]+0xe>
 800225a:	bd08      	pop	{r3, pc}
 800225c:	40005400 	andmi	r5, r0, r0, lsl #8
 8002260:	40005000 	andmi	r5, r0, r0

08002264 <gd32_i2c_begin>:
 8002264:	b510      	push	{r4, lr}
 8002266:	f240 7015 	movw	r0, #1813	; 0x715
 800226a:	f7ff fd97 	bl	8001d9c <rcu_periph_clock_enable>
 800226e:	4c15      	ldr	r4, [pc, #84]	; (80022c4 <gd32_i2c_begin+0x60>)
 8002270:	f240 6003 	movw	r0, #1539	; 0x603
 8002274:	f7ff fd92 	bl	8001d9c <rcu_periph_clock_enable>
 8002278:	f240 6003 	movw	r0, #1539	; 0x603
 800227c:	f7ff fd8e 	bl	8001d9c <rcu_periph_clock_enable>
 8002280:	4620      	mov	r0, r4
 8002282:	f44f 7380 	mov.w	r3, #256	; 0x100
 8002286:	2203      	movs	r2, #3
 8002288:	211c      	movs	r1, #28
 800228a:	f7ff fcfb 	bl	8001c84 <gpio_init>
 800228e:	f44f 7300 	mov.w	r3, #512	; 0x200
 8002292:	2203      	movs	r2, #3
 8002294:	4620      	mov	r0, r4
 8002296:	211c      	movs	r1, #28
 8002298:	f7ff fcf4 	bl	8001c84 <gpio_init>
 800229c:	f5a4 4438 	sub.w	r4, r4, #47104	; 0xb800
 80022a0:	2101      	movs	r1, #1
 80022a2:	2002      	movs	r0, #2
 80022a4:	f7ff fd42 	bl	8001d2c <gpio_pin_remap_config>
 80022a8:	4620      	mov	r0, r4
 80022aa:	4907      	ldr	r1, [pc, #28]	; (80022c8 <gd32_i2c_begin+0x64>)
 80022ac:	2200      	movs	r2, #0
 80022ae:	f000 fb4b 	bl	8002948 <i2c_clock_config>
 80022b2:	4620      	mov	r0, r4
 80022b4:	f000 fbc4 	bl	8002a40 <i2c_enable>
 80022b8:	4620      	mov	r0, r4
 80022ba:	e8bd 4010 	ldmia.w	sp!, {r4, lr}
 80022be:	2101      	movs	r1, #1
 80022c0:	f000 bba4 	b.w	8002a0c <i2c_ack_config>
 80022c4:	40010c00 	andmi	r0, r1, r0, lsl #24
 80022c8:	00061a80 	andeq	r1, r6, r0, lsl #21

080022cc <gd32_i2c_set_baudrate>:
 80022cc:	4601      	mov	r1, r0
 80022ce:	2200      	movs	r2, #0
 80022d0:	4801      	ldr	r0, [pc, #4]	; (80022d8 <gd32_i2c_set_baudrate+0xc>)
 80022d2:	f000 bb39 	b.w	8002948 <i2c_clock_config>
 80022d6:	bf00      	nop
 80022d8:	40005400 	andmi	r5, r0, r0, lsl #8

080022dc <gd32_i2c_set_address>:
 80022dc:	4b01      	ldr	r3, [pc, #4]	; (80022e4 <gd32_i2c_set_address+0x8>)
 80022de:	0040      	lsls	r0, r0, #1
 80022e0:	7018      	strb	r0, [r3, #0]
 80022e2:	4770      	bx	lr
 80022e4:	20000118 	andcs	r0, r0, r8, lsl r1

080022e8 <gd32_i2c_write>:
 80022e8:	b5f8      	push	{r3, r4, r5, r6, r7, lr}
 80022ea:	4604      	mov	r4, r0
 80022ec:	460f      	mov	r7, r1
 80022ee:	f640 75ff 	movw	r5, #4095	; 0xfff
 80022f2:	4e2e      	ldr	r6, [pc, #184]	; (80023ac <gd32_i2c_write+0xc4>)
 80022f4:	f240 6101 	movw	r1, #1537	; 0x601
 80022f8:	4630      	mov	r0, r6
 80022fa:	f000 fbb5 	bl	8002a68 <i2c_flag_get>
 80022fe:	b9b0      	cbnz	r0, 800232e <gd32_i2c_write+0x46>
 8002300:	482a      	ldr	r0, [pc, #168]	; (80023ac <gd32_i2c_write+0xc4>)
 8002302:	f000 fba2 	bl	8002a4a <i2c_start_on_bus>
 8002306:	f640 75ff 	movw	r5, #4095	; 0xfff
 800230a:	4e28      	ldr	r6, [pc, #160]	; (80023ac <gd32_i2c_write+0xc4>)
 800230c:	f44f 61a0 	mov.w	r1, #1280	; 0x500
 8002310:	4630      	mov	r0, r6
 8002312:	f000 fba9 	bl	8002a68 <i2c_flag_get>
 8002316:	b190      	cbz	r0, 800233e <gd32_i2c_write+0x56>
 8002318:	4b25      	ldr	r3, [pc, #148]	; (80023b0 <gd32_i2c_write+0xc8>)
 800231a:	f06f 0201 	mvn.w	r2, #1
 800231e:	7819      	ldrb	r1, [r3, #0]
 8002320:	4822      	ldr	r0, [pc, #136]	; (80023ac <gd32_i2c_write+0xc4>)
 8002322:	f000 fb85 	bl	8002a30 <i2c_master_addressing>
 8002326:	f640 75ff 	movw	r5, #4095	; 0xfff
 800232a:	4e20      	ldr	r6, [pc, #128]	; (80023ac <gd32_i2c_write+0xc4>)
 800232c:	e00c      	b.n	8002348 <gd32_i2c_write+0x60>
 800232e:	3d01      	subs	r5, #1
 8002330:	d1e0      	bne.n	80022f4 <gd32_i2c_write+0xc>
 8002332:	f7ff ff85 	bl	8002240 <_stop() [clone .isra.0]>
 8002336:	f04f 30ff 	mov.w	r0, #4294967295	; 0xffffffff
 800233a:	4240      	negs	r0, r0
 800233c:	bdf8      	pop	{r3, r4, r5, r6, r7, pc}
 800233e:	3d01      	subs	r5, #1
 8002340:	d1e4      	bne.n	800230c <gd32_i2c_write+0x24>
 8002342:	e7f6      	b.n	8002332 <gd32_i2c_write+0x4a>
 8002344:	3d01      	subs	r5, #1
 8002346:	d0f4      	beq.n	8002332 <gd32_i2c_write+0x4a>
 8002348:	f240 5101 	movw	r1, #1281	; 0x501
 800234c:	4630      	mov	r0, r6
 800234e:	f000 fb8b 	bl	8002a68 <i2c_flag_get>
 8002352:	2800      	cmp	r0, #0
 8002354:	d0f6      	beq.n	8002344 <gd32_i2c_write+0x5c>
 8002356:	f240 5101 	movw	r1, #1281	; 0x501
 800235a:	4814      	ldr	r0, [pc, #80]	; (80023ac <gd32_i2c_write+0xc4>)
 800235c:	f000 fb8f 	bl	8002a7e <i2c_flag_clear>
 8002360:	f640 75ff 	movw	r5, #4095	; 0xfff
 8002364:	4e11      	ldr	r6, [pc, #68]	; (80023ac <gd32_i2c_write+0xc4>)
 8002366:	f240 5107 	movw	r1, #1287	; 0x507
 800236a:	4630      	mov	r0, r6
 800236c:	f000 fb7c 	bl	8002a68 <i2c_flag_get>
 8002370:	2801      	cmp	r0, #1
 8002372:	d107      	bne.n	8002384 <gd32_i2c_write+0x9c>
 8002374:	4e0d      	ldr	r6, [pc, #52]	; (80023ac <gd32_i2c_write+0xc4>)
 8002376:	4427      	add	r7, r4
 8002378:	42a7      	cmp	r7, r4
 800237a:	d106      	bne.n	800238a <gd32_i2c_write+0xa2>
 800237c:	f7ff ff60 	bl	8002240 <_stop() [clone .isra.0]>
 8002380:	2000      	movs	r0, #0
 8002382:	e7da      	b.n	800233a <gd32_i2c_write+0x52>
 8002384:	3d01      	subs	r5, #1
 8002386:	d1ee      	bne.n	8002366 <gd32_i2c_write+0x7e>
 8002388:	e7d3      	b.n	8002332 <gd32_i2c_write+0x4a>
 800238a:	4630      	mov	r0, r6
 800238c:	f814 1b01 	ldrb.w	r1, [r4], #1
 8002390:	f000 fb65 	bl	8002a5e <i2c_data_transmit>
 8002394:	f640 75ff 	movw	r5, #4095	; 0xfff
 8002398:	f240 5102 	movw	r1, #1282	; 0x502
 800239c:	4630      	mov	r0, r6
 800239e:	f000 fb63 	bl	8002a68 <i2c_flag_get>
 80023a2:	2800      	cmp	r0, #0
 80023a4:	d1e8      	bne.n	8002378 <gd32_i2c_write+0x90>
 80023a6:	3d01      	subs	r5, #1
 80023a8:	d1f6      	bne.n	8002398 <gd32_i2c_write+0xb0>
 80023aa:	e7c2      	b.n	8002332 <gd32_i2c_write+0x4a>
 80023ac:	40005400 	andmi	r5, r0, r0, lsl #8
 80023b0:	20000118 	andcs	r0, r0, r8, lsl r1

080023b4 <gd32_i2c_read>:
 80023b4:	e92d 43f8 	stmdb	sp!, {r3, r4, r5, r6, r7, r8, r9, lr}
 80023b8:	4680      	mov	r8, r0
 80023ba:	460c      	mov	r4, r1
 80023bc:	f640 76ff 	movw	r6, #4095	; 0xfff
 80023c0:	4f4b      	ldr	r7, [pc, #300]	; (80024f0 <gd32_i2c_read+0x13c>)
 80023c2:	f240 6101 	movw	r1, #1537	; 0x601
 80023c6:	4638      	mov	r0, r7
 80023c8:	f000 fb4e 	bl	8002a68 <i2c_flag_get>
 80023cc:	4605      	mov	r5, r0
 80023ce:	bb08      	cbnz	r0, 8002414 <gd32_i2c_read+0x60>
 80023d0:	2c02      	cmp	r4, #2
 80023d2:	d103      	bne.n	80023dc <gd32_i2c_read+0x28>
 80023d4:	4601      	mov	r1, r0
 80023d6:	4846      	ldr	r0, [pc, #280]	; (80024f0 <gd32_i2c_read+0x13c>)
 80023d8:	f000 fb21 	bl	8002a1e <i2c_ackpos_config>
 80023dc:	4844      	ldr	r0, [pc, #272]	; (80024f0 <gd32_i2c_read+0x13c>)
 80023de:	f000 fb34 	bl	8002a4a <i2c_start_on_bus>
 80023e2:	f640 76ff 	movw	r6, #4095	; 0xfff
 80023e6:	4f42      	ldr	r7, [pc, #264]	; (80024f0 <gd32_i2c_read+0x13c>)
 80023e8:	f44f 61a0 	mov.w	r1, #1280	; 0x500
 80023ec:	4638      	mov	r0, r7
 80023ee:	f000 fb3b 	bl	8002a68 <i2c_flag_get>
 80023f2:	b1a8      	cbz	r0, 8002420 <gd32_i2c_read+0x6c>
 80023f4:	4b3f      	ldr	r3, [pc, #252]	; (80024f4 <gd32_i2c_read+0x140>)
 80023f6:	2201      	movs	r2, #1
 80023f8:	7819      	ldrb	r1, [r3, #0]
 80023fa:	483d      	ldr	r0, [pc, #244]	; (80024f0 <gd32_i2c_read+0x13c>)
 80023fc:	f000 fb18 	bl	8002a30 <i2c_master_addressing>
 8002400:	2c02      	cmp	r4, #2
 8002402:	d803      	bhi.n	800240c <gd32_i2c_read+0x58>
 8002404:	2100      	movs	r1, #0
 8002406:	483a      	ldr	r0, [pc, #232]	; (80024f0 <gd32_i2c_read+0x13c>)
 8002408:	f000 fb00 	bl	8002a0c <i2c_ack_config>
 800240c:	f640 76ff 	movw	r6, #4095	; 0xfff
 8002410:	4f37      	ldr	r7, [pc, #220]	; (80024f0 <gd32_i2c_read+0x13c>)
 8002412:	e00a      	b.n	800242a <gd32_i2c_read+0x76>
 8002414:	3e01      	subs	r6, #1
 8002416:	d1d4      	bne.n	80023c2 <gd32_i2c_read+0xe>
 8002418:	f7ff ff12 	bl	8002240 <_stop() [clone .isra.0]>
 800241c:	2504      	movs	r5, #4
 800241e:	e04d      	b.n	80024bc <gd32_i2c_read+0x108>
 8002420:	3e01      	subs	r6, #1
 8002422:	d1e1      	bne.n	80023e8 <gd32_i2c_read+0x34>
 8002424:	e7f8      	b.n	8002418 <gd32_i2c_read+0x64>
 8002426:	3e01      	subs	r6, #1
 8002428:	d0f6      	beq.n	8002418 <gd32_i2c_read+0x64>
 800242a:	f240 5101 	movw	r1, #1281	; 0x501
 800242e:	4638      	mov	r0, r7
 8002430:	f000 fb1a 	bl	8002a68 <i2c_flag_get>
 8002434:	2800      	cmp	r0, #0
 8002436:	d0f6      	beq.n	8002426 <gd32_i2c_read+0x72>
 8002438:	f240 5101 	movw	r1, #1281	; 0x501
 800243c:	482c      	ldr	r0, [pc, #176]	; (80024f0 <gd32_i2c_read+0x13c>)
 800243e:	f000 fb1e 	bl	8002a7e <i2c_flag_clear>
 8002442:	2c01      	cmp	r4, #1
 8002444:	d102      	bne.n	800244c <gd32_i2c_read+0x98>
 8002446:	482a      	ldr	r0, [pc, #168]	; (80024f0 <gd32_i2c_read+0x13c>)
 8002448:	f000 fb04 	bl	8002a54 <i2c_stop_on_bus>
 800244c:	f640 77ff 	movw	r7, #4095	; 0xfff
 8002450:	4e27      	ldr	r6, [pc, #156]	; (80024f0 <gd32_i2c_read+0x13c>)
 8002452:	e022      	b.n	800249a <gd32_i2c_read+0xe6>
 8002454:	2c03      	cmp	r4, #3
 8002456:	d134      	bne.n	80024c2 <gd32_i2c_read+0x10e>
 8002458:	f640 79ff 	movw	r9, #4095	; 0xfff
 800245c:	e002      	b.n	8002464 <gd32_i2c_read+0xb0>
 800245e:	f1b9 0901 	subs.w	r9, r9, #1
 8002462:	d0d9      	beq.n	8002418 <gd32_i2c_read+0x64>
 8002464:	f240 5102 	movw	r1, #1282	; 0x502
 8002468:	4630      	mov	r0, r6
 800246a:	f000 fafd 	bl	8002a68 <i2c_flag_get>
 800246e:	2800      	cmp	r0, #0
 8002470:	d0f5      	beq.n	800245e <gd32_i2c_read+0xaa>
 8002472:	2100      	movs	r1, #0
 8002474:	4630      	mov	r0, r6
 8002476:	f000 fac9 	bl	8002a0c <i2c_ack_config>
 800247a:	f240 5106 	movw	r1, #1286	; 0x506
 800247e:	4630      	mov	r0, r6
 8002480:	f000 faf2 	bl	8002a68 <i2c_flag_get>
 8002484:	b138      	cbz	r0, 8002496 <gd32_i2c_read+0xe2>
 8002486:	4630      	mov	r0, r6
 8002488:	f000 faeb 	bl	8002a62 <i2c_data_receive>
 800248c:	f640 77ff 	movw	r7, #4095	; 0xfff
 8002490:	f808 0b01 	strb.w	r0, [r8], #1
 8002494:	3c01      	subs	r4, #1
 8002496:	3f01      	subs	r7, #1
 8002498:	d0be      	beq.n	8002418 <gd32_i2c_read+0x64>
 800249a:	2c00      	cmp	r4, #0
 800249c:	d1da      	bne.n	8002454 <gd32_i2c_read+0xa0>
 800249e:	f640 73ff 	movw	r3, #4095	; 0xfff
 80024a2:	4915      	ldr	r1, [pc, #84]	; (80024f8 <gd32_i2c_read+0x144>)
 80024a4:	f8d1 2400 	ldr.w	r2, [r1, #1024]	; 0x400
 80024a8:	0592      	lsls	r2, r2, #22
 80024aa:	d41d      	bmi.n	80024e8 <gd32_i2c_read+0x134>
 80024ac:	2101      	movs	r1, #1
 80024ae:	4810      	ldr	r0, [pc, #64]	; (80024f0 <gd32_i2c_read+0x13c>)
 80024b0:	f000 faac 	bl	8002a0c <i2c_ack_config>
 80024b4:	2101      	movs	r1, #1
 80024b6:	480e      	ldr	r0, [pc, #56]	; (80024f0 <gd32_i2c_read+0x13c>)
 80024b8:	f000 fab1 	bl	8002a1e <i2c_ackpos_config>
 80024bc:	4628      	mov	r0, r5
 80024be:	e8bd 83f8 	ldmia.w	sp!, {r3, r4, r5, r6, r7, r8, r9, pc}
 80024c2:	2c02      	cmp	r4, #2
 80024c4:	d1d9      	bne.n	800247a <gd32_i2c_read+0xc6>
 80024c6:	f640 79ff 	movw	r9, #4095	; 0xfff
 80024ca:	e002      	b.n	80024d2 <gd32_i2c_read+0x11e>
 80024cc:	f1b9 0901 	subs.w	r9, r9, #1
 80024d0:	d0a2      	beq.n	8002418 <gd32_i2c_read+0x64>
 80024d2:	f240 5102 	movw	r1, #1282	; 0x502
 80024d6:	4630      	mov	r0, r6
 80024d8:	f000 fac6 	bl	8002a68 <i2c_flag_get>
 80024dc:	2800      	cmp	r0, #0
 80024de:	d0f5      	beq.n	80024cc <gd32_i2c_read+0x118>
 80024e0:	4630      	mov	r0, r6
 80024e2:	f000 fab7 	bl	8002a54 <i2c_stop_on_bus>
 80024e6:	e7c8      	b.n	800247a <gd32_i2c_read+0xc6>
 80024e8:	3b01      	subs	r3, #1
 80024ea:	d1db      	bne.n	80024a4 <gd32_i2c_read+0xf0>
 80024ec:	e796      	b.n	800241c <gd32_i2c_read+0x68>
 80024ee:	bf00      	nop
 80024f0:	40005400 	andmi	r5, r0, r0, lsl #8
 80024f4:	20000118 	andcs	r0, r0, r8, lsl r1
 80024f8:	40005000 	andmi	r5, r0, r0

080024fc <gd32_uart_begin>:
 80024fc:	b5f8      	push	{r3, r4, r5, r6, r7, lr}
 80024fe:	461e      	mov	r6, r3
 8002500:	4b70      	ldr	r3, [pc, #448]	; (80026c4 <gd32_uart_begin+0x1c8>)
 8002502:	4604      	mov	r4, r0
 8002504:	4298      	cmp	r0, r3
 8002506:	460f      	mov	r7, r1
 8002508:	4615      	mov	r5, r2
 800250a:	d040      	beq.n	800258e <gd32_uart_begin+0x92>
 800250c:	d80d      	bhi.n	800252a <gd32_uart_begin+0x2e>
 800250e:	f5a3 6300 	sub.w	r3, r3, #2048	; 0x800
 8002512:	4298      	cmp	r0, r3
 8002514:	d02d      	beq.n	8002572 <gd32_uart_begin+0x76>
 8002516:	f503 6380 	add.w	r3, r3, #1024	; 0x400
 800251a:	4298      	cmp	r0, r3
 800251c:	d030      	beq.n	8002580 <gd32_uart_begin+0x84>
 800251e:	2165      	movs	r1, #101	; 0x65
 8002520:	4b69      	ldr	r3, [pc, #420]	; (80026c8 <gd32_uart_begin+0x1cc>)
 8002522:	4a6a      	ldr	r2, [pc, #424]	; (80026cc <gd32_uart_begin+0x1d0>)
 8002524:	486a      	ldr	r0, [pc, #424]	; (80026d0 <gd32_uart_begin+0x1d4>)
 8002526:	f7fe fa31 	bl	800098c <__assert_func>
 800252a:	4b6a      	ldr	r3, [pc, #424]	; (80026d4 <gd32_uart_begin+0x1d8>)
 800252c:	4298      	cmp	r0, r3
 800252e:	d031      	beq.n	8002594 <gd32_uart_begin+0x98>
 8002530:	f503 4368 	add.w	r3, r3, #59392	; 0xe800
 8002534:	4298      	cmp	r0, r3
 8002536:	d1f2      	bne.n	800251e <gd32_uart_begin+0x22>
 8002538:	f240 600e 	movw	r0, #1550	; 0x60e
 800253c:	f7ff fc2e 	bl	8001d9c <rcu_periph_clock_enable>
 8002540:	f240 6003 	movw	r0, #1539	; 0x603
 8002544:	f7ff fc2a 	bl	8001d9c <rcu_periph_clock_enable>
 8002548:	f44f 60c0 	mov.w	r0, #1536	; 0x600
 800254c:	f7ff fc26 	bl	8001d9c <rcu_periph_clock_enable>
 8002550:	4b5c      	ldr	r3, [pc, #368]	; (80026c4 <gd32_uart_begin+0x1c8>)
 8002552:	429c      	cmp	r4, r3
 8002554:	f000 8097 	beq.w	8002686 <gd32_uart_begin+0x18a>
 8002558:	d827      	bhi.n	80025aa <gd32_uart_begin+0xae>
 800255a:	f5a3 6300 	sub.w	r3, r3, #2048	; 0x800
 800255e:	429c      	cmp	r4, r3
 8002560:	d073      	beq.n	800264a <gd32_uart_begin+0x14e>
 8002562:	f503 6380 	add.w	r3, r3, #1024	; 0x400
 8002566:	429c      	cmp	r4, r3
 8002568:	d07c      	beq.n	8002664 <gd32_uart_begin+0x168>
 800256a:	21ae      	movs	r1, #174	; 0xae
 800256c:	4b56      	ldr	r3, [pc, #344]	; (80026c8 <gd32_uart_begin+0x1cc>)
 800256e:	4a5a      	ldr	r2, [pc, #360]	; (80026d8 <gd32_uart_begin+0x1dc>)
 8002570:	e7d8      	b.n	8002524 <gd32_uart_begin+0x28>
 8002572:	f240 7011 	movw	r0, #1809	; 0x711
 8002576:	f7ff fc11 	bl	8001d9c <rcu_periph_clock_enable>
 800257a:	f240 6002 	movw	r0, #1538	; 0x602
 800257e:	e7e1      	b.n	8002544 <gd32_uart_begin+0x48>
 8002580:	f240 7012 	movw	r0, #1810	; 0x712
 8002584:	f7ff fc0a 	bl	8001d9c <rcu_periph_clock_enable>
 8002588:	f240 6004 	movw	r0, #1540	; 0x604
 800258c:	e7da      	b.n	8002544 <gd32_uart_begin+0x48>
 800258e:	f240 7013 	movw	r0, #1811	; 0x713
 8002592:	e7f7      	b.n	8002584 <gd32_uart_begin+0x88>
 8002594:	f240 7014 	movw	r0, #1812	; 0x714
 8002598:	f7ff fc00 	bl	8001d9c <rcu_periph_clock_enable>
 800259c:	f240 6004 	movw	r0, #1540	; 0x604
 80025a0:	f7ff fbfc 	bl	8001d9c <rcu_periph_clock_enable>
 80025a4:	f240 6005 	movw	r0, #1541	; 0x605
 80025a8:	e7cc      	b.n	8002544 <gd32_uart_begin+0x48>
 80025aa:	4b4a      	ldr	r3, [pc, #296]	; (80026d4 <gd32_uart_begin+0x1d8>)
 80025ac:	429c      	cmp	r4, r3
 80025ae:	d077      	beq.n	80026a0 <gd32_uart_begin+0x1a4>
 80025b0:	f503 4368 	add.w	r3, r3, #59392	; 0xe800
 80025b4:	429c      	cmp	r4, r3
 80025b6:	d1d8      	bne.n	800256a <gd32_uart_begin+0x6e>
 80025b8:	2340      	movs	r3, #64	; 0x40
 80025ba:	2203      	movs	r2, #3
 80025bc:	2118      	movs	r1, #24
 80025be:	4847      	ldr	r0, [pc, #284]	; (80026dc <gd32_uart_begin+0x1e0>)
 80025c0:	f7ff fb60 	bl	8001c84 <gpio_init>
 80025c4:	2104      	movs	r1, #4
 80025c6:	4845      	ldr	r0, [pc, #276]	; (80026dc <gd32_uart_begin+0x1e0>)
 80025c8:	2380      	movs	r3, #128	; 0x80
 80025ca:	2203      	movs	r2, #3
 80025cc:	f7ff fb5a 	bl	8001c84 <gpio_init>
 80025d0:	2101      	movs	r1, #1
 80025d2:	2004      	movs	r0, #4
 80025d4:	f7ff fbaa 	bl	8001d2c <gpio_pin_remap_config>
 80025d8:	4620      	mov	r0, r4
 80025da:	f7ff fd45 	bl	8002068 <usart_deinit>
 80025de:	68e3      	ldr	r3, [r4, #12]
 80025e0:	4639      	mov	r1, r7
 80025e2:	f423 5300 	bic.w	r3, r3, #8192	; 0x2000
 80025e6:	4620      	mov	r0, r4
 80025e8:	60e3      	str	r3, [r4, #12]
 80025ea:	f7ff fd7d 	bl	80020e8 <usart_baudrate_set>
 80025ee:	f1a5 0309 	sub.w	r3, r5, #9
 80025f2:	4259      	negs	r1, r3
 80025f4:	4159      	adcs	r1, r3
 80025f6:	4620      	mov	r0, r4
 80025f8:	0309      	lsls	r1, r1, #12
 80025fa:	f7ff fda5 	bl	8002148 <usart_word_length_set>
 80025fe:	9906      	ldr	r1, [sp, #24]
 8002600:	4620      	mov	r0, r4
 8002602:	1e8a      	subs	r2, r1, #2
 8002604:	4251      	negs	r1, r2
 8002606:	4151      	adcs	r1, r2
 8002608:	0349      	lsls	r1, r1, #13
 800260a:	f7ff fda5 	bl	8002158 <usart_stop_bit_set>
 800260e:	2e01      	cmp	r6, #1
 8002610:	d052      	beq.n	80026b8 <gd32_uart_begin+0x1bc>
 8002612:	2e02      	cmp	r6, #2
 8002614:	d153      	bne.n	80026be <gd32_uart_begin+0x1c2>
 8002616:	f44f 6180 	mov.w	r1, #1024	; 0x400
 800261a:	4620      	mov	r0, r4
 800261c:	f7ff fd8c 	bl	8002138 <usart_parity_config>
 8002620:	2100      	movs	r1, #0
 8002622:	4620      	mov	r0, r4
 8002624:	f7ff fdac 	bl	8002180 <usart_hardware_flow_rts_config>
 8002628:	2100      	movs	r1, #0
 800262a:	4620      	mov	r0, r4
 800262c:	f7ff fdae 	bl	800218c <usart_hardware_flow_cts_config>
 8002630:	2104      	movs	r1, #4
 8002632:	4620      	mov	r0, r4
 8002634:	f7ff fd9e 	bl	8002174 <usart_receive_config>
 8002638:	2108      	movs	r1, #8
 800263a:	4620      	mov	r0, r4
 800263c:	f7ff fd94 	bl	8002168 <usart_transmit_config>
 8002640:	68e3      	ldr	r3, [r4, #12]
 8002642:	f443 5300 	orr.w	r3, r3, #8192	; 0x2000
 8002646:	60e3      	str	r3, [r4, #12]
 8002648:	bdf8      	pop	{r3, r4, r5, r6, r7, pc}
 800264a:	2304      	movs	r3, #4
 800264c:	2203      	movs	r2, #3
 800264e:	2118      	movs	r1, #24
 8002650:	4823      	ldr	r0, [pc, #140]	; (80026e0 <gd32_uart_begin+0x1e4>)
 8002652:	f7ff fb17 	bl	8001c84 <gpio_init>
 8002656:	2308      	movs	r3, #8
 8002658:	2203      	movs	r2, #3
 800265a:	2104      	movs	r1, #4
 800265c:	4820      	ldr	r0, [pc, #128]	; (80026e0 <gd32_uart_begin+0x1e4>)
 800265e:	f7ff fb11 	bl	8001c84 <gpio_init>
 8002662:	e7b9      	b.n	80025d8 <gd32_uart_begin+0xdc>
 8002664:	f44f 6380 	mov.w	r3, #1024	; 0x400
 8002668:	2203      	movs	r2, #3
 800266a:	2118      	movs	r1, #24
 800266c:	481d      	ldr	r0, [pc, #116]	; (80026e4 <gd32_uart_begin+0x1e8>)
 800266e:	f7ff fb09 	bl	8001c84 <gpio_init>
 8002672:	2104      	movs	r1, #4
 8002674:	481b      	ldr	r0, [pc, #108]	; (80026e4 <gd32_uart_begin+0x1e8>)
 8002676:	f44f 6300 	mov.w	r3, #2048	; 0x800
 800267a:	2203      	movs	r2, #3
 800267c:	f7ff fb02 	bl	8001c84 <gpio_init>
 8002680:	2101      	movs	r1, #1
 8002682:	4819      	ldr	r0, [pc, #100]	; (80026e8 <gd32_uart_begin+0x1ec>)
 8002684:	e7a6      	b.n	80025d4 <gd32_uart_begin+0xd8>
 8002686:	f44f 6380 	mov.w	r3, #1024	; 0x400
 800268a:	2203      	movs	r2, #3
 800268c:	2118      	movs	r1, #24
 800268e:	4815      	ldr	r0, [pc, #84]	; (80026e4 <gd32_uart_begin+0x1e8>)
 8002690:	f7ff faf8 	bl	8001c84 <gpio_init>
 8002694:	f44f 6300 	mov.w	r3, #2048	; 0x800
 8002698:	2203      	movs	r2, #3
 800269a:	2104      	movs	r1, #4
 800269c:	4811      	ldr	r0, [pc, #68]	; (80026e4 <gd32_uart_begin+0x1e8>)
 800269e:	e7de      	b.n	800265e <gd32_uart_begin+0x162>
 80026a0:	f44f 5380 	mov.w	r3, #4096	; 0x1000
 80026a4:	2203      	movs	r2, #3
 80026a6:	2118      	movs	r1, #24
 80026a8:	480e      	ldr	r0, [pc, #56]	; (80026e4 <gd32_uart_begin+0x1e8>)
 80026aa:	f7ff faeb 	bl	8001c84 <gpio_init>
 80026ae:	2304      	movs	r3, #4
 80026b0:	2203      	movs	r2, #3
 80026b2:	4619      	mov	r1, r3
 80026b4:	480d      	ldr	r0, [pc, #52]	; (80026ec <gd32_uart_begin+0x1f0>)
 80026b6:	e7d2      	b.n	800265e <gd32_uart_begin+0x162>
 80026b8:	f44f 61c0 	mov.w	r1, #1536	; 0x600
 80026bc:	e7ad      	b.n	800261a <gd32_uart_begin+0x11e>
 80026be:	2100      	movs	r1, #0
 80026c0:	e7ab      	b.n	800261a <gd32_uart_begin+0x11e>
 80026c2:	bf00      	nop
 80026c4:	40004c00 	andmi	r4, r0, r0, lsl #24
 80026c8:	08002b54 	stmdaeq	r0, {r2, r4, r6, r8, r9, fp, sp}
 80026cc:	0800300c 	stmdaeq	r0, {r2, r3, ip, sp}
 80026d0:	08003025 	stmdaeq	r0, {r0, r2, r5, ip, sp}
 80026d4:	40005000 	andmi	r5, r0, r0
 80026d8:	08003037 	stmdaeq	r0, {r0, r1, r2, r4, r5, ip, sp}
 80026dc:	40010c00 	andmi	r0, r1, r0, lsl #24
 80026e0:	40010800 	andmi	r0, r1, r0, lsl #16
 80026e4:	40011000 	andmi	r1, r1, r0
 80026e8:	00140010 	andseq	r0, r4, r0, lsl r0
 80026ec:	40011400 	andmi	r1, r1, r0, lsl #8

080026f0 <micros_init()>:
 80026f0:	4770      	bx	lr
	...

080026f4 <udelay_init()>:
 80026f4:	b508      	push	{r3, lr}
 80026f6:	4b0d      	ldr	r3, [pc, #52]	; (800272c <udelay_init()+0x38>)
 80026f8:	681a      	ldr	r2, [r3, #0]
 80026fa:	4b0d      	ldr	r3, [pc, #52]	; (8002730 <udelay_init()+0x3c>)
 80026fc:	429a      	cmp	r2, r3
 80026fe:	d005      	beq.n	800270c <udelay_init()+0x18>
 8002700:	2122      	movs	r1, #34	; 0x22
 8002702:	4b0c      	ldr	r3, [pc, #48]	; (8002734 <udelay_init()+0x40>)
 8002704:	4a0c      	ldr	r2, [pc, #48]	; (8002738 <udelay_init()+0x44>)
 8002706:	480d      	ldr	r0, [pc, #52]	; (800273c <udelay_init()+0x48>)
 8002708:	f7fe f940 	bl	800098c <__assert_func>
 800270c:	4a0c      	ldr	r2, [pc, #48]	; (8002740 <udelay_init()+0x4c>)
 800270e:	f8d2 30fc 	ldr.w	r3, [r2, #252]	; 0xfc
 8002712:	f043 7380 	orr.w	r3, r3, #16777216	; 0x1000000
 8002716:	f8c2 30fc 	str.w	r3, [r2, #252]	; 0xfc
 800271a:	2200      	movs	r2, #0
 800271c:	4b09      	ldr	r3, [pc, #36]	; (8002744 <udelay_init()+0x50>)
 800271e:	605a      	str	r2, [r3, #4]
 8002720:	681a      	ldr	r2, [r3, #0]
 8002722:	f042 0201 	orr.w	r2, r2, #1
 8002726:	601a      	str	r2, [r3, #0]
 8002728:	bd08      	pop	{r3, pc}
 800272a:	bf00      	nop
 800272c:	2000006c 	andcs	r0, r0, ip, rrx
 8002730:	066ff300 	strbteq	pc, [pc], -r0, lsl #6	; <UNPREDICTABLE>
 8002734:	08003042 	stmdaeq	r0, {r1, r6, ip, sp}
 8002738:	08003064 	stmdaeq	r0, {r2, r5, r6, ip, sp}
 800273c:	08003070 	stmdaeq	r0, {r4, r5, r6, ip, sp}
 8002740:	e000ed00 	and	lr, r0, r0, lsl #26
 8002744:	e0001000 	and	r1, r0, r0

08002748 <udelay(unsigned int, unsigned int)>:
 8002748:	236c      	movs	r3, #108	; 0x6c
 800274a:	b530      	push	{r4, r5, lr}
 800274c:	4358      	muls	r0, r3
 800274e:	b909      	cbnz	r1, 8002754 <udelay(unsigned int, unsigned int)+0xc>
 8002750:	4b08      	ldr	r3, [pc, #32]	; (8002774 <udelay(unsigned int, unsigned int)+0x2c>)
 8002752:	6859      	ldr	r1, [r3, #4]
 8002754:	2300      	movs	r3, #0
 8002756:	4c07      	ldr	r4, [pc, #28]	; (8002774 <udelay(unsigned int, unsigned int)+0x2c>)
 8002758:	6862      	ldr	r2, [r4, #4]
 800275a:	4291      	cmp	r1, r2
 800275c:	d0fc      	beq.n	8002758 <udelay(unsigned int, unsigned int)+0x10>
 800275e:	bf2a      	itet	cs
 8002760:	f102 35ff 	addcs.w	r5, r2, #4294967295	; 0xffffffff
 8002764:	189b      	addcc	r3, r3, r2
 8002766:	195b      	addcs	r3, r3, r5
 8002768:	1a5b      	subs	r3, r3, r1
 800276a:	4283      	cmp	r3, r0
 800276c:	d300      	bcc.n	8002770 <udelay(unsigned int, unsigned int)+0x28>
 800276e:	bd30      	pop	{r4, r5, pc}
 8002770:	4611      	mov	r1, r2
 8002772:	e7f1      	b.n	8002758 <udelay(unsigned int, unsigned int)+0x10>
 8002774:	e0001000 	and	r1, r0, r0

08002778 <adc_mode_config>:
 8002778:	4b06      	ldr	r3, [pc, #24]	; (8002794 <adc_mode_config+0x1c>)
 800277a:	f8d3 2404 	ldr.w	r2, [r3, #1028]	; 0x404
 800277e:	f422 2270 	bic.w	r2, r2, #983040	; 0xf0000
 8002782:	f8c3 2404 	str.w	r2, [r3, #1028]	; 0x404
 8002786:	f8d3 2404 	ldr.w	r2, [r3, #1028]	; 0x404
 800278a:	4302      	orrs	r2, r0
 800278c:	f8c3 2404 	str.w	r2, [r3, #1028]	; 0x404
 8002790:	4770      	bx	lr
 8002792:	bf00      	nop
 8002794:	40012000 	andmi	r2, r1, r0

08002798 <adc_special_function_config>:
 8002798:	b510      	push	{r4, lr}
 800279a:	f401 7380 	and.w	r3, r1, #256	; 0x100
 800279e:	f401 6480 	and.w	r4, r1, #1024	; 0x400
 80027a2:	f001 0102 	and.w	r1, r1, #2
 80027a6:	b17a      	cbz	r2, 80027c8 <adc_special_function_config+0x30>
 80027a8:	b11b      	cbz	r3, 80027b2 <adc_special_function_config+0x1a>
 80027aa:	6843      	ldr	r3, [r0, #4]
 80027ac:	f443 7380 	orr.w	r3, r3, #256	; 0x100
 80027b0:	6043      	str	r3, [r0, #4]
 80027b2:	b11c      	cbz	r4, 80027bc <adc_special_function_config+0x24>
 80027b4:	6843      	ldr	r3, [r0, #4]
 80027b6:	f443 6380 	orr.w	r3, r3, #1024	; 0x400
 80027ba:	6043      	str	r3, [r0, #4]
 80027bc:	b119      	cbz	r1, 80027c6 <adc_special_function_config+0x2e>
 80027be:	6883      	ldr	r3, [r0, #8]
 80027c0:	f043 0302 	orr.w	r3, r3, #2
 80027c4:	6083      	str	r3, [r0, #8]
 80027c6:	bd10      	pop	{r4, pc}
 80027c8:	b11b      	cbz	r3, 80027d2 <adc_special_function_config+0x3a>
 80027ca:	6843      	ldr	r3, [r0, #4]
 80027cc:	f423 7380 	bic.w	r3, r3, #256	; 0x100
 80027d0:	6043      	str	r3, [r0, #4]
 80027d2:	b11c      	cbz	r4, 80027dc <adc_special_function_config+0x44>
 80027d4:	6843      	ldr	r3, [r0, #4]
 80027d6:	f423 6380 	bic.w	r3, r3, #1024	; 0x400
 80027da:	6043      	str	r3, [r0, #4]
 80027dc:	2900      	cmp	r1, #0
 80027de:	d0f2      	beq.n	80027c6 <adc_special_function_config+0x2e>
 80027e0:	6883      	ldr	r3, [r0, #8]
 80027e2:	f023 0302 	bic.w	r3, r3, #2
 80027e6:	e7ed      	b.n	80027c4 <adc_special_function_config+0x2c>

080027e8 <adc_data_alignment_config>:
 80027e8:	6883      	ldr	r3, [r0, #8]
 80027ea:	b119      	cbz	r1, 80027f4 <adc_data_alignment_config+0xc>
 80027ec:	f443 6300 	orr.w	r3, r3, #2048	; 0x800
 80027f0:	6083      	str	r3, [r0, #8]
 80027f2:	4770      	bx	lr
 80027f4:	f423 6300 	bic.w	r3, r3, #2048	; 0x800
 80027f8:	e7fa      	b.n	80027f0 <adc_data_alignment_config+0x8>

080027fa <adc_enable>:
 80027fa:	6883      	ldr	r3, [r0, #8]
 80027fc:	07db      	lsls	r3, r3, #31
 80027fe:	bf5e      	ittt	pl
 8002800:	6883      	ldrpl	r3, [r0, #8]
 8002802:	f043 0301 	orrpl.w	r3, r3, #1
 8002806:	6083      	strpl	r3, [r0, #8]
 8002808:	4770      	bx	lr

0800280a <adc_calibration_enable>:
 800280a:	6883      	ldr	r3, [r0, #8]
 800280c:	f100 0208 	add.w	r2, r0, #8
 8002810:	f043 0308 	orr.w	r3, r3, #8
 8002814:	6083      	str	r3, [r0, #8]
 8002816:	6813      	ldr	r3, [r2, #0]
 8002818:	0719      	lsls	r1, r3, #28
 800281a:	d4fc      	bmi.n	8002816 <adc_calibration_enable+0xc>
 800281c:	6883      	ldr	r3, [r0, #8]
 800281e:	f043 0304 	orr.w	r3, r3, #4
 8002822:	6083      	str	r3, [r0, #8]
 8002824:	6813      	ldr	r3, [r2, #0]
 8002826:	075b      	lsls	r3, r3, #29
 8002828:	d4fc      	bmi.n	8002824 <adc_calibration_enable+0x1a>
 800282a:	4770      	bx	lr

0800282c <adc_tempsensor_vrefint_enable>:
 800282c:	4a03      	ldr	r2, [pc, #12]	; (800283c <adc_tempsensor_vrefint_enable+0x10>)
 800282e:	f8d2 3408 	ldr.w	r3, [r2, #1032]	; 0x408
 8002832:	f443 0300 	orr.w	r3, r3, #8388608	; 0x800000
 8002836:	f8c2 3408 	str.w	r3, [r2, #1032]	; 0x408
 800283a:	4770      	bx	lr
 800283c:	40012000 	andmi	r2, r1, r0

08002840 <adc_channel_length_config>:
 8002840:	2901      	cmp	r1, #1
 8002842:	d002      	beq.n	800284a <adc_channel_length_config+0xa>
 8002844:	2902      	cmp	r1, #2
 8002846:	d00c      	beq.n	8002862 <adc_channel_length_config+0x22>
 8002848:	4770      	bx	lr
 800284a:	6ac3      	ldr	r3, [r0, #44]	; 0x2c
 800284c:	3a01      	subs	r2, #1
 800284e:	f423 0370 	bic.w	r3, r3, #15728640	; 0xf00000
 8002852:	62c3      	str	r3, [r0, #44]	; 0x2c
 8002854:	6ac3      	ldr	r3, [r0, #44]	; 0x2c
 8002856:	0512      	lsls	r2, r2, #20
 8002858:	f402 0270 	and.w	r2, r2, #15728640	; 0xf00000
 800285c:	431a      	orrs	r2, r3
 800285e:	62c2      	str	r2, [r0, #44]	; 0x2c
 8002860:	4770      	bx	lr
 8002862:	6b83      	ldr	r3, [r0, #56]	; 0x38
 8002864:	3a01      	subs	r2, #1
 8002866:	f423 1340 	bic.w	r3, r3, #3145728	; 0x300000
 800286a:	6383      	str	r3, [r0, #56]	; 0x38
 800286c:	6b83      	ldr	r3, [r0, #56]	; 0x38
 800286e:	0512      	lsls	r2, r2, #20
 8002870:	f402 1240 	and.w	r2, r2, #3145728	; 0x300000
 8002874:	431a      	orrs	r2, r3
 8002876:	6382      	str	r2, [r0, #56]	; 0x38
 8002878:	4770      	bx	lr

0800287a <adc_inserted_channel_config>:
 800287a:	b530      	push	{r4, r5, lr}
 800287c:	6b84      	ldr	r4, [r0, #56]	; 0x38
 800287e:	6b85      	ldr	r5, [r0, #56]	; 0x38
 8002880:	f3c4 5401 	ubfx	r4, r4, #20, #2
 8002884:	1a61      	subs	r1, r4, r1
 8002886:	f06f 0404 	mvn.w	r4, #4
 800288a:	4361      	muls	r1, r4
 800288c:	241f      	movs	r4, #31
 800288e:	310f      	adds	r1, #15
 8002890:	408c      	lsls	r4, r1
 8002892:	ea25 0504 	bic.w	r5, r5, r4
 8002896:	fa02 f101 	lsl.w	r1, r2, r1
 800289a:	4329      	orrs	r1, r5
 800289c:	2a09      	cmp	r2, #9
 800289e:	6381      	str	r1, [r0, #56]	; 0x38
 80028a0:	d80b      	bhi.n	80028ba <adc_inserted_channel_config+0x40>
 80028a2:	2407      	movs	r4, #7
 80028a4:	6901      	ldr	r1, [r0, #16]
 80028a6:	eb02 0242 	add.w	r2, r2, r2, lsl #1
 80028aa:	4094      	lsls	r4, r2
 80028ac:	ea21 0104 	bic.w	r1, r1, r4
 80028b0:	fa03 f202 	lsl.w	r2, r3, r2
 80028b4:	430a      	orrs	r2, r1
 80028b6:	6102      	str	r2, [r0, #16]
 80028b8:	bd30      	pop	{r4, r5, pc}
 80028ba:	2a11      	cmp	r2, #17
 80028bc:	d8fc      	bhi.n	80028b8 <adc_inserted_channel_config+0x3e>
 80028be:	2407      	movs	r4, #7
 80028c0:	3a0a      	subs	r2, #10
 80028c2:	68c1      	ldr	r1, [r0, #12]
 80028c4:	eb02 0242 	add.w	r2, r2, r2, lsl #1
 80028c8:	4094      	lsls	r4, r2
 80028ca:	ea21 0104 	bic.w	r1, r1, r4
 80028ce:	4093      	lsls	r3, r2
 80028d0:	430b      	orrs	r3, r1
 80028d2:	60c3      	str	r3, [r0, #12]
 80028d4:	e7f0      	b.n	80028b8 <adc_inserted_channel_config+0x3e>

080028d6 <adc_external_trigger_source_config>:
 80028d6:	2901      	cmp	r1, #1
 80028d8:	d002      	beq.n	80028e0 <adc_external_trigger_source_config+0xa>
 80028da:	2902      	cmp	r1, #2
 80028dc:	d008      	beq.n	80028f0 <adc_external_trigger_source_config+0x1a>
 80028de:	4770      	bx	lr
 80028e0:	6883      	ldr	r3, [r0, #8]
 80028e2:	f423 2360 	bic.w	r3, r3, #917504	; 0xe0000
 80028e6:	6083      	str	r3, [r0, #8]
 80028e8:	6883      	ldr	r3, [r0, #8]
 80028ea:	4313      	orrs	r3, r2
 80028ec:	6083      	str	r3, [r0, #8]
 80028ee:	4770      	bx	lr
 80028f0:	6883      	ldr	r3, [r0, #8]
 80028f2:	f423 43e0 	bic.w	r3, r3, #28672	; 0x7000
 80028f6:	e7f6      	b.n	80028e6 <adc_external_trigger_source_config+0x10>

080028f8 <adc_external_trigger_config>:
 80028f8:	f001 0301 	and.w	r3, r1, #1
 80028fc:	f001 0102 	and.w	r1, r1, #2
 8002900:	b152      	cbz	r2, 8002918 <adc_external_trigger_config+0x20>
 8002902:	b11b      	cbz	r3, 800290c <adc_external_trigger_config+0x14>
 8002904:	6883      	ldr	r3, [r0, #8]
 8002906:	f443 1380 	orr.w	r3, r3, #1048576	; 0x100000
 800290a:	6083      	str	r3, [r0, #8]
 800290c:	b119      	cbz	r1, 8002916 <adc_external_trigger_config+0x1e>
 800290e:	6883      	ldr	r3, [r0, #8]
 8002910:	f443 4300 	orr.w	r3, r3, #32768	; 0x8000
 8002914:	6083      	str	r3, [r0, #8]
 8002916:	4770      	bx	lr
 8002918:	b11b      	cbz	r3, 8002922 <adc_external_trigger_config+0x2a>
 800291a:	6883      	ldr	r3, [r0, #8]
 800291c:	f423 1380 	bic.w	r3, r3, #1048576	; 0x100000
 8002920:	6083      	str	r3, [r0, #8]
 8002922:	2900      	cmp	r1, #0
 8002924:	d0f7      	beq.n	8002916 <adc_external_trigger_config+0x1e>
 8002926:	6883      	ldr	r3, [r0, #8]
 8002928:	f423 4300 	bic.w	r3, r3, #32768	; 0x8000
 800292c:	e7f2      	b.n	8002914 <adc_external_trigger_config+0x1c>

0800292e <adc_software_trigger_enable>:
 800292e:	07ca      	lsls	r2, r1, #31
 8002930:	bf42      	ittt	mi
 8002932:	6883      	ldrmi	r3, [r0, #8]
 8002934:	f443 0380 	orrmi.w	r3, r3, #4194304	; 0x400000
 8002938:	6083      	strmi	r3, [r0, #8]
 800293a:	078b      	lsls	r3, r1, #30
 800293c:	bf42      	ittt	mi
 800293e:	6883      	ldrmi	r3, [r0, #8]
 8002940:	f443 1300 	orrmi.w	r3, r3, #2097152	; 0x200000
 8002944:	6083      	strmi	r3, [r0, #8]
 8002946:	4770      	bx	lr

08002948 <i2c_clock_config>:
 8002948:	b5f8      	push	{r3, r4, r5, r6, r7, lr}
 800294a:	4605      	mov	r5, r0
 800294c:	2002      	movs	r0, #2
 800294e:	460c      	mov	r4, r1
 8002950:	4617      	mov	r7, r2
 8002952:	f7ff fa61 	bl	8001e18 <rcu_clock_freq_get>
 8002956:	4603      	mov	r3, r0
 8002958:	4828      	ldr	r0, [pc, #160]	; (80029fc <i2c_clock_config+0xb4>)
 800295a:	4a29      	ldr	r2, [pc, #164]	; (8002a00 <i2c_clock_config+0xb8>)
 800295c:	fbb3 f0f0 	udiv	r0, r3, r0
 8002960:	4293      	cmp	r3, r2
 8002962:	bf34      	ite	cc
 8002964:	4601      	movcc	r1, r0
 8002966:	2136      	movcs	r1, #54	; 0x36
 8002968:	686e      	ldr	r6, [r5, #4]
 800296a:	4a26      	ldr	r2, [pc, #152]	; (8002a04 <i2c_clock_config+0xbc>)
 800296c:	f026 063f 	bic.w	r6, r6, #63	; 0x3f
 8002970:	430e      	orrs	r6, r1
 8002972:	4294      	cmp	r4, r2
 8002974:	606e      	str	r6, [r5, #4]
 8002976:	d816      	bhi.n	80029a6 <i2c_clock_config+0x5e>
 8002978:	3001      	adds	r0, #1
 800297a:	2835      	cmp	r0, #53	; 0x35
 800297c:	d90d      	bls.n	800299a <i2c_clock_config+0x52>
 800297e:	2236      	movs	r2, #54	; 0x36
 8002980:	622a      	str	r2, [r5, #32]
 8002982:	0064      	lsls	r4, r4, #1
 8002984:	fbb3 f4f4 	udiv	r4, r3, r4
 8002988:	2c04      	cmp	r4, #4
 800298a:	bf38      	it	cc
 800298c:	2404      	movcc	r4, #4
 800298e:	69ea      	ldr	r2, [r5, #28]
 8002990:	f3c4 040b 	ubfx	r4, r4, #0, #12
 8002994:	4314      	orrs	r4, r2
 8002996:	61ec      	str	r4, [r5, #28]
 8002998:	bdf8      	pop	{r3, r4, r5, r6, r7, pc}
 800299a:	2802      	cmp	r0, #2
 800299c:	d801      	bhi.n	80029a2 <i2c_clock_config+0x5a>
 800299e:	2202      	movs	r2, #2
 80029a0:	e7ee      	b.n	8002980 <i2c_clock_config+0x38>
 80029a2:	6228      	str	r0, [r5, #32]
 80029a4:	e7ed      	b.n	8002982 <i2c_clock_config+0x3a>
 80029a6:	4a18      	ldr	r2, [pc, #96]	; (8002a08 <i2c_clock_config+0xc0>)
 80029a8:	4294      	cmp	r4, r2
 80029aa:	d8f5      	bhi.n	8002998 <i2c_clock_config+0x50>
 80029ac:	f44f 7296 	mov.w	r2, #300	; 0x12c
 80029b0:	4351      	muls	r1, r2
 80029b2:	f44f 727a 	mov.w	r2, #1000	; 0x3e8
 80029b6:	fbb1 f1f2 	udiv	r1, r1, r2
 80029ba:	3101      	adds	r1, #1
 80029bc:	6229      	str	r1, [r5, #32]
 80029be:	b9a7      	cbnz	r7, 80029ea <i2c_clock_config+0xa2>
 80029c0:	eb04 0444 	add.w	r4, r4, r4, lsl #1
 80029c4:	fbb3 f4f4 	udiv	r4, r3, r4
 80029c8:	69eb      	ldr	r3, [r5, #28]
 80029ca:	f423 4380 	bic.w	r3, r3, #16384	; 0x4000
 80029ce:	61eb      	str	r3, [r5, #28]
 80029d0:	f3c4 030b 	ubfx	r3, r4, #0, #12
 80029d4:	b90b      	cbnz	r3, 80029da <i2c_clock_config+0x92>
 80029d6:	f044 0401 	orr.w	r4, r4, #1
 80029da:	69eb      	ldr	r3, [r5, #28]
 80029dc:	f443 4300 	orr.w	r3, r3, #32768	; 0x8000
 80029e0:	61eb      	str	r3, [r5, #28]
 80029e2:	69eb      	ldr	r3, [r5, #28]
 80029e4:	4323      	orrs	r3, r4
 80029e6:	61eb      	str	r3, [r5, #28]
 80029e8:	e7d6      	b.n	8002998 <i2c_clock_config+0x50>
 80029ea:	2219      	movs	r2, #25
 80029ec:	4354      	muls	r4, r2
 80029ee:	fbb3 f4f4 	udiv	r4, r3, r4
 80029f2:	69eb      	ldr	r3, [r5, #28]
 80029f4:	f443 4380 	orr.w	r3, r3, #16384	; 0x4000
 80029f8:	e7e9      	b.n	80029ce <i2c_clock_config+0x86>
 80029fa:	bf00      	nop
 80029fc:	000f4240 	andeq	r4, pc, r0, asr #4
 8002a00:	0337f980 	teqeq	r7, #128, 18	; 0x200000	; <UNPREDICTABLE>
 8002a04:	000186a0 	andeq	r8, r1, r0, lsr #13
 8002a08:	00061a80 	andeq	r1, r6, r0, lsl #21

08002a0c <i2c_ack_config>:
 8002a0c:	6803      	ldr	r3, [r0, #0]
 8002a0e:	2901      	cmp	r1, #1
 8002a10:	bf0c      	ite	eq
 8002a12:	f443 6380 	orreq.w	r3, r3, #1024	; 0x400
 8002a16:	f423 6380 	bicne.w	r3, r3, #1024	; 0x400
 8002a1a:	6003      	str	r3, [r0, #0]
 8002a1c:	4770      	bx	lr

08002a1e <i2c_ackpos_config>:
 8002a1e:	6803      	ldr	r3, [r0, #0]
 8002a20:	b919      	cbnz	r1, 8002a2a <i2c_ackpos_config+0xc>
 8002a22:	f443 6300 	orr.w	r3, r3, #2048	; 0x800
 8002a26:	6003      	str	r3, [r0, #0]
 8002a28:	4770      	bx	lr
 8002a2a:	f423 6300 	bic.w	r3, r3, #2048	; 0x800
 8002a2e:	e7fa      	b.n	8002a26 <i2c_ackpos_config+0x8>

08002a30 <i2c_master_addressing>:
 8002a30:	3202      	adds	r2, #2
 8002a32:	bf0c      	ite	eq
 8002a34:	f021 0101 	biceq.w	r1, r1, #1
 8002a38:	f041 0101 	orrne.w	r1, r1, #1
 8002a3c:	6101      	str	r1, [r0, #16]
 8002a3e:	4770      	bx	lr

08002a40 <i2c_enable>:
 8002a40:	6803      	ldr	r3, [r0, #0]
 8002a42:	f043 0301 	orr.w	r3, r3, #1
 8002a46:	6003      	str	r3, [r0, #0]
 8002a48:	4770      	bx	lr

08002a4a <i2c_start_on_bus>:
 8002a4a:	6803      	ldr	r3, [r0, #0]
 8002a4c:	f443 7380 	orr.w	r3, r3, #256	; 0x100
 8002a50:	6003      	str	r3, [r0, #0]
 8002a52:	4770      	bx	lr

08002a54 <i2c_stop_on_bus>:
 8002a54:	6803      	ldr	r3, [r0, #0]
 8002a56:	f443 7300 	orr.w	r3, r3, #512	; 0x200
 8002a5a:	6003      	str	r3, [r0, #0]
 8002a5c:	4770      	bx	lr

08002a5e <i2c_data_transmit>:
 8002a5e:	6101      	str	r1, [r0, #16]
 8002a60:	4770      	bx	lr

08002a62 <i2c_data_receive>:
 8002a62:	6900      	ldr	r0, [r0, #16]
 8002a64:	b2c0      	uxtb	r0, r0
 8002a66:	4770      	bx	lr

08002a68 <i2c_flag_get>:
 8002a68:	098b      	lsrs	r3, r1, #6
 8002a6a:	581a      	ldr	r2, [r3, r0]
 8002a6c:	2301      	movs	r3, #1
 8002a6e:	f001 011f 	and.w	r1, r1, #31
 8002a72:	408b      	lsls	r3, r1
 8002a74:	4213      	tst	r3, r2
 8002a76:	bf14      	ite	ne
 8002a78:	2001      	movne	r0, #1
 8002a7a:	2000      	moveq	r0, #0
 8002a7c:	4770      	bx	lr

08002a7e <i2c_flag_clear>:
 8002a7e:	f240 5301 	movw	r3, #1281	; 0x501
 8002a82:	4299      	cmp	r1, r3
 8002a84:	b510      	push	{r4, lr}
 8002a86:	d102      	bne.n	8002a8e <i2c_flag_clear+0x10>
 8002a88:	6943      	ldr	r3, [r0, #20]
 8002a8a:	6983      	ldr	r3, [r0, #24]
 8002a8c:	bd10      	pop	{r4, pc}
 8002a8e:	2201      	movs	r2, #1
 8002a90:	098c      	lsrs	r4, r1, #6
 8002a92:	5823      	ldr	r3, [r4, r0]
 8002a94:	f001 011f 	and.w	r1, r1, #31
 8002a98:	408a      	lsls	r2, r1
 8002a9a:	ea23 0302 	bic.w	r3, r3, r2
 8002a9e:	5023      	str	r3, [r4, r0]
 8002aa0:	e7f4      	b.n	8002a8c <i2c_flag_clear+0xe>
	...

Disassembly of section .rodata:

08002aa4 <__func__.0-0xc2>:
	...
 8002aac:	04030201 	streq	r0, [r3], #-513	; 0xfffffdff
 8002ab0:	09080706 	stmdbeq	r8, {r1, r2, r8, r9, sl}
 8002ab4:	00000000 	andeq	r0, r0, r0
 8002ab8:	04030201 	streq	r0, [r3], #-513	; 0xfffffdff
 8002abc:	32334447 	eorscc	r4, r3, #1191182336	; 0x47000000
 8002ac0:	33303146 	teqcc	r0, #-2147483631	; 0x80000011
 8002ac4:	42004352 	andmi	r4, r0, #1207959553	; 0x48000001
 8002ac8:	6472616f 	ldrbtvs	r6, [r2], #-367	; 0xfffffe91
 8002acc:	73657420 	cmnvc	r5, #32, 8	; 0x20000000
 8002ad0:	0a726574 	beq	9c9c0a8 <__exidx_end+0x1c99020>
 8002ad4:	206c6c41 	rsbcs	r6, ip, r1, asr #24
 8002ad8:	4f495047 	svcmi	0x00495047
 8002adc:	61207327 			; <UNDEFINED> instruction: 0x61207327
 8002ae0:	73206572 			; <UNDEFINED> instruction: 0x73206572
 8002ae4:	74207465 	strtvc	r7, [r0], #-1125	; 0xfffffb9b
 8002ae8:	756f206f 	strbvc	r2, [pc, #-111]!	; 8002a81 <i2c_flag_clear+0x3>
 8002aec:	74757074 	ldrbtvc	r7, [r5], #-116	; 0xffffff8c
 8002af0:	47494820 	strbmi	r4, [r9, -r0, lsr #16]
 8002af4:	63720048 	cmnvs	r2, #72	; 0x48
 8002af8:	65705f75 	ldrbvs	r5, [r0, #-3957]!	; 0xfffff08b
 8002afc:	68706972 	ldmdavs	r0!, {r1, r4, r5, r6, r8, fp, sp, lr}^
 8002b00:	6f6c635f 	svcvs	0x006c635f
 8002b04:	655f6b63 	ldrbvs	r6, [pc, #-2915]	; 8001fa9 <timer_deinit+0xc1>
 8002b08:	6c62616e 	stfvse	f6, [r2], #-440	; 0xfffffe48
 8002b0c:	67000a65 	strvs	r0, [r0, -r5, ror #20]
 8002b10:	5f6f6970 	svcpl	0x006f6970
 8002b14:	74696e69 	strbtvc	r6, [r9], #-3689	; 0xfffff197
 8002b18:	7067000a 	rsbvc	r0, r7, sl
 8002b1c:	705f6f69 	subsvc	r6, pc, r9, ror #30
 8002b20:	725f6e69 	subsvc	r6, pc, #1680	; 0x690
 8002b24:	70616d65 	rsbvc	r6, r1, r5, ror #26
 8002b28:	6e6f635f 	mcrvs	3, 3, r6, cr15, cr15, {2}
 8002b2c:	0a676966 	beq	99dd0cc <__exidx_end+0x19da044>
 8002b30:	49504700 	ldmdbmi	r0, {r8, r9, sl, lr}^
 8002b34:	4f425f4f 	svcmi	0x00425f4f
 8002b38:	52000a50 	andpl	r0, r0, #80, 20	; 0x50000
 8002b3c:	696e6e75 	stmdbvs	lr!, {r0, r2, r4, r5, r6, r9, sl, fp, sp, lr}^
 8002b40:	0a21676e 	beq	885c900 <__exidx_end+0x859878>
 8002b44:	49504700 	ldmdbmi	r0, {r8, r9, sl, lr}^
 8002b48:	43425f4f 	movtmi	r5, #12111	; 0x2f4f
 8002b4c:	7674000a 	ldrbtvc	r0, [r4], -sl
 8002b50:	203d2120 	eorscs	r2, sp, r0, lsr #2
 8002b54:	72730030 	rsbsvc	r0, r3, #48	; 0x30
 8002b58:	64672f63 	strbtvs	r2, [r7], #-3939	; 0xfffff09d
 8002b5c:	742f3233 	strtvc	r3, [pc], #-563	; 8002b64 <_etext+0xc0>
 8002b60:	2e656d69 	cdpcs	13, 6, cr6, cr5, cr9, {3}
 8002b64:	 	ldrbvs	r0, [r3, #-99]!	; 0xffffff9d

08002b66 <__func__.0>:
 8002b66:	74746573 	ldrbtvc	r6, [r4], #-1395	; 0xfffffa8d
 8002b6a:	6f656d69 	svcvs	0x00656d69
 8002b6e:	79616466 	stmdbvc	r1!, {r1, r2, r5, r6, sl, sp, lr}^
	...

08002b73 <__func__.1>:
 8002b73:	74746567 	ldrbtvc	r6, [r4], #-1383	; 0xfffffa99
 8002b77:	6f656d69 	svcvs	0x00656d69
 8002b7b:	79616466 	stmdbvc	r1!, {r1, r2, r5, r6, sl, sp, lr}^
 8002b7f:	66202c00 	strtvs	r2, [r0], -r0, lsl #24
 8002b83:	74636e75 	strbtvc	r6, [r3], #-3701	; 0xfffff18b
 8002b87:	3a6e6f69 	bcc	9b9e933 <__exidx_end+0x1b9b8ab>
 8002b8b:	73610020 	cmnvc	r1, #32
 8002b8f:	74726573 	ldrbtvc	r6, [r2], #-1395	; 0xfffffa8d
 8002b93:	206e6f69 	rsbcs	r6, lr, r9, ror #30
 8002b97:	22732522 	rsbscs	r2, r3, #142606336	; 0x8800000
 8002b9b:	69616620 	stmdbvs	r1!, {r5, r9, sl, sp, lr}^
 8002b9f:	3a64656c 	bcc	991c157 <__exidx_end+0x19190cf>
 8002ba3:	6c696620 	stclvs	6, cr6, [r9], #-128	; 0xffffff80
 8002ba7:	25222065 	strcs	r2, [r2, #-101]!	; 0xffffff9b
 8002bab:	202c2273 	eorcs	r2, ip, r3, ror r2
 8002baf:	656e696c 	strbvs	r6, [lr, #-2412]!	; 0xfffff694
 8002bb3:	25642520 	strbcs	r2, [r4, #-1312]!	; 0xfffffae0
 8002bb7:	0a732573 	beq	9ccc18b <__exidx_end+0x1cc9103>
 8002bbb:	206f4e00 	rsbcs	r4, pc, r0, lsl #28
 8002bbf:	70736964 	rsbsvc	r6, r3, r4, ror #18
 8002bc3:	2079616c 	rsbscs	r6, r9, ip, ror #2
 8002bc7:	6e756f66 	cdpvs	15, 7, cr6, cr5, cr6, {3}
 8002bcb:	48530064 	ldmdami	r3, {r2, r5, r6}^
 8002bcf:	36303131 			; <UNDEFINED> instruction: 0x36303131
 8002bd3:	44535300 	ldrbmi	r5, [r3], #-768	; 0xfffffd00
 8002bd7:	36303331 			; <UNDEFINED> instruction: 0x36303331
 8002bdb:	20732500 	rsbscs	r2, r3, r0, lsl #10
 8002bdf:	2c642528 	cfstr64cs	mvdx2, [r4], #-160	; 0xffffff60
 8002be3:	0a296425 	beq	8a5bc7f <__exidx_end+0xa58bf7>
 8002be7:	eeaa4000 	cdp	0, 10, cr4, cr10, cr0, {0}
 8002beb:	0000eeaa 	andeq	lr, r0, sl, lsr #29
	...

08002bf0 <_OledFont8x6>:
 8002bf0:	00000040 	andeq	r0, r0, r0, asr #32
 8002bf4:	40000000 	andmi	r0, r0, r0
 8002bf8:	005f0000 	subseq	r0, pc, r0
 8002bfc:	00400000 	subeq	r0, r0, r0
 8002c00:	00070007 	andeq	r0, r7, r7
 8002c04:	7f144000 	svcvc	0x00144000
 8002c08:	00147f14 	andseq	r7, r4, r4, lsl pc
 8002c0c:	7f2a2440 	svcvc	0x002a2440
 8002c10:	4000122a 	andmi	r1, r0, sl, lsr #4
 8002c14:	64081323 	strvs	r1, [r8], #-803	; 0xfffffcdd
 8002c18:	36400062 	strbcc	r0, [r0], -r2, rrx
 8002c1c:	50205649 	eorpl	r5, r0, r9, asr #12
 8002c20:	08004000 	stmdaeq	r0, {lr}
 8002c24:	00000307 	andeq	r0, r0, r7, lsl #6
 8002c28:	221c0040 	andscs	r0, ip, #64	; 0x40
 8002c2c:	40000041 	andmi	r0, r0, r1, asr #32
 8002c30:	1c224100 	stfnes	f4, [r2], #-0
 8002c34:	2a400000 	bcs	9002c3c <__exidx_end+0xfffbb4>
 8002c38:	2a1c7f1c 	bcs	87228b0 <__exidx_end+0x71f828>
 8002c3c:	08084000 	stmdaeq	r8, {lr}
 8002c40:	0008083e 	andeq	r0, r8, lr, lsr r8
 8002c44:	70800040 	addvc	r0, r0, r0, asr #32
 8002c48:	40000030 	andmi	r0, r0, r0, lsr r0
 8002c4c:	08080808 	stmdaeq	r8, {r3, fp}
 8002c50:	00400008 	subeq	r0, r0, r8
 8002c54:	00606000 	rsbeq	r6, r0, r0
 8002c58:	10204000 	eorne	r4, r0, r0
 8002c5c:	00020408 	andeq	r0, r2, r8, lsl #8
 8002c60:	49513e40 	ldmdbmi	r1, {r6, r9, sl, fp, ip, sp}^
 8002c64:	40003e45 	andmi	r3, r0, r5, asr #28
 8002c68:	407f4200 	rsbsmi	r4, pc, r0, lsl #4
 8002c6c:	72400000 	subvc	r0, r0, #0
 8002c70:	46494949 	strbmi	r4, [r9], -r9, asr #18
 8002c74:	41214000 			; <UNDEFINED> instruction: 0x41214000
 8002c78:	00334d49 	eorseq	r4, r3, r9, asr #26
 8002c7c:	12141840 	andsne	r1, r4, #64, 16	; 0x400000
 8002c80:	4000107f 	andmi	r1, r0, pc, ror r0
 8002c84:	45454527 	strbmi	r4, [r5, #-1319]	; 0xfffffad9
 8002c88:	3c400039 	mcrrcc	0, 3, r0, r0, cr9
 8002c8c:	3149494a 	cmpcc	r9, sl, asr #18
 8002c90:	21414000 	mrscs	r4, (UNDEF: 65)
 8002c94:	00070911 	andeq	r0, r7, r1, lsl r9
 8002c98:	49493640 	stmdbmi	r9, {r6, r9, sl, ip, sp}^
 8002c9c:	40003649 	andmi	r3, r0, r9, asr #12
 8002ca0:	29494946 	stmdbcs	r9, {r1, r2, r6, r8, fp, lr}^
 8002ca4:	0040001e 	subeq	r0, r0, lr, lsl r0
 8002ca8:	00001400 	andeq	r1, r0, r0, lsl #8
 8002cac:	40004000 	andmi	r4, r0, r0
 8002cb0:	00000034 	andeq	r0, r0, r4, lsr r0
 8002cb4:	14080040 	strne	r0, [r8], #-64	; 0xffffffc0
 8002cb8:	40004122 	andmi	r4, r0, r2, lsr #2
 8002cbc:	14141414 	ldrne	r1, [r4], #-1044	; 0xfffffbec
 8002cc0:	00400014 	subeq	r0, r0, r4, lsl r0
 8002cc4:	08142241 	ldmdaeq	r4, {r0, r6, r9, sp}
 8002cc8:	01024000 	mrseq	r4, (UNDEF: 2)
 8002ccc:	00060959 	andeq	r0, r6, r9, asr r9
 8002cd0:	5d413e40 	stclpl	14, cr3, [r1, #-256]	; 0xffffff00
 8002cd4:	40004e59 	andmi	r4, r0, r9, asr lr
 8002cd8:	1211127c 	andsne	r1, r1, #124, 4	; 0xc0000007
 8002cdc:	7f40007c 	svcvc	0x0040007c
 8002ce0:	36494949 	strbcc	r4, [r9], -r9, asr #18
 8002ce4:	413e4000 	teqmi	lr, r0
 8002ce8:	00224141 	eoreq	r4, r2, r1, asr #2
 8002cec:	41417f40 	cmpmi	r1, r0, asr #30
 8002cf0:	40003e41 	andmi	r3, r0, r1, asr #28
 8002cf4:	4949497f 	stmdbmi	r9, {r0, r1, r2, r3, r4, r5, r6, r8, fp, lr}^
 8002cf8:	7f400041 	svcvc	0x00400041
 8002cfc:	01090909 	tsteq	r9, r9, lsl #18
 8002d00:	413e4000 	teqmi	lr, r0
 8002d04:	00735141 	rsbseq	r5, r3, r1, asr #2
 8002d08:	08087f40 	stmdaeq	r8, {r6, r8, r9, sl, fp, ip, sp, lr}
 8002d0c:	40007f08 	andmi	r7, r0, r8, lsl #30
 8002d10:	417f4100 	cmnmi	pc, r0, lsl #2
 8002d14:	20400000 	subcs	r0, r0, r0
 8002d18:	013f4140 	teqeq	pc, r0, asr #2
 8002d1c:	087f4000 	ldmdaeq	pc!, {lr}^	; <UNPREDICTABLE>
 8002d20:	00412214 	subeq	r2, r1, r4, lsl r2
 8002d24:	40407f40 	submi	r7, r0, r0, asr #30
 8002d28:	40004040 	andmi	r4, r0, r0, asr #32
 8002d2c:	021c027f 	andseq	r0, ip, #-268435449	; 0xf0000007
 8002d30:	7f40007f 	svcvc	0x0040007f
 8002d34:	7f100804 	svcvc	0x00100804
 8002d38:	413e4000 	teqmi	lr, r0
 8002d3c:	003e4141 	eorseq	r4, lr, r1, asr #2
 8002d40:	09097f40 	stmdbeq	r9, {r6, r8, r9, sl, fp, ip, sp, lr}
 8002d44:	40000609 	andmi	r0, r0, r9, lsl #12
 8002d48:	2151413e 	cmpcs	r1, lr, lsr r1
 8002d4c:	7f40005e 	svcvc	0x0040005e
 8002d50:	46291909 	strtmi	r1, [r9], -r9, lsl #18
 8002d54:	49264000 	stmdbmi	r6!, {lr}
 8002d58:	00324949 	eorseq	r4, r2, r9, asr #18
 8002d5c:	7f010340 	svcvc	0x00010340
 8002d60:	40000301 	andmi	r0, r0, r1, lsl #6
 8002d64:	4040403f 	submi	r4, r0, pc, lsr r0
 8002d68:	1f40003f 	svcne	0x0040003f
 8002d6c:	1f204020 	svcne	0x00204020
 8002d70:	403f4000 	eorsmi	r4, pc, r0
 8002d74:	003f4038 	eorseq	r4, pc, r8, lsr r0	; <UNPREDICTABLE>
 8002d78:	08146340 	ldmdaeq	r4, {r6, r8, r9, sp, lr}
 8002d7c:	40006314 	andmi	r6, r0, r4, lsl r3
 8002d80:	04780403 	ldrbteq	r0, [r8], #-1027	; 0xfffffbfd
 8002d84:	61400003 	cmpvs	r0, r3
 8002d88:	434d4959 	movtmi	r4, #55641	; 0xd959
 8002d8c:	7f004000 	svcvc	0x00004000
 8002d90:	00414141 	subeq	r4, r1, r1, asr #2
 8002d94:	08040240 	stmdaeq	r4, {r6, r9}
 8002d98:	40002010 	andmi	r2, r0, r0, lsl r0
 8002d9c:	41414100 	mrsmi	r4, (UNDEF: 81)
 8002da0:	0440007f 	strbeq	r0, [r0], #-127	; 0xffffff81
 8002da4:	04020102 	streq	r0, [r2], #-258	; 0xfffffefe
 8002da8:	40404000 	submi	r4, r0, r0
 8002dac:	00404040 	subeq	r4, r0, r0, asr #32
 8002db0:	07030040 	streq	r0, [r3, -r0, asr #32]
 8002db4:	40000008 	andmi	r0, r0, r8
 8002db8:	78545420 	ldmdavc	r4, {r5, sl, ip, lr}^
 8002dbc:	7f400040 	svcvc	0x00400040
 8002dc0:	38444428 	stmdacc	r4, {r3, r5, sl, lr}^
 8002dc4:	44384000 	ldrtmi	r4, [r8], #-0
 8002dc8:	00284444 	eoreq	r4, r8, r4, asr #8
 8002dcc:	44443840 	strbmi	r3, [r4], #-2112	; 0xfffff7c0
 8002dd0:	40007f28 	andmi	r7, r0, r8, lsr #30
 8002dd4:	54545438 	ldrbpl	r5, [r4], #-1080	; 0xfffffbc8
 8002dd8:	00400018 	subeq	r0, r0, r8, lsl r0
 8002ddc:	02097e08 	andeq	r7, r9, #8, 28	; 0x80
 8002de0:	a4184000 	ldrge	r4, [r8], #-0
 8002de4:	00789ca4 	rsbseq	r9, r8, r4, lsr #25
 8002de8:	04087f40 	streq	r7, [r8], #-3904	; 0xfffff0c0
 8002dec:	40007804 	andmi	r7, r0, r4, lsl #16
 8002df0:	407d4400 	rsbsmi	r4, sp, r0, lsl #8
 8002df4:	20400000 	subcs	r0, r0, r0
 8002df8:	003d4040 	eorseq	r4, sp, r0, asr #32
 8002dfc:	107f4000 	rsbsne	r4, pc, r0
 8002e00:	00004428 	andeq	r4, r0, r8, lsr #8
 8002e04:	7f410040 	svcvc	0x00410040
 8002e08:	40000040 	andmi	r0, r0, r0, asr #32
 8002e0c:	0478047c 	ldrbteq	r0, [r8], #-1148	; 0xfffffb84
 8002e10:	7c400078 	mcrrvc	0, 7, r0, r0, cr8
 8002e14:	78040408 	stmdavc	r4, {r3, sl}
 8002e18:	44384000 	ldrtmi	r4, [r8], #-0
 8002e1c:	00384444 	eorseq	r4, r8, r4, asr #8
 8002e20:	2418fc40 	ldrcs	pc, [r8], #-3136	; 0xfffff3c0
 8002e24:	40001824 	andmi	r1, r0, r4, lsr #16
 8002e28:	18242418 	stmdane	r4!, {r3, r4, sl, sp}
 8002e2c:	7c4000fc 	mcrrvc	0, 15, r0, r0, cr12
 8002e30:	08040408 	stmdaeq	r4, {r3, sl}
 8002e34:	54484000 	strbpl	r4, [r8], #-0
 8002e38:	00245454 	eoreq	r5, r4, r4, asr r4
 8002e3c:	3f040440 	svccc	0x00040440
 8002e40:	40002444 	andmi	r2, r0, r4, asr #8
 8002e44:	2040403c 	subcs	r4, r0, ip, lsr r0
 8002e48:	1c40007c 	mcrrne	0, 7, r0, r0, cr12
 8002e4c:	1c204020 	stcne	0, cr4, [r0], #-128	; 0xffffff80
 8002e50:	403c4000 	eorsmi	r4, ip, r0
 8002e54:	003c4030 	eorseq	r4, ip, r0, lsr r0
 8002e58:	10284440 	eorne	r4, r8, r0, asr #8
 8002e5c:	40004428 	andmi	r4, r0, r8, lsr #8
 8002e60:	9090904c 	addsls	r9, r0, ip, asr #32
 8002e64:	4440007c 	strbmi	r0, [r0], #-124	; 0xffffff84
 8002e68:	444c5464 	strbmi	r5, [ip], #-1124	; 0xfffffb9c
 8002e6c:	08004000 	stmdaeq	r0, {lr}
 8002e70:	00004136 	andeq	r4, r0, r6, lsr r1
 8002e74:	77000040 	strvc	r0, [r0, -r0, asr #32]
 8002e78:	40000000 	andmi	r0, r0, r0
 8002e7c:	08364100 	ldmdaeq	r6!, {r8, lr}
 8002e80:	02400000 	subeq	r0, r0, #0
 8002e84:	02040201 	andeq	r0, r4, #268435456	; 0x10000000
 8002e88:	263c4000 	ldrtcs	r4, [ip], -r0
 8002e8c:	003c2623 	eorseq	r2, ip, r3, lsr #12

08002e90 <oled_128x32_init>:
 8002e90:	a880d5ae 	stmge	r0, {r1, r2, r3, r5, r7, r8, sl, ip, lr, pc}
 8002e94:	4000d31f 	andmi	sp, r0, pc, lsl r3
 8002e98:	0020148d 	eoreq	r1, r0, sp, lsl #9
 8002e9c:	02dac8a1 	sbcseq	ip, sl, #10551296	; 0xa10000
 8002ea0:	f1d97f81 			; <UNDEFINED> instruction: 0xf1d97f81
 8002ea4:	a6a440db 	ssatge	r4, #5, fp, asr #1

08002ea8 <oled_128x64_init>:
 8002ea8:	a880d5ae 	stmge	r0, {r1, r2, r3, r5, r7, r8, sl, ip, lr, pc}
 8002eac:	4000d33f 	andmi	sp, r0, pc, lsr r3
 8002eb0:	0020148d 	eoreq	r1, r0, sp, lsl #9
 8002eb4:	12dac8a1 	sbcsne	ip, sl, #10551296	; 0xa10000
 8002eb8:	f1d97f81 			; <UNDEFINED> instruction: 0xf1d97f81
 8002ebc:	a6a440db 	ssatge	r4, #5, fp, asr #1

08002ec0 <vtable for Ssd1306>:
	...
 8002ec8:	080013f1 	stmdaeq	r0, {r0, r4, r5, r6, r7, r8, r9, ip}
 8002ecc:	0800141d 	stmdaeq	r0, {r0, r2, r3, r4, sl, ip}
 8002ed0:	0800172d 	stmdaeq	r0, {r0, r2, r3, r5, r8, r9, sl, ip}
 8002ed4:	080016b5 	stmdaeq	r0, {r0, r2, r4, r5, r7, r9, sl, ip}
 8002ed8:	08001581 	stmdaeq	r0, {r0, r7, r8, sl, ip}
 8002edc:	0800143d 	stmdaeq	r0, {r0, r2, r3, r4, r5, sl, ip}
 8002ee0:	08001465 	stmdaeq	r0, {r0, r2, r5, r6, sl, ip}
 8002ee4:	08001559 	stmdaeq	r0, {r0, r3, r4, r6, r8, sl, ip}
 8002ee8:	08001511 	stmdaeq	r0, {r0, r4, r8, sl, ip}
 8002eec:	080013f3 	stmdaeq	r0, {r0, r1, r4, r5, r6, r7, r8, r9, ip}
 8002ef0:	080015bd 	stmdaeq	r0, {r0, r2, r3, r4, r5, r7, r8, sl, ip}
 8002ef4:	080015c9 	stmdaeq	r0, {r0, r3, r6, r7, r8, sl, ip}
 8002ef8:	080015e3 	stmdaeq	r0, {r0, r1, r5, r6, r7, r8, sl, ip}
 8002efc:	080013f5 	stmdaeq	r0, {r0, r2, r4, r5, r6, r7, r8, r9, ip}
 8002f00:	37335b1b 			; <UNDEFINED> instruction: 0x37335b1b
 8002f04:	5b1b006d 	blpl	86c30c0 <__exidx_end+0x6c0038>
 8002f08:	006d3034 	rsbeq	r3, sp, r4, lsr r0
 8002f0c:	6f6c4270 	svcvs	0x006c4270
 8002f10:	65486b63 	strbvs	r6, [r8, #-2915]	; 0xfffff49d
 8002f14:	72656461 	rsbvc	r6, r5, #1627389952	; 0x61000000
 8002f18:	616d3e2d 	cmnvs	sp, sp, lsr #28
 8002f1c:	20636967 	rsbcs	r6, r3, r7, ror #18
 8002f20:	42203d3d 	eormi	r3, r0, #3904	; 0xf40
 8002f24:	4b434f4c 	blmi	90d6c5c <__exidx_end+0x10d3bd4>
 8002f28:	47414d5f 	smlsldmi	r4, r1, pc, sp	; <UNPREDICTABLE>
 8002f2c:	73004349 	movwvc	r4, #841	; 0x349
 8002f30:	6d2f6372 	stcvs	3, cr6, [pc, #-456]!	; 8002d70 <_OledFont8x6+0x180>
 8002f34:	6f6c6c61 	svcvs	0x006c6c61
 8002f38:	00632e63 	rsbeq	r2, r3, r3, ror #28
 8002f3c:	64616568 	strbtvs	r6, [r1], #-1384	; 0xfffffa98
 8002f40:	3e2d7265 	cdpcc	2, 2, cr7, cr13, cr5, {3}
 8002f44:	6967616d 	stmdbvs	r7!, {r0, r2, r3, r5, r6, r8, sp, lr}^
 8002f48:	3d3d2063 	ldccc	0, cr2, [sp, #-396]!	; 0xfffffe74
 8002f4c:	4f4c4220 	svcmi	0x004c4220
 8002f50:	4d5f4b43 	vldrmi	d20, [pc, #-268]	; 8002e4c <_OledFont8x6+0x25c>
 8002f54:	43494741 	movtmi	r4, #38721	; 0x9741
 8002f58:	75282800 	strvc	r2, [r8, #-2048]!	; 0xfffff800
 8002f5c:	6769736e 	strbvs	r7, [r9, -lr, ror #6]!
 8002f60:	2964656e 	stmdbcs	r4!, {r1, r2, r3, r5, r6, r8, sl, sp, lr}^
 8002f64:	64616568 	strbtvs	r6, [r1], #-1384	; 0xfffffa98
 8002f68:	26207265 	strtcs	r7, [r0], -r5, ror #4
 8002f6c:	6e752820 	cdpvs	8, 7, cr2, cr5, cr0, {1}
 8002f70:	6e676973 			; <UNDEFINED> instruction: 0x6e676973
 8002f74:	33296465 			; <UNDEFINED> instruction: 0x33296465
 8002f78:	3d3d2029 	ldccc	0, cr2, [sp, #-164]!	; 0xffffff5c
 8002f7c:	28003020 	stmdacs	r0, {r5, ip, sp}
 8002f80:	736e7528 	cmnvc	lr, #40, 10	; 0xa000000
 8002f84:	656e6769 	strbvs	r6, [lr, #-1897]!	; 0xfffff897
 8002f88:	656e2964 	strbvs	r2, [lr, #-2404]!	; 0xfffff69c
 8002f8c:	26207478 			; <UNDEFINED> instruction: 0x26207478
 8002f90:	6e752820 	cdpvs	8, 7, cr2, cr5, cr0, {1}
 8002f94:	6e676973 			; <UNDEFINED> instruction: 0x6e676973
 8002f98:	33296465 			; <UNDEFINED> instruction: 0x33296465
 8002f9c:	3d3d2029 	ldccc	0, cr2, [sp, #-164]!	; 0xffffff5c
 8002fa0:	28003020 	stmdacs	r0, {r5, ip, sp}
 8002fa4:	736e7528 	cmnvc	lr, #40, 10	; 0xa000000
 8002fa8:	656e6769 	strbvs	r6, [lr, #-1897]!	; 0xfffff897
 8002fac:	65682964 	strbvs	r2, [r8, #-2404]!	; 0xfffff69c
 8002fb0:	72656461 	rsbvc	r6, r5, #1627389952	; 0x61000000
 8002fb4:	61643e2d 	cmnvs	r4, sp, lsr #28
 8002fb8:	26206174 			; <UNDEFINED> instruction: 0x26206174
 8002fbc:	6e752820 	cdpvs	8, 7, cr2, cr5, cr0, {1}
 8002fc0:	6e676973 			; <UNDEFINED> instruction: 0x6e676973
 8002fc4:	33296465 			; <UNDEFINED> instruction: 0x33296465
 8002fc8:	3d3d2029 	ldccc	0, cr2, [sp, #-164]!	; 0xffffff5c
 8002fcc:	 	strvs	r3, [r0], -r0, lsr #32

08002fcf <__func__.2>:
 8002fcf:	65657266 	strbvs	r7, [r5, #-614]!	; 0xfffffd9a
	...

08002fd4 <__func__.3>:
 8002fd4:	6c6c616d 	stfvse	f6, [ip], #-436	; 0xfffffe4c
 8002fd8:	0000636f 	andeq	r6, r0, pc, ror #6

08002fdc <days_of_month>:
 8002fdc:	0000001f 	andeq	r0, r0, pc, lsl r0
 8002fe0:	0000001c 	andeq	r0, r0, ip, lsl r0
 8002fe4:	0000001f 	andeq	r0, r0, pc, lsl r0
 8002fe8:	0000001e 	andeq	r0, r0, lr, lsl r0
 8002fec:	0000001f 	andeq	r0, r0, pc, lsl r0
 8002ff0:	0000001e 	andeq	r0, r0, lr, lsl r0
 8002ff4:	0000001f 	andeq	r0, r0, pc, lsl r0
 8002ff8:	0000001f 	andeq	r0, r0, pc, lsl r0
 8002ffc:	0000001e 	andeq	r0, r0, lr, lsl r0
 8003000:	0000001f 	andeq	r0, r0, pc, lsl r0
 8003004:	0000001e 	andeq	r0, r0, lr, lsl r0
 8003008:	0000001f 	andeq	r0, r0, pc, lsl r0
 800300c:	7563725f 	strbvc	r7, [r3, #-607]!	; 0xfffffda1
 8003010:	7265705f 	rsbvc	r7, r5, #95	; 0x5f
 8003014:	5f687069 	svcpl	0x00687069
 8003018:	636f6c63 	cmnvs	pc, #25344	; 0x6300
 800301c:	6e655f6b 	cdpvs	15, 6, cr5, cr5, cr11, {3}
 8003020:	656c6261 	strbvs	r6, [ip, #-609]!	; 0xfffffd9f
 8003024:	63727300 	cmnvs	r2, #0, 6
 8003028:	3364672f 	cmncc	r4, #12320768	; 0xbc0000
 800302c:	61755f32 	cmnvs	r5, r2, lsr pc
 8003030:	632e7472 			; <UNDEFINED> instruction: 0x632e7472
 8003034:	5f007070 	svcpl	0x00007070
 8003038:	6f697067 	svcvs	0x00697067
 800303c:	696e695f 	stmdbvs	lr!, {r0, r1, r2, r3, r4, r6, r8, fp, sp, lr}^
 8003040:	434d0074 	movtmi	r0, #53364	; 0xd074
 8003044:	4c435f55 	mcrrmi	15, 5, r5, r3, cr5
 8003048:	5f4b434f 	svcpl	0x004b434f
 800304c:	51455246 	cmppl	r5, r6, asr #4
 8003050:	203d3d20 	eorscs	r3, sp, r0, lsr #26
 8003054:	74737953 	ldrbtvc	r7, [r3], #-2387	; 0xfffff6ad
 8003058:	6f436d65 	svcvs	0x00436d65
 800305c:	6c436572 	cfstr64vs	mvdx6, [r3], {114}	; 0x72
 8003060:	006b636f 	rsbeq	r6, fp, pc, ror #6
 8003064:	6c656475 	cfstrdvs	mvd6, [r5], #-468	; 0xfffffe2c
 8003068:	695f7961 	ldmdbvs	pc, {r0, r5, r6, r8, fp, ip, sp, lr}^	; <UNPREDICTABLE>
 800306c:	0074696e 	rsbseq	r6, r4, lr, ror #18
 8003070:	2f637273 	svccs	0x00637273
 8003074:	6c656475 	cfstrdvs	mvd6, [r5], #-468	; 0xfffffe2c
 8003078:	632e7961 			; <UNDEFINED> instruction: 0x632e7961
 800307c:	00007070 	andeq	r7, r0, r0, ror r0

Disassembly of section .ARM:

08003080 <__exidx_start>:
 8003080:	7fffdf50 	svcvc	0x00ffdf50
 8003084:	00000001 	andeq	r0, r0, r1

Disassembly of section .ARM.attributes:

08003088 <.ARM.attributes>:
 8003088:	00002e41 	andeq	r2, r0, r1, asr #28
 800308c:	61656100 	cmnvs	r5, r0, lsl #2
 8003090:	01006962 	tsteq	r0, r2, ror #18
 8003094:	00000024 	andeq	r0, r0, r4, lsr #32
 8003098:	726f4305 	rsbvc	r4, pc, #335544320	; 0x14000000
 800309c:	2d786574 	cfldr64cs	mvdx6, [r8, #-464]!	; 0xfffffe30
 80030a0:	0600334d 	streq	r3, [r0], -sp, asr #6
 80030a4:	094d070a 	stmdbeq	sp, {r1, r3, r8, r9, sl}^
 80030a8:	14041202 	strne	r1, [r4], #-514	; 0xfffffdfe
 80030ac:	17011501 	strne	r1, [r1, -r1, lsl #10]
 80030b0:	1a011803 	bne	80490c4 <__exidx_end+0x4603c>
 80030b4:	Address 0x00000000080030b4 is out of bounds.


Disassembly of section .data:

20000000 <next_block>:
20000000:	2000a000 	andcs	sl, r0, r0

20000004 <s_block_bucket>:
20000004:	00000010 	andeq	r0, r0, r0, lsl r0
20000008:	00000000 	andeq	r0, r0, r0
2000000c:	00000020 	andeq	r0, r0, r0, lsr #32
20000010:	00000000 	andeq	r0, r0, r0
20000014:	00000040 	andeq	r0, r0, r0, asr #32
20000018:	00000000 	andeq	r0, r0, r0
2000001c:	00000060 	andeq	r0, r0, r0, rrx
20000020:	00000000 	andeq	r0, r0, r0
20000024:	00000080 	andeq	r0, r0, r0, lsl #1
20000028:	00000000 	andeq	r0, r0, r0
2000002c:	00000100 	andeq	r0, r0, r0, lsl #2
20000030:	00000000 	andeq	r0, r0, r0
20000034:	00000140 	andeq	r0, r0, r0, asr #2
20000038:	00000000 	andeq	r0, r0, r0
2000003c:	00000180 	andeq	r0, r0, r0, lsl #3
20000040:	00000000 	andeq	r0, r0, r0
20000044:	00000200 	andeq	r0, r0, r0, lsl #4
20000048:	00000000 	andeq	r0, r0, r0
2000004c:	00000300 	andeq	r0, r0, r0, lsl #6
20000050:	00000000 	andeq	r0, r0, r0
20000054:	00000400 	andeq	r0, r0, r0, lsl #8
20000058:	00000000 	andeq	r0, r0, r0
2000005c:	00000500 	andeq	r0, r0, r0, lsl #10
	...

2000006c <SystemCoreClock>:
2000006c:	066ff300 	strbteq	pc, [pc], -r0, lsl #6	; <UNPREDICTABLE>

Disassembly of section .bss:

20000070 <s_micros>:
	...

20000078 <set_timer>:
20000078:	00000000 	andeq	r0, r0, r0

2000007c <outptr>:
2000007c:	00000000 	andeq	r0, r0, r0

20000080 <Display::s_pThis>:
20000080:	00000000 	andeq	r0, r0, r0

20000084 <_ClearBuffer>:
	...

2000010c <Ssd1306::s_pThis>:
2000010c:	00000000 	andeq	r0, r0, r0

20000110 <Hardware::s_pThis>:
20000110:	00000000 	andeq	r0, r0, r0

20000114 <s_nSysTickMillis>:
20000114:	00000000 	andeq	r0, r0, r0

20000118 <s_nAddress>:
20000118:	00000000 	andeq	r0, r0, r0

Disassembly of section .heap:

2000a000 <heap_low>:
	...

Disassembly of section .stack:

2000b000 <_sp-0x1000>:
	...
