
build_gd32/main.elf:     file format elf32-littlearm


Disassembly of section .vectors:

08000000 <__gVectors>:
 8000000:	2000c000 	andcs	ip, r0, r0
 8000004:	080011b1 	stmdaeq	r0, {r0, r4, r5, r7, r8, ip}
 8000008:	080011fd 	stmdaeq	r0, {r0, r2, r3, r4, r5, r6, r7, r8, ip}
 800000c:	080011fd 	stmdaeq	r0, {r0, r2, r3, r4, r5, r6, r7, r8, ip}
 8000010:	080011fd 	stmdaeq	r0, {r0, r2, r3, r4, r5, r6, r7, r8, ip}
 8000014:	080011fd 	stmdaeq	r0, {r0, r2, r3, r4, r5, r6, r7, r8, ip}
 8000018:	080011fd 	stmdaeq	r0, {r0, r2, r3, r4, r5, r6, r7, r8, ip}
	...
 800002c:	080011fd 	stmdaeq	r0, {r0, r2, r3, r4, r5, r6, r7, r8, ip}
 8000030:	080011fd 	stmdaeq	r0, {r0, r2, r3, r4, r5, r6, r7, r8, ip}
 8000034:	00000000 	andeq	r0, r0, r0
 8000038:	080011fd 	stmdaeq	r0, {r0, r2, r3, r4, r5, r6, r7, r8, ip}
 800003c:	08004555 	stmdaeq	r0, {r0, r2, r4, r6, r8, sl, lr}
 8000040:	080011fd 	stmdaeq	r0, {r0, r2, r3, r4, r5, r6, r7, r8, ip}
 8000044:	080011fd 	stmdaeq	r0, {r0, r2, r3, r4, r5, r6, r7, r8, ip}
 8000048:	080011fd 	stmdaeq	r0, {r0, r2, r3, r4, r5, r6, r7, r8, ip}
 800004c:	080011fd 	stmdaeq	r0, {r0, r2, r3, r4, r5, r6, r7, r8, ip}
 8000050:	080011fd 	stmdaeq	r0, {r0, r2, r3, r4, r5, r6, r7, r8, ip}
 8000054:	080011fd 	stmdaeq	r0, {r0, r2, r3, r4, r5, r6, r7, r8, ip}
 8000058:	080011fd 	stmdaeq	r0, {r0, r2, r3, r4, r5, r6, r7, r8, ip}
 800005c:	080011fd 	stmdaeq	r0, {r0, r2, r3, r4, r5, r6, r7, r8, ip}
 8000060:	080011fd 	stmdaeq	r0, {r0, r2, r3, r4, r5, r6, r7, r8, ip}
 8000064:	080011fd 	stmdaeq	r0, {r0, r2, r3, r4, r5, r6, r7, r8, ip}
 8000068:	080011fd 	stmdaeq	r0, {r0, r2, r3, r4, r5, r6, r7, r8, ip}
 800006c:	080011fd 	stmdaeq	r0, {r0, r2, r3, r4, r5, r6, r7, r8, ip}
 8000070:	080011fd 	stmdaeq	r0, {r0, r2, r3, r4, r5, r6, r7, r8, ip}
 8000074:	080011fd 	stmdaeq	r0, {r0, r2, r3, r4, r5, r6, r7, r8, ip}
 8000078:	080011fd 	stmdaeq	r0, {r0, r2, r3, r4, r5, r6, r7, r8, ip}
 800007c:	080011fd 	stmdaeq	r0, {r0, r2, r3, r4, r5, r6, r7, r8, ip}
 8000080:	080011fd 	stmdaeq	r0, {r0, r2, r3, r4, r5, r6, r7, r8, ip}
 8000084:	080011fd 	stmdaeq	r0, {r0, r2, r3, r4, r5, r6, r7, r8, ip}
 8000088:	080011fd 	stmdaeq	r0, {r0, r2, r3, r4, r5, r6, r7, r8, ip}
 800008c:	080011fd 	stmdaeq	r0, {r0, r2, r3, r4, r5, r6, r7, r8, ip}
 8000090:	080011fd 	stmdaeq	r0, {r0, r2, r3, r4, r5, r6, r7, r8, ip}
 8000094:	080011fd 	stmdaeq	r0, {r0, r2, r3, r4, r5, r6, r7, r8, ip}
 8000098:	080011fd 	stmdaeq	r0, {r0, r2, r3, r4, r5, r6, r7, r8, ip}
 800009c:	080011fd 	stmdaeq	r0, {r0, r2, r3, r4, r5, r6, r7, r8, ip}
 80000a0:	080011fd 	stmdaeq	r0, {r0, r2, r3, r4, r5, r6, r7, r8, ip}
 80000a4:	080011fd 	stmdaeq	r0, {r0, r2, r3, r4, r5, r6, r7, r8, ip}
 80000a8:	080011fd 	stmdaeq	r0, {r0, r2, r3, r4, r5, r6, r7, r8, ip}
 80000ac:	080011fd 	stmdaeq	r0, {r0, r2, r3, r4, r5, r6, r7, r8, ip}
 80000b0:	0800291d 	stmdaeq	r0, {r0, r2, r3, r4, r8, fp, sp}
 80000b4:	080029bd 	stmdaeq	r0, {r0, r2, r3, r4, r5, r7, r8, fp, sp}
 80000b8:	08002a01 	stmdaeq	r0, {r0, r9, fp, sp}
 80000bc:	080011fd 	stmdaeq	r0, {r0, r2, r3, r4, r5, r6, r7, r8, ip}
 80000c0:	080011fd 	stmdaeq	r0, {r0, r2, r3, r4, r5, r6, r7, r8, ip}
 80000c4:	080011fd 	stmdaeq	r0, {r0, r2, r3, r4, r5, r6, r7, r8, ip}
 80000c8:	080011fd 	stmdaeq	r0, {r0, r2, r3, r4, r5, r6, r7, r8, ip}
 80000cc:	080011fd 	stmdaeq	r0, {r0, r2, r3, r4, r5, r6, r7, r8, ip}
 80000d0:	080011fd 	stmdaeq	r0, {r0, r2, r3, r4, r5, r6, r7, r8, ip}
 80000d4:	080011fd 	stmdaeq	r0, {r0, r2, r3, r4, r5, r6, r7, r8, ip}
 80000d8:	080011fd 	stmdaeq	r0, {r0, r2, r3, r4, r5, r6, r7, r8, ip}
 80000dc:	08002725 	stmdaeq	r0, {r0, r2, r5, r8, r9, sl, sp}
 80000e0:	080011fd 	stmdaeq	r0, {r0, r2, r3, r4, r5, r6, r7, r8, ip}
 80000e4:	080011fd 	stmdaeq	r0, {r0, r2, r3, r4, r5, r6, r7, r8, ip}
 80000e8:	080011fd 	stmdaeq	r0, {r0, r2, r3, r4, r5, r6, r7, r8, ip}
 80000ec:	080011fd 	stmdaeq	r0, {r0, r2, r3, r4, r5, r6, r7, r8, ip}
 80000f0:	080011fd 	stmdaeq	r0, {r0, r2, r3, r4, r5, r6, r7, r8, ip}
 80000f4:	080011fd 	stmdaeq	r0, {r0, r2, r3, r4, r5, r6, r7, r8, ip}
 80000f8:	00000000 	andeq	r0, r0, r0
 80000fc:	080011fd 	stmdaeq	r0, {r0, r2, r3, r4, r5, r6, r7, r8, ip}
 8000100:	080011fd 	stmdaeq	r0, {r0, r2, r3, r4, r5, r6, r7, r8, ip}
 8000104:	080011fd 	stmdaeq	r0, {r0, r2, r3, r4, r5, r6, r7, r8, ip}
 8000108:	080011fd 	stmdaeq	r0, {r0, r2, r3, r4, r5, r6, r7, r8, ip}
 800010c:	080011fd 	stmdaeq	r0, {r0, r2, r3, r4, r5, r6, r7, r8, ip}
 8000110:	080011fd 	stmdaeq	r0, {r0, r2, r3, r4, r5, r6, r7, r8, ip}
 8000114:	080011fd 	stmdaeq	r0, {r0, r2, r3, r4, r5, r6, r7, r8, ip}
 8000118:	080011fd 	stmdaeq	r0, {r0, r2, r3, r4, r5, r6, r7, r8, ip}
 800011c:	08002a21 	stmdaeq	r0, {r0, r5, r9, fp, sp}
 8000120:	080011fd 	stmdaeq	r0, {r0, r2, r3, r4, r5, r6, r7, r8, ip}
 8000124:	080011fd 	stmdaeq	r0, {r0, r2, r3, r4, r5, r6, r7, r8, ip}
 8000128:	080011fd 	stmdaeq	r0, {r0, r2, r3, r4, r5, r6, r7, r8, ip}
 800012c:	080011fd 	stmdaeq	r0, {r0, r2, r3, r4, r5, r6, r7, r8, ip}

Disassembly of section .text:

08000130 <__aeabi_fmul>:
 8000130:	f04f 0cff 	mov.w	ip, #255	; 0xff
 8000134:	ea1c 52d0 	ands.w	r2, ip, r0, lsr #23
 8000138:	bf1e      	ittt	ne
 800013a:	ea1c 53d1 	andsne.w	r3, ip, r1, lsr #23
 800013e:	ea92 0f0c 	teqne	r2, ip
 8000142:	ea93 0f0c 	teqne	r3, ip
 8000146:	d06f      	beq.n	8000228 <__aeabi_fmul+0xf8>
 8000148:	441a      	add	r2, r3
 800014a:	ea80 0c01 	eor.w	ip, r0, r1
 800014e:	0240      	lsls	r0, r0, #9
 8000150:	bf18      	it	ne
 8000152:	ea5f 2141 	movsne.w	r1, r1, lsl #9
 8000156:	d01e      	beq.n	8000196 <__aeabi_fmul+0x66>
 8000158:	f04f 6300 	mov.w	r3, #134217728	; 0x8000000
 800015c:	ea43 1050 	orr.w	r0, r3, r0, lsr #5
 8000160:	ea43 1151 	orr.w	r1, r3, r1, lsr #5
 8000164:	fba0 3101 	umull	r3, r1, r0, r1
 8000168:	f00c 4000 	and.w	r0, ip, #2147483648	; 0x80000000
 800016c:	f5b1 0f00 	cmp.w	r1, #8388608	; 0x800000
 8000170:	bf3e      	ittt	cc
 8000172:	0049      	lslcc	r1, r1, #1
 8000174:	ea41 71d3 	orrcc.w	r1, r1, r3, lsr #31
 8000178:	005b      	lslcc	r3, r3, #1
 800017a:	ea40 0001 	orr.w	r0, r0, r1
 800017e:	f162 027f 	sbc.w	r2, r2, #127	; 0x7f
 8000182:	2afd      	cmp	r2, #253	; 0xfd
 8000184:	d81d      	bhi.n	80001c2 <__aeabi_fmul+0x92>
 8000186:	f1b3 4f00 	cmp.w	r3, #2147483648	; 0x80000000
 800018a:	eb40 50c2 	adc.w	r0, r0, r2, lsl #23
 800018e:	bf08      	it	eq
 8000190:	f020 0001 	biceq.w	r0, r0, #1
 8000194:	4770      	bx	lr
 8000196:	f090 0f00 	teq	r0, #0
 800019a:	f00c 4c00 	and.w	ip, ip, #2147483648	; 0x80000000
 800019e:	bf08      	it	eq
 80001a0:	0249      	lsleq	r1, r1, #9
 80001a2:	ea4c 2050 	orr.w	r0, ip, r0, lsr #9
 80001a6:	ea40 2051 	orr.w	r0, r0, r1, lsr #9
 80001aa:	3a7f      	subs	r2, #127	; 0x7f
 80001ac:	bfc2      	ittt	gt
 80001ae:	f1d2 03ff 	rsbsgt	r3, r2, #255	; 0xff
 80001b2:	ea40 50c2 	orrgt.w	r0, r0, r2, lsl #23
 80001b6:	4770      	bxgt	lr
 80001b8:	f440 0000 	orr.w	r0, r0, #8388608	; 0x800000
 80001bc:	f04f 0300 	mov.w	r3, #0
 80001c0:	3a01      	subs	r2, #1
 80001c2:	dc5d      	bgt.n	8000280 <__aeabi_fmul+0x150>
 80001c4:	f112 0f19 	cmn.w	r2, #25
 80001c8:	bfdc      	itt	le
 80001ca:	f000 4000 	andle.w	r0, r0, #2147483648	; 0x80000000
 80001ce:	4770      	bxle	lr
 80001d0:	f1c2 0200 	rsb	r2, r2, #0
 80001d4:	0041      	lsls	r1, r0, #1
 80001d6:	fa21 f102 	lsr.w	r1, r1, r2
 80001da:	f1c2 0220 	rsb	r2, r2, #32
 80001de:	fa00 fc02 	lsl.w	ip, r0, r2
 80001e2:	ea5f 0031 	movs.w	r0, r1, rrx
 80001e6:	f140 0000 	adc.w	r0, r0, #0
 80001ea:	ea53 034c 	orrs.w	r3, r3, ip, lsl #1
 80001ee:	bf08      	it	eq
 80001f0:	ea20 70dc 	biceq.w	r0, r0, ip, lsr #31
 80001f4:	4770      	bx	lr
 80001f6:	f092 0f00 	teq	r2, #0
 80001fa:	f000 4c00 	and.w	ip, r0, #2147483648	; 0x80000000
 80001fe:	bf02      	ittt	eq
 8000200:	0040      	lsleq	r0, r0, #1
 8000202:	f410 0f00 	tsteq.w	r0, #8388608	; 0x800000
 8000206:	3a01      	subeq	r2, #1
 8000208:	d0f9      	beq.n	80001fe <__aeabi_fmul+0xce>
 800020a:	ea40 000c 	orr.w	r0, r0, ip
 800020e:	f093 0f00 	teq	r3, #0
 8000212:	f001 4c00 	and.w	ip, r1, #2147483648	; 0x80000000
 8000216:	bf02      	ittt	eq
 8000218:	0049      	lsleq	r1, r1, #1
 800021a:	f411 0f00 	tsteq.w	r1, #8388608	; 0x800000
 800021e:	3b01      	subeq	r3, #1
 8000220:	d0f9      	beq.n	8000216 <__aeabi_fmul+0xe6>
 8000222:	ea41 010c 	orr.w	r1, r1, ip
 8000226:	e78f      	b.n	8000148 <__aeabi_fmul+0x18>
 8000228:	ea0c 53d1 	and.w	r3, ip, r1, lsr #23
 800022c:	ea92 0f0c 	teq	r2, ip
 8000230:	bf18      	it	ne
 8000232:	ea93 0f0c 	teqne	r3, ip
 8000236:	d00a      	beq.n	800024e <__aeabi_fmul+0x11e>
 8000238:	f030 4c00 	bics.w	ip, r0, #2147483648	; 0x80000000
 800023c:	bf18      	it	ne
 800023e:	f031 4c00 	bicsne.w	ip, r1, #2147483648	; 0x80000000
 8000242:	d1d8      	bne.n	80001f6 <__aeabi_fmul+0xc6>
 8000244:	ea80 0001 	eor.w	r0, r0, r1
 8000248:	f000 4000 	and.w	r0, r0, #2147483648	; 0x80000000
 800024c:	4770      	bx	lr
 800024e:	f090 0f00 	teq	r0, #0
 8000252:	bf17      	itett	ne
 8000254:	f090 4f00 	teqne	r0, #2147483648	; 0x80000000
 8000258:	4608      	moveq	r0, r1
 800025a:	f091 0f00 	teqne	r1, #0
 800025e:	f091 4f00 	teqne	r1, #2147483648	; 0x80000000
 8000262:	d014      	beq.n	800028e <__aeabi_fmul+0x15e>
 8000264:	ea92 0f0c 	teq	r2, ip
 8000268:	d101      	bne.n	800026e <__aeabi_fmul+0x13e>
 800026a:	0242      	lsls	r2, r0, #9
 800026c:	d10f      	bne.n	800028e <__aeabi_fmul+0x15e>
 800026e:	ea93 0f0c 	teq	r3, ip
 8000272:	d103      	bne.n	800027c <__aeabi_fmul+0x14c>
 8000274:	024b      	lsls	r3, r1, #9
 8000276:	bf18      	it	ne
 8000278:	4608      	movne	r0, r1
 800027a:	d108      	bne.n	800028e <__aeabi_fmul+0x15e>
 800027c:	ea80 0001 	eor.w	r0, r0, r1
 8000280:	f000 4000 	and.w	r0, r0, #2147483648	; 0x80000000
 8000284:	f040 40fe 	orr.w	r0, r0, #2130706432	; 0x7f000000
 8000288:	f440 0000 	orr.w	r0, r0, #8388608	; 0x800000
 800028c:	4770      	bx	lr
 800028e:	f040 40fe 	orr.w	r0, r0, #2130706432	; 0x7f000000
 8000292:	f440 0040 	orr.w	r0, r0, #12582912	; 0xc00000
 8000296:	4770      	bx	lr

08000298 <__aeabi_d2f>:
 8000298:	ea4f 0241 	mov.w	r2, r1, lsl #1
 800029c:	f1b2 43e0 	subs.w	r3, r2, #1879048192	; 0x70000000
 80002a0:	bf24      	itt	cs
 80002a2:	f5b3 1c00 	subscs.w	ip, r3, #2097152	; 0x200000
 80002a6:	f1dc 5cfe 	rsbscs	ip, ip, #532676608	; 0x1fc00000
 80002aa:	d90d      	bls.n	80002c8 <__aeabi_d2f+0x30>
 80002ac:	f001 4c00 	and.w	ip, r1, #2147483648	; 0x80000000
 80002b0:	ea4f 02c0 	mov.w	r2, r0, lsl #3
 80002b4:	ea4c 7050 	orr.w	r0, ip, r0, lsr #29
 80002b8:	f1b2 4f00 	cmp.w	r2, #2147483648	; 0x80000000
 80002bc:	eb40 0083 	adc.w	r0, r0, r3, lsl #2
 80002c0:	bf08      	it	eq
 80002c2:	f020 0001 	biceq.w	r0, r0, #1
 80002c6:	4770      	bx	lr
 80002c8:	f011 4f80 	tst.w	r1, #1073741824	; 0x40000000
 80002cc:	d121      	bne.n	8000312 <__aeabi_d2f+0x7a>
 80002ce:	f113 7238 	adds.w	r2, r3, #48234496	; 0x2e00000
 80002d2:	bfbc      	itt	lt
 80002d4:	f001 4000 	andlt.w	r0, r1, #2147483648	; 0x80000000
 80002d8:	4770      	bxlt	lr
 80002da:	f441 1180 	orr.w	r1, r1, #1048576	; 0x100000
 80002de:	ea4f 5252 	mov.w	r2, r2, lsr #21
 80002e2:	f1c2 0218 	rsb	r2, r2, #24
 80002e6:	f1c2 0c20 	rsb	ip, r2, #32
 80002ea:	fa10 f30c 	lsls.w	r3, r0, ip
 80002ee:	fa20 f002 	lsr.w	r0, r0, r2
 80002f2:	bf18      	it	ne
 80002f4:	f040 0001 	orrne.w	r0, r0, #1
 80002f8:	ea4f 23c1 	mov.w	r3, r1, lsl #11
 80002fc:	ea4f 23d3 	mov.w	r3, r3, lsr #11
 8000300:	fa03 fc0c 	lsl.w	ip, r3, ip
 8000304:	ea40 000c 	orr.w	r0, r0, ip
 8000308:	fa23 f302 	lsr.w	r3, r3, r2
 800030c:	ea4f 0343 	mov.w	r3, r3, lsl #1
 8000310:	e7cc      	b.n	80002ac <__aeabi_d2f+0x14>
 8000312:	ea7f 5362 	mvns.w	r3, r2, asr #21
 8000316:	d107      	bne.n	8000328 <__aeabi_d2f+0x90>
 8000318:	ea50 3301 	orrs.w	r3, r0, r1, lsl #12
 800031c:	bf1e      	ittt	ne
 800031e:	f04f 40fe 	movne.w	r0, #2130706432	; 0x7f000000
 8000322:	f440 0040 	orrne.w	r0, r0, #12582912	; 0xc00000
 8000326:	4770      	bxne	lr
 8000328:	f001 4000 	and.w	r0, r1, #2147483648	; 0x80000000
 800032c:	f040 40fe 	orr.w	r0, r0, #2130706432	; 0x7f000000
 8000330:	f440 0000 	orr.w	r0, r0, #8388608	; 0x800000
 8000334:	4770      	bx	lr
 8000336:	bf00      	nop

08000338 <__aeabi_frsub>:
 8000338:	f080 4000 	eor.w	r0, r0, #2147483648	; 0x80000000
 800033c:	e002      	b.n	8000344 <__addsf3>
 800033e:	bf00      	nop

08000340 <__aeabi_fsub>:
 8000340:	f081 4100 	eor.w	r1, r1, #2147483648	; 0x80000000

08000344 <__addsf3>:
 8000344:	0042      	lsls	r2, r0, #1
 8000346:	bf1f      	itttt	ne
 8000348:	ea5f 0341 	movsne.w	r3, r1, lsl #1
 800034c:	ea92 0f03 	teqne	r2, r3
 8000350:	ea7f 6c22 	mvnsne.w	ip, r2, asr #24
 8000354:	ea7f 6c23 	mvnsne.w	ip, r3, asr #24
 8000358:	d06a      	beq.n	8000430 <__addsf3+0xec>
 800035a:	ea4f 6212 	mov.w	r2, r2, lsr #24
 800035e:	ebd2 6313 	rsbs	r3, r2, r3, lsr #24
 8000362:	bfc1      	itttt	gt
 8000364:	18d2      	addgt	r2, r2, r3
 8000366:	4041      	eorgt	r1, r0
 8000368:	4048      	eorgt	r0, r1
 800036a:	4041      	eorgt	r1, r0
 800036c:	bfb8      	it	lt
 800036e:	425b      	neglt	r3, r3
 8000370:	2b19      	cmp	r3, #25
 8000372:	bf88      	it	hi
 8000374:	4770      	bxhi	lr
 8000376:	f010 4f00 	tst.w	r0, #2147483648	; 0x80000000
 800037a:	f440 0000 	orr.w	r0, r0, #8388608	; 0x800000
 800037e:	f020 407f 	bic.w	r0, r0, #4278190080	; 0xff000000
 8000382:	bf18      	it	ne
 8000384:	4240      	negne	r0, r0
 8000386:	f011 4f00 	tst.w	r1, #2147483648	; 0x80000000
 800038a:	f441 0100 	orr.w	r1, r1, #8388608	; 0x800000
 800038e:	f021 417f 	bic.w	r1, r1, #4278190080	; 0xff000000
 8000392:	bf18      	it	ne
 8000394:	4249      	negne	r1, r1
 8000396:	ea92 0f03 	teq	r2, r3
 800039a:	d03f      	beq.n	800041c <__addsf3+0xd8>
 800039c:	f1a2 0201 	sub.w	r2, r2, #1
 80003a0:	fa41 fc03 	asr.w	ip, r1, r3
 80003a4:	eb10 000c 	adds.w	r0, r0, ip
 80003a8:	f1c3 0320 	rsb	r3, r3, #32
 80003ac:	fa01 f103 	lsl.w	r1, r1, r3
 80003b0:	f000 4300 	and.w	r3, r0, #2147483648	; 0x80000000
 80003b4:	d502      	bpl.n	80003bc <__addsf3+0x78>
 80003b6:	4249      	negs	r1, r1
 80003b8:	eb60 0040 	sbc.w	r0, r0, r0, lsl #1
 80003bc:	f5b0 0f00 	cmp.w	r0, #8388608	; 0x800000
 80003c0:	d313      	bcc.n	80003ea <__addsf3+0xa6>
 80003c2:	f1b0 7f80 	cmp.w	r0, #16777216	; 0x1000000
 80003c6:	d306      	bcc.n	80003d6 <__addsf3+0x92>
 80003c8:	0840      	lsrs	r0, r0, #1
 80003ca:	ea4f 0131 	mov.w	r1, r1, rrx
 80003ce:	f102 0201 	add.w	r2, r2, #1
 80003d2:	2afe      	cmp	r2, #254	; 0xfe
 80003d4:	d251      	bcs.n	800047a <__addsf3+0x136>
 80003d6:	f1b1 4f00 	cmp.w	r1, #2147483648	; 0x80000000
 80003da:	eb40 50c2 	adc.w	r0, r0, r2, lsl #23
 80003de:	bf08      	it	eq
 80003e0:	f020 0001 	biceq.w	r0, r0, #1
 80003e4:	ea40 0003 	orr.w	r0, r0, r3
 80003e8:	4770      	bx	lr
 80003ea:	0049      	lsls	r1, r1, #1
 80003ec:	eb40 0000 	adc.w	r0, r0, r0
 80003f0:	3a01      	subs	r2, #1
 80003f2:	bf28      	it	cs
 80003f4:	f5b0 0f00 	cmpcs.w	r0, #8388608	; 0x800000
 80003f8:	d2ed      	bcs.n	80003d6 <__addsf3+0x92>
 80003fa:	fab0 fc80 	clz	ip, r0
 80003fe:	f1ac 0c08 	sub.w	ip, ip, #8
 8000402:	ebb2 020c 	subs.w	r2, r2, ip
 8000406:	fa00 f00c 	lsl.w	r0, r0, ip
 800040a:	bfaa      	itet	ge
 800040c:	eb00 50c2 	addge.w	r0, r0, r2, lsl #23
 8000410:	4252      	neglt	r2, r2
 8000412:	4318      	orrge	r0, r3
 8000414:	bfbc      	itt	lt
 8000416:	40d0      	lsrlt	r0, r2
 8000418:	4318      	orrlt	r0, r3
 800041a:	4770      	bx	lr
 800041c:	f092 0f00 	teq	r2, #0
 8000420:	f481 0100 	eor.w	r1, r1, #8388608	; 0x800000
 8000424:	bf06      	itte	eq
 8000426:	f480 0000 	eoreq.w	r0, r0, #8388608	; 0x800000
 800042a:	3201      	addeq	r2, #1
 800042c:	3b01      	subne	r3, #1
 800042e:	e7b5      	b.n	800039c <__addsf3+0x58>
 8000430:	ea4f 0341 	mov.w	r3, r1, lsl #1
 8000434:	ea7f 6c22 	mvns.w	ip, r2, asr #24
 8000438:	bf18      	it	ne
 800043a:	ea7f 6c23 	mvnsne.w	ip, r3, asr #24
 800043e:	d021      	beq.n	8000484 <__addsf3+0x140>
 8000440:	ea92 0f03 	teq	r2, r3
 8000444:	d004      	beq.n	8000450 <__addsf3+0x10c>
 8000446:	f092 0f00 	teq	r2, #0
 800044a:	bf08      	it	eq
 800044c:	4608      	moveq	r0, r1
 800044e:	4770      	bx	lr
 8000450:	ea90 0f01 	teq	r0, r1
 8000454:	bf1c      	itt	ne
 8000456:	2000      	movne	r0, #0
 8000458:	4770      	bxne	lr
 800045a:	f012 4f7f 	tst.w	r2, #4278190080	; 0xff000000
 800045e:	d104      	bne.n	800046a <__addsf3+0x126>
 8000460:	0040      	lsls	r0, r0, #1
 8000462:	bf28      	it	cs
 8000464:	f040 4000 	orrcs.w	r0, r0, #2147483648	; 0x80000000
 8000468:	4770      	bx	lr
 800046a:	f112 7200 	adds.w	r2, r2, #33554432	; 0x2000000
 800046e:	bf3c      	itt	cc
 8000470:	f500 0000 	addcc.w	r0, r0, #8388608	; 0x800000
 8000474:	4770      	bxcc	lr
 8000476:	f000 4300 	and.w	r3, r0, #2147483648	; 0x80000000
 800047a:	f043 40fe 	orr.w	r0, r3, #2130706432	; 0x7f000000
 800047e:	f440 0000 	orr.w	r0, r0, #8388608	; 0x800000
 8000482:	4770      	bx	lr
 8000484:	ea7f 6222 	mvns.w	r2, r2, asr #24
 8000488:	bf16      	itet	ne
 800048a:	4608      	movne	r0, r1
 800048c:	ea7f 6323 	mvnseq.w	r3, r3, asr #24
 8000490:	4601      	movne	r1, r0
 8000492:	0242      	lsls	r2, r0, #9
 8000494:	bf06      	itte	eq
 8000496:	ea5f 2341 	movseq.w	r3, r1, lsl #9
 800049a:	ea90 0f01 	teqeq	r0, r1
 800049e:	f440 0080 	orrne.w	r0, r0, #4194304	; 0x400000
 80004a2:	4770      	bx	lr

080004a4 <__aeabi_ui2f>:
 80004a4:	f04f 0300 	mov.w	r3, #0
 80004a8:	e004      	b.n	80004b4 <__aeabi_i2f+0x8>
 80004aa:	bf00      	nop

080004ac <__aeabi_i2f>:
 80004ac:	f010 4300 	ands.w	r3, r0, #2147483648	; 0x80000000
 80004b0:	bf48      	it	mi
 80004b2:	4240      	negmi	r0, r0
 80004b4:	ea5f 0c00 	movs.w	ip, r0
 80004b8:	bf08      	it	eq
 80004ba:	4770      	bxeq	lr
 80004bc:	f043 4396 	orr.w	r3, r3, #1258291200	; 0x4b000000
 80004c0:	4601      	mov	r1, r0
 80004c2:	f04f 0000 	mov.w	r0, #0
 80004c6:	e01c      	b.n	8000502 <__aeabi_l2f+0x2a>

080004c8 <__aeabi_ul2f>:
 80004c8:	ea50 0201 	orrs.w	r2, r0, r1
 80004cc:	bf08      	it	eq
 80004ce:	4770      	bxeq	lr
 80004d0:	f04f 0300 	mov.w	r3, #0
 80004d4:	e00a      	b.n	80004ec <__aeabi_l2f+0x14>
 80004d6:	bf00      	nop

080004d8 <__aeabi_l2f>:
 80004d8:	ea50 0201 	orrs.w	r2, r0, r1
 80004dc:	bf08      	it	eq
 80004de:	4770      	bxeq	lr
 80004e0:	f011 4300 	ands.w	r3, r1, #2147483648	; 0x80000000
 80004e4:	d502      	bpl.n	80004ec <__aeabi_l2f+0x14>
 80004e6:	4240      	negs	r0, r0
 80004e8:	eb61 0141 	sbc.w	r1, r1, r1, lsl #1
 80004ec:	ea5f 0c01 	movs.w	ip, r1
 80004f0:	bf02      	ittt	eq
 80004f2:	4684      	moveq	ip, r0
 80004f4:	4601      	moveq	r1, r0
 80004f6:	2000      	moveq	r0, #0
 80004f8:	f043 43b6 	orr.w	r3, r3, #1526726656	; 0x5b000000
 80004fc:	bf08      	it	eq
 80004fe:	f1a3 5380 	subeq.w	r3, r3, #268435456	; 0x10000000
 8000502:	f5a3 0300 	sub.w	r3, r3, #8388608	; 0x800000
 8000506:	fabc f28c 	clz	r2, ip
 800050a:	3a08      	subs	r2, #8
 800050c:	eba3 53c2 	sub.w	r3, r3, r2, lsl #23
 8000510:	db10      	blt.n	8000534 <__aeabi_l2f+0x5c>
 8000512:	fa01 fc02 	lsl.w	ip, r1, r2
 8000516:	4463      	add	r3, ip
 8000518:	fa00 fc02 	lsl.w	ip, r0, r2
 800051c:	f1c2 0220 	rsb	r2, r2, #32
 8000520:	f1bc 4f00 	cmp.w	ip, #2147483648	; 0x80000000
 8000524:	fa20 f202 	lsr.w	r2, r0, r2
 8000528:	eb43 0002 	adc.w	r0, r3, r2
 800052c:	bf08      	it	eq
 800052e:	f020 0001 	biceq.w	r0, r0, #1
 8000532:	4770      	bx	lr
 8000534:	f102 0220 	add.w	r2, r2, #32
 8000538:	fa01 fc02 	lsl.w	ip, r1, r2
 800053c:	f1c2 0220 	rsb	r2, r2, #32
 8000540:	ea50 004c 	orrs.w	r0, r0, ip, lsl #1
 8000544:	fa21 f202 	lsr.w	r2, r1, r2
 8000548:	eb43 0002 	adc.w	r0, r3, r2
 800054c:	bf08      	it	eq
 800054e:	ea20 70dc 	biceq.w	r0, r0, ip, lsr #31
 8000552:	4770      	bx	lr

08000554 <__gesf2>:
 8000554:	f04f 3cff 	mov.w	ip, #4294967295	; 0xffffffff
 8000558:	e006      	b.n	8000568 <__cmpsf2+0x4>
 800055a:	bf00      	nop

0800055c <__lesf2>:
 800055c:	f04f 0c01 	mov.w	ip, #1
 8000560:	e002      	b.n	8000568 <__cmpsf2+0x4>
 8000562:	bf00      	nop

08000564 <__cmpsf2>:
 8000564:	f04f 0c01 	mov.w	ip, #1
 8000568:	f84d cd04 	str.w	ip, [sp, #-4]!
 800056c:	ea4f 0240 	mov.w	r2, r0, lsl #1
 8000570:	ea4f 0341 	mov.w	r3, r1, lsl #1
 8000574:	ea7f 6c22 	mvns.w	ip, r2, asr #24
 8000578:	bf18      	it	ne
 800057a:	ea7f 6c23 	mvnsne.w	ip, r3, asr #24
 800057e:	d011      	beq.n	80005a4 <__cmpsf2+0x40>
 8000580:	b001      	add	sp, #4
 8000582:	ea52 0c53 	orrs.w	ip, r2, r3, lsr #1
 8000586:	bf18      	it	ne
 8000588:	ea90 0f01 	teqne	r0, r1
 800058c:	bf58      	it	pl
 800058e:	ebb2 0003 	subspl.w	r0, r2, r3
 8000592:	bf88      	it	hi
 8000594:	17c8      	asrhi	r0, r1, #31
 8000596:	bf38      	it	cc
 8000598:	ea6f 70e1 	mvncc.w	r0, r1, asr #31
 800059c:	bf18      	it	ne
 800059e:	f040 0001 	orrne.w	r0, r0, #1
 80005a2:	4770      	bx	lr
 80005a4:	ea7f 6c22 	mvns.w	ip, r2, asr #24
 80005a8:	d102      	bne.n	80005b0 <__cmpsf2+0x4c>
 80005aa:	ea5f 2c40 	movs.w	ip, r0, lsl #9
 80005ae:	d105      	bne.n	80005bc <__cmpsf2+0x58>
 80005b0:	ea7f 6c23 	mvns.w	ip, r3, asr #24
 80005b4:	d1e4      	bne.n	8000580 <__cmpsf2+0x1c>
 80005b6:	ea5f 2c41 	movs.w	ip, r1, lsl #9
 80005ba:	d0e1      	beq.n	8000580 <__cmpsf2+0x1c>
 80005bc:	f85d 0b04 	ldr.w	r0, [sp], #4
 80005c0:	4770      	bx	lr
 80005c2:	bf00      	nop

080005c4 <__aeabi_cfrcmple>:
 80005c4:	4684      	mov	ip, r0
 80005c6:	4608      	mov	r0, r1
 80005c8:	4661      	mov	r1, ip
 80005ca:	e7ff      	b.n	80005cc <__aeabi_cfcmpeq>

080005cc <__aeabi_cfcmpeq>:
 80005cc:	b50f      	push	{r0, r1, r2, r3, lr}
 80005ce:	f7ff ffc9 	bl	8000564 <__cmpsf2>
 80005d2:	2800      	cmp	r0, #0
 80005d4:	bf48      	it	mi
 80005d6:	f110 0f00 	cmnmi.w	r0, #0
 80005da:	bd0f      	pop	{r0, r1, r2, r3, pc}

080005dc <__aeabi_fcmpeq>:
 80005dc:	f84d ed08 	str.w	lr, [sp, #-8]!
 80005e0:	f7ff fff4 	bl	80005cc <__aeabi_cfcmpeq>
 80005e4:	bf0c      	ite	eq
 80005e6:	2001      	moveq	r0, #1
 80005e8:	2000      	movne	r0, #0
 80005ea:	f85d fb08 	ldr.w	pc, [sp], #8
 80005ee:	bf00      	nop

080005f0 <__aeabi_fcmplt>:
 80005f0:	f84d ed08 	str.w	lr, [sp, #-8]!
 80005f4:	f7ff ffea 	bl	80005cc <__aeabi_cfcmpeq>
 80005f8:	bf34      	ite	cc
 80005fa:	2001      	movcc	r0, #1
 80005fc:	2000      	movcs	r0, #0
 80005fe:	f85d fb08 	ldr.w	pc, [sp], #8
 8000602:	bf00      	nop

08000604 <__aeabi_fcmple>:
 8000604:	f84d ed08 	str.w	lr, [sp, #-8]!
 8000608:	f7ff ffe0 	bl	80005cc <__aeabi_cfcmpeq>
 800060c:	bf94      	ite	ls
 800060e:	2001      	movls	r0, #1
 8000610:	2000      	movhi	r0, #0
 8000612:	f85d fb08 	ldr.w	pc, [sp], #8
 8000616:	bf00      	nop

08000618 <__aeabi_fcmpge>:
 8000618:	f84d ed08 	str.w	lr, [sp, #-8]!
 800061c:	f7ff ffd2 	bl	80005c4 <__aeabi_cfrcmple>
 8000620:	bf94      	ite	ls
 8000622:	2001      	movls	r0, #1
 8000624:	2000      	movhi	r0, #0
 8000626:	f85d fb08 	ldr.w	pc, [sp], #8
 800062a:	bf00      	nop

0800062c <__aeabi_fcmpgt>:
 800062c:	f84d ed08 	str.w	lr, [sp, #-8]!
 8000630:	f7ff ffc8 	bl	80005c4 <__aeabi_cfrcmple>
 8000634:	bf34      	ite	cc
 8000636:	2001      	movcc	r0, #1
 8000638:	2000      	movcs	r0, #0
 800063a:	f85d fb08 	ldr.w	pc, [sp], #8
 800063e:	bf00      	nop

08000640 <__aeabi_f2iz>:
 8000640:	ea4f 0240 	mov.w	r2, r0, lsl #1
 8000644:	f1b2 4ffe 	cmp.w	r2, #2130706432	; 0x7f000000
 8000648:	d30f      	bcc.n	800066a <__aeabi_f2iz+0x2a>
 800064a:	f04f 039e 	mov.w	r3, #158	; 0x9e
 800064e:	ebb3 6212 	subs.w	r2, r3, r2, lsr #24
 8000652:	d90d      	bls.n	8000670 <__aeabi_f2iz+0x30>
 8000654:	ea4f 2300 	mov.w	r3, r0, lsl #8
 8000658:	f043 4300 	orr.w	r3, r3, #2147483648	; 0x80000000
 800065c:	f010 4f00 	tst.w	r0, #2147483648	; 0x80000000
 8000660:	fa23 f002 	lsr.w	r0, r3, r2
 8000664:	bf18      	it	ne
 8000666:	4240      	negne	r0, r0
 8000668:	4770      	bx	lr
 800066a:	f04f 0000 	mov.w	r0, #0
 800066e:	4770      	bx	lr
 8000670:	f112 0f61 	cmn.w	r2, #97	; 0x61
 8000674:	d101      	bne.n	800067a <__aeabi_f2iz+0x3a>
 8000676:	0242      	lsls	r2, r0, #9
 8000678:	d105      	bne.n	8000686 <__aeabi_f2iz+0x46>
 800067a:	f010 4000 	ands.w	r0, r0, #2147483648	; 0x80000000
 800067e:	bf08      	it	eq
 8000680:	f06f 4000 	mvneq.w	r0, #2147483648	; 0x80000000
 8000684:	4770      	bx	lr
 8000686:	f04f 0000 	mov.w	r0, #0
 800068a:	4770      	bx	lr

0800068c <__aeabi_uldivmod>:
 800068c:	b953      	cbnz	r3, 80006a4 <__aeabi_uldivmod+0x18>
 800068e:	b94a      	cbnz	r2, 80006a4 <__aeabi_uldivmod+0x18>
 8000690:	2900      	cmp	r1, #0
 8000692:	bf08      	it	eq
 8000694:	2800      	cmpeq	r0, #0
 8000696:	bf1c      	itt	ne
 8000698:	f04f 31ff 	movne.w	r1, #4294967295	; 0xffffffff
 800069c:	f04f 30ff 	movne.w	r0, #4294967295	; 0xffffffff
 80006a0:	f000 b976 	b.w	8000990 <__aeabi_idiv0>
 80006a4:	f1ad 0c08 	sub.w	ip, sp, #8
 80006a8:	e96d ce04 	strd	ip, lr, [sp, #-16]!
 80006ac:	f000 f806 	bl	80006bc <__udivmoddi4>
 80006b0:	f8dd e004 	ldr.w	lr, [sp, #4]
 80006b4:	e9dd 2302 	ldrd	r2, r3, [sp, #8]
 80006b8:	b004      	add	sp, #16
 80006ba:	4770      	bx	lr

080006bc <__udivmoddi4>:
 80006bc:	e92d 47f0 	stmdb	sp!, {r4, r5, r6, r7, r8, r9, sl, lr}
 80006c0:	9e08      	ldr	r6, [sp, #32]
 80006c2:	460d      	mov	r5, r1
 80006c4:	4604      	mov	r4, r0
 80006c6:	4688      	mov	r8, r1
 80006c8:	2b00      	cmp	r3, #0
 80006ca:	d14d      	bne.n	8000768 <__udivmoddi4+0xac>
 80006cc:	428a      	cmp	r2, r1
 80006ce:	4694      	mov	ip, r2
 80006d0:	d968      	bls.n	80007a4 <__udivmoddi4+0xe8>
 80006d2:	fab2 f282 	clz	r2, r2
 80006d6:	b152      	cbz	r2, 80006ee <__udivmoddi4+0x32>
 80006d8:	fa01 f302 	lsl.w	r3, r1, r2
 80006dc:	f1c2 0120 	rsb	r1, r2, #32
 80006e0:	fa20 f101 	lsr.w	r1, r0, r1
 80006e4:	fa0c fc02 	lsl.w	ip, ip, r2
 80006e8:	ea41 0803 	orr.w	r8, r1, r3
 80006ec:	4094      	lsls	r4, r2
 80006ee:	ea4f 411c 	mov.w	r1, ip, lsr #16
 80006f2:	fbb8 f7f1 	udiv	r7, r8, r1
 80006f6:	fa1f fe8c 	uxth.w	lr, ip
 80006fa:	fb01 8817 	mls	r8, r1, r7, r8
 80006fe:	fb07 f00e 	mul.w	r0, r7, lr
 8000702:	0c23      	lsrs	r3, r4, #16
 8000704:	ea43 4308 	orr.w	r3, r3, r8, lsl #16
 8000708:	4298      	cmp	r0, r3
 800070a:	d90a      	bls.n	8000722 <__udivmoddi4+0x66>
 800070c:	eb1c 0303 	adds.w	r3, ip, r3
 8000710:	f107 35ff 	add.w	r5, r7, #4294967295	; 0xffffffff
 8000714:	f080 811e 	bcs.w	8000954 <__udivmoddi4+0x298>
 8000718:	4298      	cmp	r0, r3
 800071a:	f240 811b 	bls.w	8000954 <__udivmoddi4+0x298>
 800071e:	3f02      	subs	r7, #2
 8000720:	4463      	add	r3, ip
 8000722:	1a1b      	subs	r3, r3, r0
 8000724:	fbb3 f0f1 	udiv	r0, r3, r1
 8000728:	fb01 3310 	mls	r3, r1, r0, r3
 800072c:	fb00 fe0e 	mul.w	lr, r0, lr
 8000730:	b2a4      	uxth	r4, r4
 8000732:	ea44 4403 	orr.w	r4, r4, r3, lsl #16
 8000736:	45a6      	cmp	lr, r4
 8000738:	d90a      	bls.n	8000750 <__udivmoddi4+0x94>
 800073a:	eb1c 0404 	adds.w	r4, ip, r4
 800073e:	f100 33ff 	add.w	r3, r0, #4294967295	; 0xffffffff
 8000742:	f080 8109 	bcs.w	8000958 <__udivmoddi4+0x29c>
 8000746:	45a6      	cmp	lr, r4
 8000748:	f240 8106 	bls.w	8000958 <__udivmoddi4+0x29c>
 800074c:	4464      	add	r4, ip
 800074e:	3802      	subs	r0, #2
 8000750:	2100      	movs	r1, #0
 8000752:	eba4 040e 	sub.w	r4, r4, lr
 8000756:	ea40 4007 	orr.w	r0, r0, r7, lsl #16
 800075a:	b11e      	cbz	r6, 8000764 <__udivmoddi4+0xa8>
 800075c:	2300      	movs	r3, #0
 800075e:	40d4      	lsrs	r4, r2
 8000760:	e9c6 4300 	strd	r4, r3, [r6]
 8000764:	e8bd 87f0 	ldmia.w	sp!, {r4, r5, r6, r7, r8, r9, sl, pc}
 8000768:	428b      	cmp	r3, r1
 800076a:	d908      	bls.n	800077e <__udivmoddi4+0xc2>
 800076c:	2e00      	cmp	r6, #0
 800076e:	f000 80ee 	beq.w	800094e <__udivmoddi4+0x292>
 8000772:	2100      	movs	r1, #0
 8000774:	e9c6 0500 	strd	r0, r5, [r6]
 8000778:	4608      	mov	r0, r1
 800077a:	e8bd 87f0 	ldmia.w	sp!, {r4, r5, r6, r7, r8, r9, sl, pc}
 800077e:	fab3 f183 	clz	r1, r3
 8000782:	2900      	cmp	r1, #0
 8000784:	d14a      	bne.n	800081c <__udivmoddi4+0x160>
 8000786:	42ab      	cmp	r3, r5
 8000788:	d302      	bcc.n	8000790 <__udivmoddi4+0xd4>
 800078a:	4282      	cmp	r2, r0
 800078c:	f200 80fc 	bhi.w	8000988 <__udivmoddi4+0x2cc>
 8000790:	1a84      	subs	r4, r0, r2
 8000792:	eb65 0303 	sbc.w	r3, r5, r3
 8000796:	2001      	movs	r0, #1
 8000798:	4698      	mov	r8, r3
 800079a:	2e00      	cmp	r6, #0
 800079c:	d0e2      	beq.n	8000764 <__udivmoddi4+0xa8>
 800079e:	e9c6 4800 	strd	r4, r8, [r6]
 80007a2:	e7df      	b.n	8000764 <__udivmoddi4+0xa8>
 80007a4:	b902      	cbnz	r2, 80007a8 <__udivmoddi4+0xec>
 80007a6:	deff      	udf	#255	; 0xff
 80007a8:	fab2 f282 	clz	r2, r2
 80007ac:	2a00      	cmp	r2, #0
 80007ae:	f040 8091 	bne.w	80008d4 <__udivmoddi4+0x218>
 80007b2:	eba1 000c 	sub.w	r0, r1, ip
 80007b6:	2101      	movs	r1, #1
 80007b8:	ea4f 471c 	mov.w	r7, ip, lsr #16
 80007bc:	fa1f fe8c 	uxth.w	lr, ip
 80007c0:	fbb0 f3f7 	udiv	r3, r0, r7
 80007c4:	fb07 0013 	mls	r0, r7, r3, r0
 80007c8:	0c25      	lsrs	r5, r4, #16
 80007ca:	ea45 4500 	orr.w	r5, r5, r0, lsl #16
 80007ce:	fb0e f003 	mul.w	r0, lr, r3
 80007d2:	42a8      	cmp	r0, r5
 80007d4:	d908      	bls.n	80007e8 <__udivmoddi4+0x12c>
 80007d6:	eb1c 0505 	adds.w	r5, ip, r5
 80007da:	f103 38ff 	add.w	r8, r3, #4294967295	; 0xffffffff
 80007de:	d202      	bcs.n	80007e6 <__udivmoddi4+0x12a>
 80007e0:	42a8      	cmp	r0, r5
 80007e2:	f200 80ce 	bhi.w	8000982 <__udivmoddi4+0x2c6>
 80007e6:	4643      	mov	r3, r8
 80007e8:	1a2d      	subs	r5, r5, r0
 80007ea:	fbb5 f0f7 	udiv	r0, r5, r7
 80007ee:	fb07 5510 	mls	r5, r7, r0, r5
 80007f2:	fb0e fe00 	mul.w	lr, lr, r0
 80007f6:	b2a4      	uxth	r4, r4
 80007f8:	ea44 4405 	orr.w	r4, r4, r5, lsl #16
 80007fc:	45a6      	cmp	lr, r4
 80007fe:	d908      	bls.n	8000812 <__udivmoddi4+0x156>
 8000800:	eb1c 0404 	adds.w	r4, ip, r4
 8000804:	f100 35ff 	add.w	r5, r0, #4294967295	; 0xffffffff
 8000808:	d202      	bcs.n	8000810 <__udivmoddi4+0x154>
 800080a:	45a6      	cmp	lr, r4
 800080c:	f200 80b6 	bhi.w	800097c <__udivmoddi4+0x2c0>
 8000810:	4628      	mov	r0, r5
 8000812:	eba4 040e 	sub.w	r4, r4, lr
 8000816:	ea40 4003 	orr.w	r0, r0, r3, lsl #16
 800081a:	e79e      	b.n	800075a <__udivmoddi4+0x9e>
 800081c:	f1c1 0720 	rsb	r7, r1, #32
 8000820:	408b      	lsls	r3, r1
 8000822:	fa22 fc07 	lsr.w	ip, r2, r7
 8000826:	ea4c 0c03 	orr.w	ip, ip, r3
 800082a:	fa25 fa07 	lsr.w	sl, r5, r7
 800082e:	ea4f 491c 	mov.w	r9, ip, lsr #16
 8000832:	fbba f8f9 	udiv	r8, sl, r9
 8000836:	fa20 f307 	lsr.w	r3, r0, r7
 800083a:	fb09 aa18 	mls	sl, r9, r8, sl
 800083e:	408d      	lsls	r5, r1
 8000840:	fa1f fe8c 	uxth.w	lr, ip
 8000844:	431d      	orrs	r5, r3
 8000846:	fa00 f301 	lsl.w	r3, r0, r1
 800084a:	fb08 f00e 	mul.w	r0, r8, lr
 800084e:	0c2c      	lsrs	r4, r5, #16
 8000850:	ea44 440a 	orr.w	r4, r4, sl, lsl #16
 8000854:	42a0      	cmp	r0, r4
 8000856:	fa02 f201 	lsl.w	r2, r2, r1
 800085a:	d90b      	bls.n	8000874 <__udivmoddi4+0x1b8>
 800085c:	eb1c 0404 	adds.w	r4, ip, r4
 8000860:	f108 3aff 	add.w	sl, r8, #4294967295	; 0xffffffff
 8000864:	f080 8088 	bcs.w	8000978 <__udivmoddi4+0x2bc>
 8000868:	42a0      	cmp	r0, r4
 800086a:	f240 8085 	bls.w	8000978 <__udivmoddi4+0x2bc>
 800086e:	f1a8 0802 	sub.w	r8, r8, #2
 8000872:	4464      	add	r4, ip
 8000874:	1a24      	subs	r4, r4, r0
 8000876:	fbb4 f0f9 	udiv	r0, r4, r9
 800087a:	fb09 4410 	mls	r4, r9, r0, r4
 800087e:	fb00 fe0e 	mul.w	lr, r0, lr
 8000882:	b2ad      	uxth	r5, r5
 8000884:	ea45 4404 	orr.w	r4, r5, r4, lsl #16
 8000888:	45a6      	cmp	lr, r4
 800088a:	d908      	bls.n	800089e <__udivmoddi4+0x1e2>
 800088c:	eb1c 0404 	adds.w	r4, ip, r4
 8000890:	f100 35ff 	add.w	r5, r0, #4294967295	; 0xffffffff
 8000894:	d26c      	bcs.n	8000970 <__udivmoddi4+0x2b4>
 8000896:	45a6      	cmp	lr, r4
 8000898:	d96a      	bls.n	8000970 <__udivmoddi4+0x2b4>
 800089a:	3802      	subs	r0, #2
 800089c:	4464      	add	r4, ip
 800089e:	ea40 4008 	orr.w	r0, r0, r8, lsl #16
 80008a2:	fba0 9502 	umull	r9, r5, r0, r2
 80008a6:	eba4 040e 	sub.w	r4, r4, lr
 80008aa:	42ac      	cmp	r4, r5
 80008ac:	46c8      	mov	r8, r9
 80008ae:	46ae      	mov	lr, r5
 80008b0:	d356      	bcc.n	8000960 <__udivmoddi4+0x2a4>
 80008b2:	d053      	beq.n	800095c <__udivmoddi4+0x2a0>
 80008b4:	2e00      	cmp	r6, #0
 80008b6:	d069      	beq.n	800098c <__udivmoddi4+0x2d0>
 80008b8:	ebb3 0208 	subs.w	r2, r3, r8
 80008bc:	eb64 040e 	sbc.w	r4, r4, lr
 80008c0:	fa22 f301 	lsr.w	r3, r2, r1
 80008c4:	fa04 f707 	lsl.w	r7, r4, r7
 80008c8:	431f      	orrs	r7, r3
 80008ca:	40cc      	lsrs	r4, r1
 80008cc:	e9c6 7400 	strd	r7, r4, [r6]
 80008d0:	2100      	movs	r1, #0
 80008d2:	e747      	b.n	8000764 <__udivmoddi4+0xa8>
 80008d4:	fa0c fc02 	lsl.w	ip, ip, r2
 80008d8:	f1c2 0120 	rsb	r1, r2, #32
 80008dc:	fa25 f301 	lsr.w	r3, r5, r1
 80008e0:	ea4f 471c 	mov.w	r7, ip, lsr #16
 80008e4:	fa20 f101 	lsr.w	r1, r0, r1
 80008e8:	4095      	lsls	r5, r2
 80008ea:	430d      	orrs	r5, r1
 80008ec:	fbb3 f1f7 	udiv	r1, r3, r7
 80008f0:	fb07 3311 	mls	r3, r7, r1, r3
 80008f4:	fa1f fe8c 	uxth.w	lr, ip
 80008f8:	0c28      	lsrs	r0, r5, #16
 80008fa:	ea40 4003 	orr.w	r0, r0, r3, lsl #16
 80008fe:	fb01 f30e 	mul.w	r3, r1, lr
 8000902:	4283      	cmp	r3, r0
 8000904:	fa04 f402 	lsl.w	r4, r4, r2
 8000908:	d908      	bls.n	800091c <__udivmoddi4+0x260>
 800090a:	eb1c 0000 	adds.w	r0, ip, r0
 800090e:	f101 38ff 	add.w	r8, r1, #4294967295	; 0xffffffff
 8000912:	d22f      	bcs.n	8000974 <__udivmoddi4+0x2b8>
 8000914:	4283      	cmp	r3, r0
 8000916:	d92d      	bls.n	8000974 <__udivmoddi4+0x2b8>
 8000918:	3902      	subs	r1, #2
 800091a:	4460      	add	r0, ip
 800091c:	1ac0      	subs	r0, r0, r3
 800091e:	fbb0 f3f7 	udiv	r3, r0, r7
 8000922:	fb07 0013 	mls	r0, r7, r3, r0
 8000926:	b2ad      	uxth	r5, r5
 8000928:	ea45 4500 	orr.w	r5, r5, r0, lsl #16
 800092c:	fb03 f00e 	mul.w	r0, r3, lr
 8000930:	42a8      	cmp	r0, r5
 8000932:	d908      	bls.n	8000946 <__udivmoddi4+0x28a>
 8000934:	eb1c 0505 	adds.w	r5, ip, r5
 8000938:	f103 38ff 	add.w	r8, r3, #4294967295	; 0xffffffff
 800093c:	d216      	bcs.n	800096c <__udivmoddi4+0x2b0>
 800093e:	42a8      	cmp	r0, r5
 8000940:	d914      	bls.n	800096c <__udivmoddi4+0x2b0>
 8000942:	3b02      	subs	r3, #2
 8000944:	4465      	add	r5, ip
 8000946:	1a28      	subs	r0, r5, r0
 8000948:	ea43 4101 	orr.w	r1, r3, r1, lsl #16
 800094c:	e738      	b.n	80007c0 <__udivmoddi4+0x104>
 800094e:	4631      	mov	r1, r6
 8000950:	4630      	mov	r0, r6
 8000952:	e707      	b.n	8000764 <__udivmoddi4+0xa8>
 8000954:	462f      	mov	r7, r5
 8000956:	e6e4      	b.n	8000722 <__udivmoddi4+0x66>
 8000958:	4618      	mov	r0, r3
 800095a:	e6f9      	b.n	8000750 <__udivmoddi4+0x94>
 800095c:	454b      	cmp	r3, r9
 800095e:	d2a9      	bcs.n	80008b4 <__udivmoddi4+0x1f8>
 8000960:	ebb9 0802 	subs.w	r8, r9, r2
 8000964:	eb65 0e0c 	sbc.w	lr, r5, ip
 8000968:	3801      	subs	r0, #1
 800096a:	e7a3      	b.n	80008b4 <__udivmoddi4+0x1f8>
 800096c:	4643      	mov	r3, r8
 800096e:	e7ea      	b.n	8000946 <__udivmoddi4+0x28a>
 8000970:	4628      	mov	r0, r5
 8000972:	e794      	b.n	800089e <__udivmoddi4+0x1e2>
 8000974:	4641      	mov	r1, r8
 8000976:	e7d1      	b.n	800091c <__udivmoddi4+0x260>
 8000978:	46d0      	mov	r8, sl
 800097a:	e77b      	b.n	8000874 <__udivmoddi4+0x1b8>
 800097c:	4464      	add	r4, ip
 800097e:	3802      	subs	r0, #2
 8000980:	e747      	b.n	8000812 <__udivmoddi4+0x156>
 8000982:	3b02      	subs	r3, #2
 8000984:	4465      	add	r5, ip
 8000986:	e72f      	b.n	80007e8 <__udivmoddi4+0x12c>
 8000988:	4608      	mov	r0, r1
 800098a:	e706      	b.n	800079a <__udivmoddi4+0xde>
 800098c:	4631      	mov	r1, r6
 800098e:	e6e9      	b.n	8000764 <__udivmoddi4+0xa8>

08000990 <__aeabi_idiv0>:
 8000990:	4770      	bx	lr
 8000992:	bf00      	nop

08000994 <__aeabi_drsub>:
 8000994:	f081 4100 	eor.w	r1, r1, #2147483648	; 0x80000000
 8000998:	e002      	b.n	80009a0 <__adddf3>
 800099a:	bf00      	nop

0800099c <__aeabi_dsub>:
 800099c:	f083 4300 	eor.w	r3, r3, #2147483648	; 0x80000000

080009a0 <__adddf3>:
 80009a0:	b530      	push	{r4, r5, lr}
 80009a2:	ea4f 0441 	mov.w	r4, r1, lsl #1
 80009a6:	ea4f 0543 	mov.w	r5, r3, lsl #1
 80009aa:	ea94 0f05 	teq	r4, r5
 80009ae:	bf08      	it	eq
 80009b0:	ea90 0f02 	teqeq	r0, r2
 80009b4:	bf1f      	itttt	ne
 80009b6:	ea54 0c00 	orrsne.w	ip, r4, r0
 80009ba:	ea55 0c02 	orrsne.w	ip, r5, r2
 80009be:	ea7f 5c64 	mvnsne.w	ip, r4, asr #21
 80009c2:	ea7f 5c65 	mvnsne.w	ip, r5, asr #21
 80009c6:	f000 80e2 	beq.w	8000b8e <__adddf3+0x1ee>
 80009ca:	ea4f 5454 	mov.w	r4, r4, lsr #21
 80009ce:	ebd4 5555 	rsbs	r5, r4, r5, lsr #21
 80009d2:	bfb8      	it	lt
 80009d4:	426d      	neglt	r5, r5
 80009d6:	dd0c      	ble.n	80009f2 <__adddf3+0x52>
 80009d8:	442c      	add	r4, r5
 80009da:	ea80 0202 	eor.w	r2, r0, r2
 80009de:	ea81 0303 	eor.w	r3, r1, r3
 80009e2:	ea82 0000 	eor.w	r0, r2, r0
 80009e6:	ea83 0101 	eor.w	r1, r3, r1
 80009ea:	ea80 0202 	eor.w	r2, r0, r2
 80009ee:	ea81 0303 	eor.w	r3, r1, r3
 80009f2:	2d36      	cmp	r5, #54	; 0x36
 80009f4:	bf88      	it	hi
 80009f6:	bd30      	pophi	{r4, r5, pc}
 80009f8:	f011 4f00 	tst.w	r1, #2147483648	; 0x80000000
 80009fc:	ea4f 3101 	mov.w	r1, r1, lsl #12
 8000a00:	f44f 1c80 	mov.w	ip, #1048576	; 0x100000
 8000a04:	ea4c 3111 	orr.w	r1, ip, r1, lsr #12
 8000a08:	d002      	beq.n	8000a10 <__adddf3+0x70>
 8000a0a:	4240      	negs	r0, r0
 8000a0c:	eb61 0141 	sbc.w	r1, r1, r1, lsl #1
 8000a10:	f013 4f00 	tst.w	r3, #2147483648	; 0x80000000
 8000a14:	ea4f 3303 	mov.w	r3, r3, lsl #12
 8000a18:	ea4c 3313 	orr.w	r3, ip, r3, lsr #12
 8000a1c:	d002      	beq.n	8000a24 <__adddf3+0x84>
 8000a1e:	4252      	negs	r2, r2
 8000a20:	eb63 0343 	sbc.w	r3, r3, r3, lsl #1
 8000a24:	ea94 0f05 	teq	r4, r5
 8000a28:	f000 80a7 	beq.w	8000b7a <__adddf3+0x1da>
 8000a2c:	f1a4 0401 	sub.w	r4, r4, #1
 8000a30:	f1d5 0e20 	rsbs	lr, r5, #32
 8000a34:	db0d      	blt.n	8000a52 <__adddf3+0xb2>
 8000a36:	fa02 fc0e 	lsl.w	ip, r2, lr
 8000a3a:	fa22 f205 	lsr.w	r2, r2, r5
 8000a3e:	1880      	adds	r0, r0, r2
 8000a40:	f141 0100 	adc.w	r1, r1, #0
 8000a44:	fa03 f20e 	lsl.w	r2, r3, lr
 8000a48:	1880      	adds	r0, r0, r2
 8000a4a:	fa43 f305 	asr.w	r3, r3, r5
 8000a4e:	4159      	adcs	r1, r3
 8000a50:	e00e      	b.n	8000a70 <__adddf3+0xd0>
 8000a52:	f1a5 0520 	sub.w	r5, r5, #32
 8000a56:	f10e 0e20 	add.w	lr, lr, #32
 8000a5a:	2a01      	cmp	r2, #1
 8000a5c:	fa03 fc0e 	lsl.w	ip, r3, lr
 8000a60:	bf28      	it	cs
 8000a62:	f04c 0c02 	orrcs.w	ip, ip, #2
 8000a66:	fa43 f305 	asr.w	r3, r3, r5
 8000a6a:	18c0      	adds	r0, r0, r3
 8000a6c:	eb51 71e3 	adcs.w	r1, r1, r3, asr #31
 8000a70:	f001 4500 	and.w	r5, r1, #2147483648	; 0x80000000
 8000a74:	d507      	bpl.n	8000a86 <__adddf3+0xe6>
 8000a76:	f04f 0e00 	mov.w	lr, #0
 8000a7a:	f1dc 0c00 	rsbs	ip, ip, #0
 8000a7e:	eb7e 0000 	sbcs.w	r0, lr, r0
 8000a82:	eb6e 0101 	sbc.w	r1, lr, r1
 8000a86:	f5b1 1f80 	cmp.w	r1, #1048576	; 0x100000
 8000a8a:	d31b      	bcc.n	8000ac4 <__adddf3+0x124>
 8000a8c:	f5b1 1f00 	cmp.w	r1, #2097152	; 0x200000
 8000a90:	d30c      	bcc.n	8000aac <__adddf3+0x10c>
 8000a92:	0849      	lsrs	r1, r1, #1
 8000a94:	ea5f 0030 	movs.w	r0, r0, rrx
 8000a98:	ea4f 0c3c 	mov.w	ip, ip, rrx
 8000a9c:	f104 0401 	add.w	r4, r4, #1
 8000aa0:	ea4f 5244 	mov.w	r2, r4, lsl #21
 8000aa4:	f512 0f80 	cmn.w	r2, #4194304	; 0x400000
 8000aa8:	f080 809a 	bcs.w	8000be0 <__adddf3+0x240>
 8000aac:	f1bc 4f00 	cmp.w	ip, #2147483648	; 0x80000000
 8000ab0:	bf08      	it	eq
 8000ab2:	ea5f 0c50 	movseq.w	ip, r0, lsr #1
 8000ab6:	f150 0000 	adcs.w	r0, r0, #0
 8000aba:	eb41 5104 	adc.w	r1, r1, r4, lsl #20
 8000abe:	ea41 0105 	orr.w	r1, r1, r5
 8000ac2:	bd30      	pop	{r4, r5, pc}
 8000ac4:	ea5f 0c4c 	movs.w	ip, ip, lsl #1
 8000ac8:	4140      	adcs	r0, r0
 8000aca:	eb41 0101 	adc.w	r1, r1, r1
 8000ace:	3c01      	subs	r4, #1
 8000ad0:	bf28      	it	cs
 8000ad2:	f5b1 1f80 	cmpcs.w	r1, #1048576	; 0x100000
 8000ad6:	d2e9      	bcs.n	8000aac <__adddf3+0x10c>
 8000ad8:	f091 0f00 	teq	r1, #0
 8000adc:	bf04      	itt	eq
 8000ade:	4601      	moveq	r1, r0
 8000ae0:	2000      	moveq	r0, #0
 8000ae2:	fab1 f381 	clz	r3, r1
 8000ae6:	bf08      	it	eq
 8000ae8:	3320      	addeq	r3, #32
 8000aea:	f1a3 030b 	sub.w	r3, r3, #11
 8000aee:	f1b3 0220 	subs.w	r2, r3, #32
 8000af2:	da0c      	bge.n	8000b0e <__adddf3+0x16e>
 8000af4:	320c      	adds	r2, #12
 8000af6:	dd08      	ble.n	8000b0a <__adddf3+0x16a>
 8000af8:	f102 0c14 	add.w	ip, r2, #20
 8000afc:	f1c2 020c 	rsb	r2, r2, #12
 8000b00:	fa01 f00c 	lsl.w	r0, r1, ip
 8000b04:	fa21 f102 	lsr.w	r1, r1, r2
 8000b08:	e00c      	b.n	8000b24 <__adddf3+0x184>
 8000b0a:	f102 0214 	add.w	r2, r2, #20
 8000b0e:	bfd8      	it	le
 8000b10:	f1c2 0c20 	rsble	ip, r2, #32
 8000b14:	fa01 f102 	lsl.w	r1, r1, r2
 8000b18:	fa20 fc0c 	lsr.w	ip, r0, ip
 8000b1c:	bfdc      	itt	le
 8000b1e:	ea41 010c 	orrle.w	r1, r1, ip
 8000b22:	4090      	lslle	r0, r2
 8000b24:	1ae4      	subs	r4, r4, r3
 8000b26:	bfa2      	ittt	ge
 8000b28:	eb01 5104 	addge.w	r1, r1, r4, lsl #20
 8000b2c:	4329      	orrge	r1, r5
 8000b2e:	bd30      	popge	{r4, r5, pc}
 8000b30:	ea6f 0404 	mvn.w	r4, r4
 8000b34:	3c1f      	subs	r4, #31
 8000b36:	da1c      	bge.n	8000b72 <__adddf3+0x1d2>
 8000b38:	340c      	adds	r4, #12
 8000b3a:	dc0e      	bgt.n	8000b5a <__adddf3+0x1ba>
 8000b3c:	f104 0414 	add.w	r4, r4, #20
 8000b40:	f1c4 0220 	rsb	r2, r4, #32
 8000b44:	fa20 f004 	lsr.w	r0, r0, r4
 8000b48:	fa01 f302 	lsl.w	r3, r1, r2
 8000b4c:	ea40 0003 	orr.w	r0, r0, r3
 8000b50:	fa21 f304 	lsr.w	r3, r1, r4
 8000b54:	ea45 0103 	orr.w	r1, r5, r3
 8000b58:	bd30      	pop	{r4, r5, pc}
 8000b5a:	f1c4 040c 	rsb	r4, r4, #12
 8000b5e:	f1c4 0220 	rsb	r2, r4, #32
 8000b62:	fa20 f002 	lsr.w	r0, r0, r2
 8000b66:	fa01 f304 	lsl.w	r3, r1, r4
 8000b6a:	ea40 0003 	orr.w	r0, r0, r3
 8000b6e:	4629      	mov	r1, r5
 8000b70:	bd30      	pop	{r4, r5, pc}
 8000b72:	fa21 f004 	lsr.w	r0, r1, r4
 8000b76:	4629      	mov	r1, r5
 8000b78:	bd30      	pop	{r4, r5, pc}
 8000b7a:	f094 0f00 	teq	r4, #0
 8000b7e:	f483 1380 	eor.w	r3, r3, #1048576	; 0x100000
 8000b82:	bf06      	itte	eq
 8000b84:	f481 1180 	eoreq.w	r1, r1, #1048576	; 0x100000
 8000b88:	3401      	addeq	r4, #1
 8000b8a:	3d01      	subne	r5, #1
 8000b8c:	e74e      	b.n	8000a2c <__adddf3+0x8c>
 8000b8e:	ea7f 5c64 	mvns.w	ip, r4, asr #21
 8000b92:	bf18      	it	ne
 8000b94:	ea7f 5c65 	mvnsne.w	ip, r5, asr #21
 8000b98:	d029      	beq.n	8000bee <__adddf3+0x24e>
 8000b9a:	ea94 0f05 	teq	r4, r5
 8000b9e:	bf08      	it	eq
 8000ba0:	ea90 0f02 	teqeq	r0, r2
 8000ba4:	d005      	beq.n	8000bb2 <__adddf3+0x212>
 8000ba6:	ea54 0c00 	orrs.w	ip, r4, r0
 8000baa:	bf04      	itt	eq
 8000bac:	4619      	moveq	r1, r3
 8000bae:	4610      	moveq	r0, r2
 8000bb0:	bd30      	pop	{r4, r5, pc}
 8000bb2:	ea91 0f03 	teq	r1, r3
 8000bb6:	bf1e      	ittt	ne
 8000bb8:	2100      	movne	r1, #0
 8000bba:	2000      	movne	r0, #0
 8000bbc:	bd30      	popne	{r4, r5, pc}
 8000bbe:	ea5f 5c54 	movs.w	ip, r4, lsr #21
 8000bc2:	d105      	bne.n	8000bd0 <__adddf3+0x230>
 8000bc4:	0040      	lsls	r0, r0, #1
 8000bc6:	4149      	adcs	r1, r1
 8000bc8:	bf28      	it	cs
 8000bca:	f041 4100 	orrcs.w	r1, r1, #2147483648	; 0x80000000
 8000bce:	bd30      	pop	{r4, r5, pc}
 8000bd0:	f514 0480 	adds.w	r4, r4, #4194304	; 0x400000
 8000bd4:	bf3c      	itt	cc
 8000bd6:	f501 1180 	addcc.w	r1, r1, #1048576	; 0x100000
 8000bda:	bd30      	popcc	{r4, r5, pc}
 8000bdc:	f001 4500 	and.w	r5, r1, #2147483648	; 0x80000000
 8000be0:	f045 41fe 	orr.w	r1, r5, #2130706432	; 0x7f000000
 8000be4:	f441 0170 	orr.w	r1, r1, #15728640	; 0xf00000
 8000be8:	f04f 0000 	mov.w	r0, #0
 8000bec:	bd30      	pop	{r4, r5, pc}
 8000bee:	ea7f 5c64 	mvns.w	ip, r4, asr #21
 8000bf2:	bf1a      	itte	ne
 8000bf4:	4619      	movne	r1, r3
 8000bf6:	4610      	movne	r0, r2
 8000bf8:	ea7f 5c65 	mvnseq.w	ip, r5, asr #21
 8000bfc:	bf1c      	itt	ne
 8000bfe:	460b      	movne	r3, r1
 8000c00:	4602      	movne	r2, r0
 8000c02:	ea50 3401 	orrs.w	r4, r0, r1, lsl #12
 8000c06:	bf06      	itte	eq
 8000c08:	ea52 3503 	orrseq.w	r5, r2, r3, lsl #12
 8000c0c:	ea91 0f03 	teqeq	r1, r3
 8000c10:	f441 2100 	orrne.w	r1, r1, #524288	; 0x80000
 8000c14:	bd30      	pop	{r4, r5, pc}
 8000c16:	bf00      	nop

08000c18 <__aeabi_ui2d>:
 8000c18:	f090 0f00 	teq	r0, #0
 8000c1c:	bf04      	itt	eq
 8000c1e:	2100      	moveq	r1, #0
 8000c20:	4770      	bxeq	lr
 8000c22:	b530      	push	{r4, r5, lr}
 8000c24:	f44f 6480 	mov.w	r4, #1024	; 0x400
 8000c28:	f104 0432 	add.w	r4, r4, #50	; 0x32
 8000c2c:	f04f 0500 	mov.w	r5, #0
 8000c30:	f04f 0100 	mov.w	r1, #0
 8000c34:	e750      	b.n	8000ad8 <__adddf3+0x138>
 8000c36:	bf00      	nop

08000c38 <__aeabi_i2d>:
 8000c38:	f090 0f00 	teq	r0, #0
 8000c3c:	bf04      	itt	eq
 8000c3e:	2100      	moveq	r1, #0
 8000c40:	4770      	bxeq	lr
 8000c42:	b530      	push	{r4, r5, lr}
 8000c44:	f44f 6480 	mov.w	r4, #1024	; 0x400
 8000c48:	f104 0432 	add.w	r4, r4, #50	; 0x32
 8000c4c:	f010 4500 	ands.w	r5, r0, #2147483648	; 0x80000000
 8000c50:	bf48      	it	mi
 8000c52:	4240      	negmi	r0, r0
 8000c54:	f04f 0100 	mov.w	r1, #0
 8000c58:	e73e      	b.n	8000ad8 <__adddf3+0x138>
 8000c5a:	bf00      	nop

08000c5c <__aeabi_f2d>:
 8000c5c:	0042      	lsls	r2, r0, #1
 8000c5e:	ea4f 01e2 	mov.w	r1, r2, asr #3
 8000c62:	ea4f 0131 	mov.w	r1, r1, rrx
 8000c66:	ea4f 7002 	mov.w	r0, r2, lsl #28
 8000c6a:	bf1f      	itttt	ne
 8000c6c:	f012 437f 	andsne.w	r3, r2, #4278190080	; 0xff000000
 8000c70:	f093 4f7f 	teqne	r3, #4278190080	; 0xff000000
 8000c74:	f081 5160 	eorne.w	r1, r1, #939524096	; 0x38000000
 8000c78:	4770      	bxne	lr
 8000c7a:	f032 427f 	bics.w	r2, r2, #4278190080	; 0xff000000
 8000c7e:	bf08      	it	eq
 8000c80:	4770      	bxeq	lr
 8000c82:	f093 4f7f 	teq	r3, #4278190080	; 0xff000000
 8000c86:	bf04      	itt	eq
 8000c88:	f441 2100 	orreq.w	r1, r1, #524288	; 0x80000
 8000c8c:	4770      	bxeq	lr
 8000c8e:	b530      	push	{r4, r5, lr}
 8000c90:	f44f 7460 	mov.w	r4, #896	; 0x380
 8000c94:	f001 4500 	and.w	r5, r1, #2147483648	; 0x80000000
 8000c98:	f021 4100 	bic.w	r1, r1, #2147483648	; 0x80000000
 8000c9c:	e71c      	b.n	8000ad8 <__adddf3+0x138>
 8000c9e:	bf00      	nop

08000ca0 <__aeabi_ul2d>:
 8000ca0:	ea50 0201 	orrs.w	r2, r0, r1
 8000ca4:	bf08      	it	eq
 8000ca6:	4770      	bxeq	lr
 8000ca8:	b530      	push	{r4, r5, lr}
 8000caa:	f04f 0500 	mov.w	r5, #0
 8000cae:	e00a      	b.n	8000cc6 <__aeabi_l2d+0x16>

08000cb0 <__aeabi_l2d>:
 8000cb0:	ea50 0201 	orrs.w	r2, r0, r1
 8000cb4:	bf08      	it	eq
 8000cb6:	4770      	bxeq	lr
 8000cb8:	b530      	push	{r4, r5, lr}
 8000cba:	f011 4500 	ands.w	r5, r1, #2147483648	; 0x80000000
 8000cbe:	d502      	bpl.n	8000cc6 <__aeabi_l2d+0x16>
 8000cc0:	4240      	negs	r0, r0
 8000cc2:	eb61 0141 	sbc.w	r1, r1, r1, lsl #1
 8000cc6:	f44f 6480 	mov.w	r4, #1024	; 0x400
 8000cca:	f104 0432 	add.w	r4, r4, #50	; 0x32
 8000cce:	ea5f 5c91 	movs.w	ip, r1, lsr #22
 8000cd2:	f43f aed8 	beq.w	8000a86 <__adddf3+0xe6>
 8000cd6:	f04f 0203 	mov.w	r2, #3
 8000cda:	ea5f 0cdc 	movs.w	ip, ip, lsr #3
 8000cde:	bf18      	it	ne
 8000ce0:	3203      	addne	r2, #3
 8000ce2:	ea5f 0cdc 	movs.w	ip, ip, lsr #3
 8000ce6:	bf18      	it	ne
 8000ce8:	3203      	addne	r2, #3
 8000cea:	eb02 02dc 	add.w	r2, r2, ip, lsr #3
 8000cee:	f1c2 0320 	rsb	r3, r2, #32
 8000cf2:	fa00 fc03 	lsl.w	ip, r0, r3
 8000cf6:	fa20 f002 	lsr.w	r0, r0, r2
 8000cfa:	fa01 fe03 	lsl.w	lr, r1, r3
 8000cfe:	ea40 000e 	orr.w	r0, r0, lr
 8000d02:	fa21 f102 	lsr.w	r1, r1, r2
 8000d06:	4414      	add	r4, r2
 8000d08:	e6bd      	b.n	8000a86 <__adddf3+0xe6>
 8000d0a:	bf00      	nop

08000d0c <__aeabi_dmul>:
 8000d0c:	b570      	push	{r4, r5, r6, lr}
 8000d0e:	f04f 0cff 	mov.w	ip, #255	; 0xff
 8000d12:	f44c 6ce0 	orr.w	ip, ip, #1792	; 0x700
 8000d16:	ea1c 5411 	ands.w	r4, ip, r1, lsr #20
 8000d1a:	bf1d      	ittte	ne
 8000d1c:	ea1c 5513 	andsne.w	r5, ip, r3, lsr #20
 8000d20:	ea94 0f0c 	teqne	r4, ip
 8000d24:	ea95 0f0c 	teqne	r5, ip
 8000d28:	f000 f8de 	bleq	8000ee8 <__aeabi_dmul+0x1dc>
 8000d2c:	442c      	add	r4, r5
 8000d2e:	ea81 0603 	eor.w	r6, r1, r3
 8000d32:	ea21 514c 	bic.w	r1, r1, ip, lsl #21
 8000d36:	ea23 534c 	bic.w	r3, r3, ip, lsl #21
 8000d3a:	ea50 3501 	orrs.w	r5, r0, r1, lsl #12
 8000d3e:	bf18      	it	ne
 8000d40:	ea52 3503 	orrsne.w	r5, r2, r3, lsl #12
 8000d44:	f441 1180 	orr.w	r1, r1, #1048576	; 0x100000
 8000d48:	f443 1380 	orr.w	r3, r3, #1048576	; 0x100000
 8000d4c:	d038      	beq.n	8000dc0 <__aeabi_dmul+0xb4>
 8000d4e:	fba0 ce02 	umull	ip, lr, r0, r2
 8000d52:	f04f 0500 	mov.w	r5, #0
 8000d56:	fbe1 e502 	umlal	lr, r5, r1, r2
 8000d5a:	f006 4200 	and.w	r2, r6, #2147483648	; 0x80000000
 8000d5e:	fbe0 e503 	umlal	lr, r5, r0, r3
 8000d62:	f04f 0600 	mov.w	r6, #0
 8000d66:	fbe1 5603 	umlal	r5, r6, r1, r3
 8000d6a:	f09c 0f00 	teq	ip, #0
 8000d6e:	bf18      	it	ne
 8000d70:	f04e 0e01 	orrne.w	lr, lr, #1
 8000d74:	f1a4 04ff 	sub.w	r4, r4, #255	; 0xff
 8000d78:	f5b6 7f00 	cmp.w	r6, #512	; 0x200
 8000d7c:	f564 7440 	sbc.w	r4, r4, #768	; 0x300
 8000d80:	d204      	bcs.n	8000d8c <__aeabi_dmul+0x80>
 8000d82:	ea5f 0e4e 	movs.w	lr, lr, lsl #1
 8000d86:	416d      	adcs	r5, r5
 8000d88:	eb46 0606 	adc.w	r6, r6, r6
 8000d8c:	ea42 21c6 	orr.w	r1, r2, r6, lsl #11
 8000d90:	ea41 5155 	orr.w	r1, r1, r5, lsr #21
 8000d94:	ea4f 20c5 	mov.w	r0, r5, lsl #11
 8000d98:	ea40 505e 	orr.w	r0, r0, lr, lsr #21
 8000d9c:	ea4f 2ece 	mov.w	lr, lr, lsl #11
 8000da0:	f1b4 0cfd 	subs.w	ip, r4, #253	; 0xfd
 8000da4:	bf88      	it	hi
 8000da6:	f5bc 6fe0 	cmphi.w	ip, #1792	; 0x700
 8000daa:	d81e      	bhi.n	8000dea <__aeabi_dmul+0xde>
 8000dac:	f1be 4f00 	cmp.w	lr, #2147483648	; 0x80000000
 8000db0:	bf08      	it	eq
 8000db2:	ea5f 0e50 	movseq.w	lr, r0, lsr #1
 8000db6:	f150 0000 	adcs.w	r0, r0, #0
 8000dba:	eb41 5104 	adc.w	r1, r1, r4, lsl #20
 8000dbe:	bd70      	pop	{r4, r5, r6, pc}
 8000dc0:	f006 4600 	and.w	r6, r6, #2147483648	; 0x80000000
 8000dc4:	ea46 0101 	orr.w	r1, r6, r1
 8000dc8:	ea40 0002 	orr.w	r0, r0, r2
 8000dcc:	ea81 0103 	eor.w	r1, r1, r3
 8000dd0:	ebb4 045c 	subs.w	r4, r4, ip, lsr #1
 8000dd4:	bfc2      	ittt	gt
 8000dd6:	ebd4 050c 	rsbsgt	r5, r4, ip
 8000dda:	ea41 5104 	orrgt.w	r1, r1, r4, lsl #20
 8000dde:	bd70      	popgt	{r4, r5, r6, pc}
 8000de0:	f441 1180 	orr.w	r1, r1, #1048576	; 0x100000
 8000de4:	f04f 0e00 	mov.w	lr, #0
 8000de8:	3c01      	subs	r4, #1
 8000dea:	f300 80ab 	bgt.w	8000f44 <__aeabi_dmul+0x238>
 8000dee:	f114 0f36 	cmn.w	r4, #54	; 0x36
 8000df2:	bfde      	ittt	le
 8000df4:	2000      	movle	r0, #0
 8000df6:	f001 4100 	andle.w	r1, r1, #2147483648	; 0x80000000
 8000dfa:	bd70      	pople	{r4, r5, r6, pc}
 8000dfc:	f1c4 0400 	rsb	r4, r4, #0
 8000e00:	3c20      	subs	r4, #32
 8000e02:	da35      	bge.n	8000e70 <__aeabi_dmul+0x164>
 8000e04:	340c      	adds	r4, #12
 8000e06:	dc1b      	bgt.n	8000e40 <__aeabi_dmul+0x134>
 8000e08:	f104 0414 	add.w	r4, r4, #20
 8000e0c:	f1c4 0520 	rsb	r5, r4, #32
 8000e10:	fa00 f305 	lsl.w	r3, r0, r5
 8000e14:	fa20 f004 	lsr.w	r0, r0, r4
 8000e18:	fa01 f205 	lsl.w	r2, r1, r5
 8000e1c:	ea40 0002 	orr.w	r0, r0, r2
 8000e20:	f001 4200 	and.w	r2, r1, #2147483648	; 0x80000000
 8000e24:	f021 4100 	bic.w	r1, r1, #2147483648	; 0x80000000
 8000e28:	eb10 70d3 	adds.w	r0, r0, r3, lsr #31
 8000e2c:	fa21 f604 	lsr.w	r6, r1, r4
 8000e30:	eb42 0106 	adc.w	r1, r2, r6
 8000e34:	ea5e 0e43 	orrs.w	lr, lr, r3, lsl #1
 8000e38:	bf08      	it	eq
 8000e3a:	ea20 70d3 	biceq.w	r0, r0, r3, lsr #31
 8000e3e:	bd70      	pop	{r4, r5, r6, pc}
 8000e40:	f1c4 040c 	rsb	r4, r4, #12
 8000e44:	f1c4 0520 	rsb	r5, r4, #32
 8000e48:	fa00 f304 	lsl.w	r3, r0, r4
 8000e4c:	fa20 f005 	lsr.w	r0, r0, r5
 8000e50:	fa01 f204 	lsl.w	r2, r1, r4
 8000e54:	ea40 0002 	orr.w	r0, r0, r2
 8000e58:	f001 4100 	and.w	r1, r1, #2147483648	; 0x80000000
 8000e5c:	eb10 70d3 	adds.w	r0, r0, r3, lsr #31
 8000e60:	f141 0100 	adc.w	r1, r1, #0
 8000e64:	ea5e 0e43 	orrs.w	lr, lr, r3, lsl #1
 8000e68:	bf08      	it	eq
 8000e6a:	ea20 70d3 	biceq.w	r0, r0, r3, lsr #31
 8000e6e:	bd70      	pop	{r4, r5, r6, pc}
 8000e70:	f1c4 0520 	rsb	r5, r4, #32
 8000e74:	fa00 f205 	lsl.w	r2, r0, r5
 8000e78:	ea4e 0e02 	orr.w	lr, lr, r2
 8000e7c:	fa20 f304 	lsr.w	r3, r0, r4
 8000e80:	fa01 f205 	lsl.w	r2, r1, r5
 8000e84:	ea43 0302 	orr.w	r3, r3, r2
 8000e88:	fa21 f004 	lsr.w	r0, r1, r4
 8000e8c:	f001 4100 	and.w	r1, r1, #2147483648	; 0x80000000
 8000e90:	fa21 f204 	lsr.w	r2, r1, r4
 8000e94:	ea20 0002 	bic.w	r0, r0, r2
 8000e98:	eb00 70d3 	add.w	r0, r0, r3, lsr #31
 8000e9c:	ea5e 0e43 	orrs.w	lr, lr, r3, lsl #1
 8000ea0:	bf08      	it	eq
 8000ea2:	ea20 70d3 	biceq.w	r0, r0, r3, lsr #31
 8000ea6:	bd70      	pop	{r4, r5, r6, pc}
 8000ea8:	f094 0f00 	teq	r4, #0
 8000eac:	d10f      	bne.n	8000ece <__aeabi_dmul+0x1c2>
 8000eae:	f001 4600 	and.w	r6, r1, #2147483648	; 0x80000000
 8000eb2:	0040      	lsls	r0, r0, #1
 8000eb4:	eb41 0101 	adc.w	r1, r1, r1
 8000eb8:	f411 1f80 	tst.w	r1, #1048576	; 0x100000
 8000ebc:	bf08      	it	eq
 8000ebe:	3c01      	subeq	r4, #1
 8000ec0:	d0f7      	beq.n	8000eb2 <__aeabi_dmul+0x1a6>
 8000ec2:	ea41 0106 	orr.w	r1, r1, r6
 8000ec6:	f095 0f00 	teq	r5, #0
 8000eca:	bf18      	it	ne
 8000ecc:	4770      	bxne	lr
 8000ece:	f003 4600 	and.w	r6, r3, #2147483648	; 0x80000000
 8000ed2:	0052      	lsls	r2, r2, #1
 8000ed4:	eb43 0303 	adc.w	r3, r3, r3
 8000ed8:	f413 1f80 	tst.w	r3, #1048576	; 0x100000
 8000edc:	bf08      	it	eq
 8000ede:	3d01      	subeq	r5, #1
 8000ee0:	d0f7      	beq.n	8000ed2 <__aeabi_dmul+0x1c6>
 8000ee2:	ea43 0306 	orr.w	r3, r3, r6
 8000ee6:	4770      	bx	lr
 8000ee8:	ea94 0f0c 	teq	r4, ip
 8000eec:	ea0c 5513 	and.w	r5, ip, r3, lsr #20
 8000ef0:	bf18      	it	ne
 8000ef2:	ea95 0f0c 	teqne	r5, ip
 8000ef6:	d00c      	beq.n	8000f12 <__aeabi_dmul+0x206>
 8000ef8:	ea50 0641 	orrs.w	r6, r0, r1, lsl #1
 8000efc:	bf18      	it	ne
 8000efe:	ea52 0643 	orrsne.w	r6, r2, r3, lsl #1
 8000f02:	d1d1      	bne.n	8000ea8 <__aeabi_dmul+0x19c>
 8000f04:	ea81 0103 	eor.w	r1, r1, r3
 8000f08:	f001 4100 	and.w	r1, r1, #2147483648	; 0x80000000
 8000f0c:	f04f 0000 	mov.w	r0, #0
 8000f10:	bd70      	pop	{r4, r5, r6, pc}
 8000f12:	ea50 0641 	orrs.w	r6, r0, r1, lsl #1
 8000f16:	bf06      	itte	eq
 8000f18:	4610      	moveq	r0, r2
 8000f1a:	4619      	moveq	r1, r3
 8000f1c:	ea52 0643 	orrsne.w	r6, r2, r3, lsl #1
 8000f20:	d019      	beq.n	8000f56 <__aeabi_dmul+0x24a>
 8000f22:	ea94 0f0c 	teq	r4, ip
 8000f26:	d102      	bne.n	8000f2e <__aeabi_dmul+0x222>
 8000f28:	ea50 3601 	orrs.w	r6, r0, r1, lsl #12
 8000f2c:	d113      	bne.n	8000f56 <__aeabi_dmul+0x24a>
 8000f2e:	ea95 0f0c 	teq	r5, ip
 8000f32:	d105      	bne.n	8000f40 <__aeabi_dmul+0x234>
 8000f34:	ea52 3603 	orrs.w	r6, r2, r3, lsl #12
 8000f38:	bf1c      	itt	ne
 8000f3a:	4610      	movne	r0, r2
 8000f3c:	4619      	movne	r1, r3
 8000f3e:	d10a      	bne.n	8000f56 <__aeabi_dmul+0x24a>
 8000f40:	ea81 0103 	eor.w	r1, r1, r3
 8000f44:	f001 4100 	and.w	r1, r1, #2147483648	; 0x80000000
 8000f48:	f041 41fe 	orr.w	r1, r1, #2130706432	; 0x7f000000
 8000f4c:	f441 0170 	orr.w	r1, r1, #15728640	; 0xf00000
 8000f50:	f04f 0000 	mov.w	r0, #0
 8000f54:	bd70      	pop	{r4, r5, r6, pc}
 8000f56:	f041 41fe 	orr.w	r1, r1, #2130706432	; 0x7f000000
 8000f5a:	f441 0178 	orr.w	r1, r1, #16252928	; 0xf80000
 8000f5e:	bd70      	pop	{r4, r5, r6, pc}

08000f60 <__aeabi_ddiv>:
 8000f60:	b570      	push	{r4, r5, r6, lr}
 8000f62:	f04f 0cff 	mov.w	ip, #255	; 0xff
 8000f66:	f44c 6ce0 	orr.w	ip, ip, #1792	; 0x700
 8000f6a:	ea1c 5411 	ands.w	r4, ip, r1, lsr #20
 8000f6e:	bf1d      	ittte	ne
 8000f70:	ea1c 5513 	andsne.w	r5, ip, r3, lsr #20
 8000f74:	ea94 0f0c 	teqne	r4, ip
 8000f78:	ea95 0f0c 	teqne	r5, ip
 8000f7c:	f000 f8a7 	bleq	80010ce <__aeabi_ddiv+0x16e>
 8000f80:	eba4 0405 	sub.w	r4, r4, r5
 8000f84:	ea81 0e03 	eor.w	lr, r1, r3
 8000f88:	ea52 3503 	orrs.w	r5, r2, r3, lsl #12
 8000f8c:	ea4f 3101 	mov.w	r1, r1, lsl #12
 8000f90:	f000 8088 	beq.w	80010a4 <__aeabi_ddiv+0x144>
 8000f94:	ea4f 3303 	mov.w	r3, r3, lsl #12
 8000f98:	f04f 5580 	mov.w	r5, #268435456	; 0x10000000
 8000f9c:	ea45 1313 	orr.w	r3, r5, r3, lsr #4
 8000fa0:	ea43 6312 	orr.w	r3, r3, r2, lsr #24
 8000fa4:	ea4f 2202 	mov.w	r2, r2, lsl #8
 8000fa8:	ea45 1511 	orr.w	r5, r5, r1, lsr #4
 8000fac:	ea45 6510 	orr.w	r5, r5, r0, lsr #24
 8000fb0:	ea4f 2600 	mov.w	r6, r0, lsl #8
 8000fb4:	f00e 4100 	and.w	r1, lr, #2147483648	; 0x80000000
 8000fb8:	429d      	cmp	r5, r3
 8000fba:	bf08      	it	eq
 8000fbc:	4296      	cmpeq	r6, r2
 8000fbe:	f144 04fd 	adc.w	r4, r4, #253	; 0xfd
 8000fc2:	f504 7440 	add.w	r4, r4, #768	; 0x300
 8000fc6:	d202      	bcs.n	8000fce <__aeabi_ddiv+0x6e>
 8000fc8:	085b      	lsrs	r3, r3, #1
 8000fca:	ea4f 0232 	mov.w	r2, r2, rrx
 8000fce:	1ab6      	subs	r6, r6, r2
 8000fd0:	eb65 0503 	sbc.w	r5, r5, r3
 8000fd4:	085b      	lsrs	r3, r3, #1
 8000fd6:	ea4f 0232 	mov.w	r2, r2, rrx
 8000fda:	f44f 1080 	mov.w	r0, #1048576	; 0x100000
 8000fde:	f44f 2c00 	mov.w	ip, #524288	; 0x80000
 8000fe2:	ebb6 0e02 	subs.w	lr, r6, r2
 8000fe6:	eb75 0e03 	sbcs.w	lr, r5, r3
 8000fea:	bf22      	ittt	cs
 8000fec:	1ab6      	subcs	r6, r6, r2
 8000fee:	4675      	movcs	r5, lr
 8000ff0:	ea40 000c 	orrcs.w	r0, r0, ip
 8000ff4:	085b      	lsrs	r3, r3, #1
 8000ff6:	ea4f 0232 	mov.w	r2, r2, rrx
 8000ffa:	ebb6 0e02 	subs.w	lr, r6, r2
 8000ffe:	eb75 0e03 	sbcs.w	lr, r5, r3
 8001002:	bf22      	ittt	cs
 8001004:	1ab6      	subcs	r6, r6, r2
 8001006:	4675      	movcs	r5, lr
 8001008:	ea40 005c 	orrcs.w	r0, r0, ip, lsr #1
 800100c:	085b      	lsrs	r3, r3, #1
 800100e:	ea4f 0232 	mov.w	r2, r2, rrx
 8001012:	ebb6 0e02 	subs.w	lr, r6, r2
 8001016:	eb75 0e03 	sbcs.w	lr, r5, r3
 800101a:	bf22      	ittt	cs
 800101c:	1ab6      	subcs	r6, r6, r2
 800101e:	4675      	movcs	r5, lr
 8001020:	ea40 009c 	orrcs.w	r0, r0, ip, lsr #2
 8001024:	085b      	lsrs	r3, r3, #1
 8001026:	ea4f 0232 	mov.w	r2, r2, rrx
 800102a:	ebb6 0e02 	subs.w	lr, r6, r2
 800102e:	eb75 0e03 	sbcs.w	lr, r5, r3
 8001032:	bf22      	ittt	cs
 8001034:	1ab6      	subcs	r6, r6, r2
 8001036:	4675      	movcs	r5, lr
 8001038:	ea40 00dc 	orrcs.w	r0, r0, ip, lsr #3
 800103c:	ea55 0e06 	orrs.w	lr, r5, r6
 8001040:	d018      	beq.n	8001074 <__aeabi_ddiv+0x114>
 8001042:	ea4f 1505 	mov.w	r5, r5, lsl #4
 8001046:	ea45 7516 	orr.w	r5, r5, r6, lsr #28
 800104a:	ea4f 1606 	mov.w	r6, r6, lsl #4
 800104e:	ea4f 03c3 	mov.w	r3, r3, lsl #3
 8001052:	ea43 7352 	orr.w	r3, r3, r2, lsr #29
 8001056:	ea4f 02c2 	mov.w	r2, r2, lsl #3
 800105a:	ea5f 1c1c 	movs.w	ip, ip, lsr #4
 800105e:	d1c0      	bne.n	8000fe2 <__aeabi_ddiv+0x82>
 8001060:	f411 1f80 	tst.w	r1, #1048576	; 0x100000
 8001064:	d10b      	bne.n	800107e <__aeabi_ddiv+0x11e>
 8001066:	ea41 0100 	orr.w	r1, r1, r0
 800106a:	f04f 0000 	mov.w	r0, #0
 800106e:	f04f 4c00 	mov.w	ip, #2147483648	; 0x80000000
 8001072:	e7b6      	b.n	8000fe2 <__aeabi_ddiv+0x82>
 8001074:	f411 1f80 	tst.w	r1, #1048576	; 0x100000
 8001078:	bf04      	itt	eq
 800107a:	4301      	orreq	r1, r0
 800107c:	2000      	moveq	r0, #0
 800107e:	f1b4 0cfd 	subs.w	ip, r4, #253	; 0xfd
 8001082:	bf88      	it	hi
 8001084:	f5bc 6fe0 	cmphi.w	ip, #1792	; 0x700
 8001088:	f63f aeaf 	bhi.w	8000dea <__aeabi_dmul+0xde>
 800108c:	ebb5 0c03 	subs.w	ip, r5, r3
 8001090:	bf04      	itt	eq
 8001092:	ebb6 0c02 	subseq.w	ip, r6, r2
 8001096:	ea5f 0c50 	movseq.w	ip, r0, lsr #1
 800109a:	f150 0000 	adcs.w	r0, r0, #0
 800109e:	eb41 5104 	adc.w	r1, r1, r4, lsl #20
 80010a2:	bd70      	pop	{r4, r5, r6, pc}
 80010a4:	f00e 4e00 	and.w	lr, lr, #2147483648	; 0x80000000
 80010a8:	ea4e 3111 	orr.w	r1, lr, r1, lsr #12
 80010ac:	eb14 045c 	adds.w	r4, r4, ip, lsr #1
 80010b0:	bfc2      	ittt	gt
 80010b2:	ebd4 050c 	rsbsgt	r5, r4, ip
 80010b6:	ea41 5104 	orrgt.w	r1, r1, r4, lsl #20
 80010ba:	bd70      	popgt	{r4, r5, r6, pc}
 80010bc:	f441 1180 	orr.w	r1, r1, #1048576	; 0x100000
 80010c0:	f04f 0e00 	mov.w	lr, #0
 80010c4:	3c01      	subs	r4, #1
 80010c6:	e690      	b.n	8000dea <__aeabi_dmul+0xde>
 80010c8:	ea45 0e06 	orr.w	lr, r5, r6
 80010cc:	e68d      	b.n	8000dea <__aeabi_dmul+0xde>
 80010ce:	ea0c 5513 	and.w	r5, ip, r3, lsr #20
 80010d2:	ea94 0f0c 	teq	r4, ip
 80010d6:	bf08      	it	eq
 80010d8:	ea95 0f0c 	teqeq	r5, ip
 80010dc:	f43f af3b 	beq.w	8000f56 <__aeabi_dmul+0x24a>
 80010e0:	ea94 0f0c 	teq	r4, ip
 80010e4:	d10a      	bne.n	80010fc <__aeabi_ddiv+0x19c>
 80010e6:	ea50 3401 	orrs.w	r4, r0, r1, lsl #12
 80010ea:	f47f af34 	bne.w	8000f56 <__aeabi_dmul+0x24a>
 80010ee:	ea95 0f0c 	teq	r5, ip
 80010f2:	f47f af25 	bne.w	8000f40 <__aeabi_dmul+0x234>
 80010f6:	4610      	mov	r0, r2
 80010f8:	4619      	mov	r1, r3
 80010fa:	e72c      	b.n	8000f56 <__aeabi_dmul+0x24a>
 80010fc:	ea95 0f0c 	teq	r5, ip
 8001100:	d106      	bne.n	8001110 <__aeabi_ddiv+0x1b0>
 8001102:	ea52 3503 	orrs.w	r5, r2, r3, lsl #12
 8001106:	f43f aefd 	beq.w	8000f04 <__aeabi_dmul+0x1f8>
 800110a:	4610      	mov	r0, r2
 800110c:	4619      	mov	r1, r3
 800110e:	e722      	b.n	8000f56 <__aeabi_dmul+0x24a>
 8001110:	ea50 0641 	orrs.w	r6, r0, r1, lsl #1
 8001114:	bf18      	it	ne
 8001116:	ea52 0643 	orrsne.w	r6, r2, r3, lsl #1
 800111a:	f47f aec5 	bne.w	8000ea8 <__aeabi_dmul+0x19c>
 800111e:	ea50 0441 	orrs.w	r4, r0, r1, lsl #1
 8001122:	f47f af0d 	bne.w	8000f40 <__aeabi_dmul+0x234>
 8001126:	ea52 0543 	orrs.w	r5, r2, r3, lsl #1
 800112a:	f47f aeeb 	bne.w	8000f04 <__aeabi_dmul+0x1f8>
 800112e:	e712      	b.n	8000f56 <__aeabi_dmul+0x24a>

08001130 <__aeabi_d2uiz>:
 8001130:	004a      	lsls	r2, r1, #1
 8001132:	d211      	bcs.n	8001158 <__aeabi_d2uiz+0x28>
 8001134:	f512 1200 	adds.w	r2, r2, #2097152	; 0x200000
 8001138:	d211      	bcs.n	800115e <__aeabi_d2uiz+0x2e>
 800113a:	d50d      	bpl.n	8001158 <__aeabi_d2uiz+0x28>
 800113c:	f46f 7378 	mvn.w	r3, #992	; 0x3e0
 8001140:	ebb3 5262 	subs.w	r2, r3, r2, asr #21
 8001144:	d40e      	bmi.n	8001164 <__aeabi_d2uiz+0x34>
 8001146:	ea4f 23c1 	mov.w	r3, r1, lsl #11
 800114a:	f043 4300 	orr.w	r3, r3, #2147483648	; 0x80000000
 800114e:	ea43 5350 	orr.w	r3, r3, r0, lsr #21
 8001152:	fa23 f002 	lsr.w	r0, r3, r2
 8001156:	4770      	bx	lr
 8001158:	f04f 0000 	mov.w	r0, #0
 800115c:	4770      	bx	lr
 800115e:	ea50 3001 	orrs.w	r0, r0, r1, lsl #12
 8001162:	d102      	bne.n	800116a <__aeabi_d2uiz+0x3a>
 8001164:	f04f 30ff 	mov.w	r0, #4294967295	; 0xffffffff
 8001168:	4770      	bx	lr
 800116a:	f04f 0000 	mov.w	r0, #0
 800116e:	4770      	bx	lr

08001170 <__aeabi_f2uiz>:
 8001170:	0042      	lsls	r2, r0, #1
 8001172:	d20e      	bcs.n	8001192 <__aeabi_f2uiz+0x22>
 8001174:	f1b2 4ffe 	cmp.w	r2, #2130706432	; 0x7f000000
 8001178:	d30b      	bcc.n	8001192 <__aeabi_f2uiz+0x22>
 800117a:	f04f 039e 	mov.w	r3, #158	; 0x9e
 800117e:	ebb3 6212 	subs.w	r2, r3, r2, lsr #24
 8001182:	d409      	bmi.n	8001198 <__aeabi_f2uiz+0x28>
 8001184:	ea4f 2300 	mov.w	r3, r0, lsl #8
 8001188:	f043 4300 	orr.w	r3, r3, #2147483648	; 0x80000000
 800118c:	fa23 f002 	lsr.w	r0, r3, r2
 8001190:	4770      	bx	lr
 8001192:	f04f 0000 	mov.w	r0, #0
 8001196:	4770      	bx	lr
 8001198:	f112 0f61 	cmn.w	r2, #97	; 0x61
 800119c:	d101      	bne.n	80011a2 <__aeabi_f2uiz+0x32>
 800119e:	0242      	lsls	r2, r0, #9
 80011a0:	d102      	bne.n	80011a8 <__aeabi_f2uiz+0x38>
 80011a2:	f04f 30ff 	mov.w	r0, #4294967295	; 0xffffffff
 80011a6:	4770      	bx	lr
 80011a8:	f04f 0000 	mov.w	r0, #0
 80011ac:	4770      	bx	lr
 80011ae:	bf00      	nop

080011b0 <Reset_Handler>:
 80011b0:	480c      	ldr	r0, [pc, #48]	; (80011e4 <Zerobss+0x10>)
 80011b2:	4685      	mov	sp, r0
 80011b4:	2100      	movs	r1, #0
 80011b6:	e003      	b.n	80011c0 <DataInit>

080011b8 <CopyData>:
 80011b8:	4b0b      	ldr	r3, [pc, #44]	; (80011e8 <Zerobss+0x14>)
 80011ba:	585b      	ldr	r3, [r3, r1]
 80011bc:	5043      	str	r3, [r0, r1]
 80011be:	3104      	adds	r1, #4

080011c0 <DataInit>:
 80011c0:	480a      	ldr	r0, [pc, #40]	; (80011ec <Zerobss+0x18>)
 80011c2:	4b0b      	ldr	r3, [pc, #44]	; (80011f0 <Zerobss+0x1c>)
 80011c4:	1842      	adds	r2, r0, r1
 80011c6:	429a      	cmp	r2, r3
 80011c8:	d3f6      	bcc.n	80011b8 <CopyData>
 80011ca:	4a0a      	ldr	r2, [pc, #40]	; (80011f4 <Zerobss+0x20>)
 80011cc:	e002      	b.n	80011d4 <Zerobss>

080011ce <FillZerobss>:
 80011ce:	2300      	movs	r3, #0
 80011d0:	f842 3b04 	str.w	r3, [r2], #4

080011d4 <Zerobss>:
 80011d4:	4b08      	ldr	r3, [pc, #32]	; (80011f8 <Zerobss+0x24>)
 80011d6:	429a      	cmp	r2, r3
 80011d8:	d3f9      	bcc.n	80011ce <FillZerobss>
 80011da:	f003 f9c3 	bl	8004564 <SystemInit>
 80011de:	f000 f837 	bl	8001250 <main>
 80011e2:	4770      	bx	lr
 80011e4:	2000c000 	andcs	ip, r0, r0
 80011e8:	08005f78 	stmdaeq	r0, {r3, r4, r5, r6, r8, r9, sl, fp, ip, lr}
 80011ec:	20000000 	andcs	r0, r0, r0
 80011f0:	200000ec 	andcs	r0, r0, ip, ror #1
 80011f4:	200000f0 	strdcs	r0, [r0], -r0	; <UNPREDICTABLE>
 80011f8:	20001824 	andcs	r1, r0, r4, lsr #16

080011fc <ADC0_1_IRQHandler>:
 80011fc:	e7fe      	b.n	80011fc <ADC0_1_IRQHandler>

080011fe <RDMDevice::SetLabel(TRDMDeviceInfoData const*)>:
 80011fe:	b470      	push	{r4, r5, r6}
 8001200:	790a      	ldrb	r2, [r1, #4]
 8001202:	680b      	ldr	r3, [r1, #0]
 8001204:	2a20      	cmp	r2, #32
 8001206:	bf28      	it	cs
 8001208:	2220      	movcs	r2, #32
 800120a:	f890 1052 	ldrb.w	r1, [r0, #82]	; 0x52
 800120e:	189c      	adds	r4, r3, r2
 8001210:	b189      	cbz	r1, 8001236 <RDMDevice::SetLabel(TRDMDeviceInfoData const*)+0x38>
 8001212:	f100 010a 	add.w	r1, r0, #10
 8001216:	460d      	mov	r5, r1
 8001218:	42a3      	cmp	r3, r4
 800121a:	d004      	beq.n	8001226 <RDMDevice::SetLabel(TRDMDeviceInfoData const*)+0x28>
 800121c:	f813 6b01 	ldrb.w	r6, [r3], #1
 8001220:	f805 6b01 	strb.w	r6, [r5], #1
 8001224:	e7f8      	b.n	8001218 <RDMDevice::SetLabel(TRDMDeviceInfoData const*)+0x1a>
 8001226:	f880 202a 	strb.w	r2, [r0, #42]	; 0x2a
 800122a:	6f80      	ldr	r0, [r0, #120]	; 0x78
 800122c:	b170      	cbz	r0, 800124c <RDMDevice::SetLabel(TRDMDeviceInfoData const*)+0x4e>
 800122e:	bc70      	pop	{r4, r5, r6}
 8001230:	6803      	ldr	r3, [r0, #0]
 8001232:	689b      	ldr	r3, [r3, #8]
 8001234:	4718      	bx	r3
 8001236:	f100 0153 	add.w	r1, r0, #83	; 0x53
 800123a:	42a3      	cmp	r3, r4
 800123c:	d004      	beq.n	8001248 <RDMDevice::SetLabel(TRDMDeviceInfoData const*)+0x4a>
 800123e:	f813 5b01 	ldrb.w	r5, [r3], #1
 8001242:	f801 5b01 	strb.w	r5, [r1], #1
 8001246:	e7f8      	b.n	800123a <RDMDevice::SetLabel(TRDMDeviceInfoData const*)+0x3c>
 8001248:	f880 2073 	strb.w	r2, [r0, #115]	; 0x73
 800124c:	bc70      	pop	{r4, r5, r6}
 800124e:	4770      	bx	lr

08001250 <main>:
 8001250:	b570      	push	{r4, r5, r6, lr}
 8001252:	f5ad 7d78 	sub.w	sp, sp, #992	; 0x3e0
 8001256:	a807      	add	r0, sp, #28
 8001258:	f002 ff84 	bl	8004164 <Hardware::Hardware()>
 800125c:	a80f      	add	r0, sp, #60	; 0x3c
 800125e:	f002 fc7d 	bl	8003b5c <Network::Network()>
 8001262:	a817      	add	r0, sp, #92	; 0x5c
 8001264:	f002 ff6e 	bl	8004144 <LedBlink::LedBlink()>
 8001268:	a81d      	add	r0, sp, #116	; 0x74
 800126a:	f002 fcf7 	bl	8003c5c <Display::Display()>
 800126e:	a805      	add	r0, sp, #20
 8001270:	f002 fafa 	bl	8003868 <FlashRom::FlashRom()>
 8001274:	a806      	add	r0, sp, #24
 8001276:	f002 f969 	bl	800354c <SpiFlashStore::SpiFlashStore()>
 800127a:	a831      	add	r0, sp, #196	; 0xc4
 800127c:	f000 fbf0 	bl	8001a60 <Widget::Widget()>
 8001280:	2300      	movs	r3, #0
 8001282:	2201      	movs	r2, #1
 8001284:	4619      	mov	r1, r3
 8001286:	a831      	add	r0, sp, #196	; 0xc4
 8001288:	f001 fcd4 	bl	8002c34 <Dmx::SetPortDirection(unsigned int, dmx::PortDirection, bool)>
 800128c:	a809      	add	r0, sp, #36	; 0x24
 800128e:	f002 fadf 	bl	8003850 <StoreWidget::StoreWidget()>
 8001292:	a909      	add	r1, sp, #36	; 0x24
 8001294:	a813      	add	r0, sp, #76	; 0x4c
 8001296:	f000 ff99 	bl	80021cc <WidgetParams::WidgetParams(WidgetParamsStore*)>
 800129a:	a813      	add	r0, sp, #76	; 0x4c
 800129c:	f000 ff9e 	bl	80021dc <WidgetParams::Load()>
 80012a0:	b128      	cbz	r0, 80012ae <main+0x5e>
 80012a2:	a813      	add	r0, sp, #76	; 0x4c
 80012a4:	f001 f816 	bl	80022d4 <WidgetParams::Set()>
 80012a8:	a813      	add	r0, sp, #76	; 0x4c
 80012aa:	f001 f836 	bl	800231a <WidgetParams::Dump()>
 80012ae:	a80b      	add	r0, sp, #44	; 0x2c
 80012b0:	f002 fa92 	bl	80037d8 <StoreRDMDevice::StoreRDMDevice()>
 80012b4:	a90b      	add	r1, sp, #44	; 0x2c
 80012b6:	a825      	add	r0, sp, #148	; 0x94
 80012b8:	f002 f846 	bl	8003348 <RDMDeviceParams::RDMDeviceParams(RDMDeviceParamsStore*)>
 80012bc:	a838      	add	r0, sp, #224	; 0xe0
 80012be:	494f      	ldr	r1, [pc, #316]	; (80013fc <main+0x1ac>)
 80012c0:	f7ff ff9d 	bl	80011fe <RDMDevice::SetLabel(TRDMDeviceInfoData const*)>
 80012c4:	a825      	add	r0, sp, #148	; 0x94
 80012c6:	f002 f851 	bl	800336c <RDMDeviceParams::Load()>
 80012ca:	b130      	cbz	r0, 80012da <main+0x8a>
 80012cc:	a825      	add	r0, sp, #148	; 0x94
 80012ce:	a938      	add	r1, sp, #224	; 0xe0
 80012d0:	f002 f857 	bl	8003382 <RDMDeviceParams::Set(RDMDevice*)>
 80012d4:	a825      	add	r0, sp, #148	; 0x94
 80012d6:	f002 f889 	bl	80033ec <RDMDeviceParams::Dump()>
 80012da:	2301      	movs	r3, #1
 80012dc:	f88d 3132 	strb.w	r3, [sp, #306]	; 0x132
 80012e0:	f20d 1333 	addw	r3, sp, #307	; 0x133
 80012e4:	930d      	str	r3, [sp, #52]	; 0x34
 80012e6:	f89d 3153 	ldrb.w	r3, [sp, #339]	; 0x153
 80012ea:	a90d      	add	r1, sp, #52	; 0x34
 80012ec:	a838      	add	r0, sp, #224	; 0xe0
 80012ee:	f88d 3038 	strb.w	r3, [sp, #56]	; 0x38
 80012f2:	f7ff ff84 	bl	80011fe <RDMDevice::SetLabel(TRDMDeviceInfoData const*)>
 80012f6:	f10d 01ea 	add.w	r1, sp, #234	; 0xea
 80012fa:	2200      	movs	r2, #0
 80012fc:	460e      	mov	r6, r1
 80012fe:	f89d 3153 	ldrb.w	r3, [sp, #339]	; 0x153
 8001302:	f89d 510a 	ldrb.w	r5, [sp, #266]	; 0x10a
 8001306:	4295      	cmp	r5, r2
 8001308:	d905      	bls.n	8001316 <main+0xc6>
 800130a:	f811 0b01 	ldrb.w	r0, [r1], #1
 800130e:	3201      	adds	r2, #1
 8001310:	4403      	add	r3, r0
 8001312:	b29b      	uxth	r3, r3
 8001314:	e7f7      	b.n	8001306 <main+0xb6>
 8001316:	f8ad 3154 	strh.w	r3, [sp, #340]	; 0x154
 800131a:	4b39      	ldr	r3, [pc, #228]	; (8001400 <main+0x1b0>)
 800131c:	4a39      	ldr	r2, [pc, #228]	; (8001404 <main+0x1b4>)
 800131e:	493a      	ldr	r1, [pc, #232]	; (8001408 <main+0x1b8>)
 8001320:	9300      	str	r3, [sp, #0]
 8001322:	483a      	ldr	r0, [pc, #232]	; (800140c <main+0x1bc>)
 8001324:	4b3a      	ldr	r3, [pc, #232]	; (8001410 <main+0x1c0>)
 8001326:	f89d 4057 	ldrb.w	r4, [sp, #87]	; 0x57
 800132a:	f000 fb89 	bl	8001a40 <printf>
 800132e:	220c      	movs	r2, #12
 8001330:	4b38      	ldr	r3, [pc, #224]	; (8001414 <main+0x1c4>)
 8001332:	4621      	mov	r1, r4
 8001334:	fb02 3204 	mla	r2, r2, r4, r3
 8001338:	4837      	ldr	r0, [pc, #220]	; (8001418 <main+0x1c8>)
 800133a:	f000 fb81 	bl	8001a40 <printf>
 800133e:	f89d 30e5 	ldrb.w	r3, [sp, #229]	; 0xe5
 8001342:	f89d 20e1 	ldrb.w	r2, [sp, #225]	; 0xe1
 8001346:	9302      	str	r3, [sp, #8]
 8001348:	f89d 30e4 	ldrb.w	r3, [sp, #228]	; 0xe4
 800134c:	f89d 10e0 	ldrb.w	r1, [sp, #224]	; 0xe0
 8001350:	9301      	str	r3, [sp, #4]
 8001352:	f89d 30e3 	ldrb.w	r3, [sp, #227]	; 0xe3
 8001356:	4831      	ldr	r0, [pc, #196]	; (800141c <main+0x1cc>)
 8001358:	9300      	str	r3, [sp, #0]
 800135a:	f89d 30e2 	ldrb.w	r3, [sp, #226]	; 0xe2
 800135e:	f000 fb6f 	bl	8001a40 <printf>
 8001362:	4632      	mov	r2, r6
 8001364:	4629      	mov	r1, r5
 8001366:	482e      	ldr	r0, [pc, #184]	; (8001420 <main+0x1d0>)
 8001368:	f000 fb6a 	bl	8001a40 <printf>
 800136c:	2102      	movs	r1, #2
 800136e:	f64f 70ff 	movw	r0, #65535	; 0xffff
 8001372:	f003 fa3d 	bl	80047f0 <fwdgt_config>
 8001376:	2801      	cmp	r0, #1
 8001378:	bf0c      	ite	eq
 800137a:	2301      	moveq	r3, #1
 800137c:	2300      	movne	r3, #0
 800137e:	f88d 3020 	strb.w	r3, [sp, #32]
 8001382:	d101      	bne.n	8001388 <main+0x138>
 8001384:	f003 fa24 	bl	80047d0 <fwdgt_enable>
 8001388:	2c03      	cmp	r4, #3
 800138a:	d108      	bne.n	800139e <main+0x14e>
 800138c:	2301      	movs	r3, #1
 800138e:	a831      	add	r0, sp, #196	; 0xc4
 8001390:	461a      	mov	r2, r3
 8001392:	2100      	movs	r1, #0
 8001394:	f001 fc4e 	bl	8002c34 <Dmx::SetPortDirection(unsigned int, dmx::PortDirection, bool)>
 8001398:	a831      	add	r0, sp, #196	; 0xc4
 800139a:	f001 f8af 	bl	80024fc <Widget::SnifferFillTransmitBuffer()>
 800139e:	2601      	movs	r6, #1
 80013a0:	4c20      	ldr	r4, [pc, #128]	; (8001424 <main+0x1d4>)
 80013a2:	4d21      	ldr	r5, [pc, #132]	; (8001428 <main+0x1d8>)
 80013a4:	f003 fa1c 	bl	80047e0 <fwdgt_counter_reload>
 80013a8:	a831      	add	r0, sp, #196	; 0xc4
 80013aa:	f000 fe27 	bl	8001ffc <Widget::ReceiveDataFromHost()>
 80013ae:	a831      	add	r0, sp, #196	; 0xc4
 80013b0:	f000 fbd4 	bl	8001b5c <Widget::ReceivedDmxPacket()>
 80013b4:	a831      	add	r0, sp, #196	; 0xc4
 80013b6:	f000 fc99 	bl	8001cec <Widget::ReceivedDmxChangeOfStatePacket()>
 80013ba:	a831      	add	r0, sp, #196	; 0xc4
 80013bc:	f000 fd24 	bl	8001e08 <Widget::ReceivedRdmPacket()>
 80013c0:	a831      	add	r0, sp, #196	; 0xc4
 80013c2:	f000 fd97 	bl	8001ef4 <Widget::RdmTimeout()>
 80013c6:	a831      	add	r0, sp, #196	; 0xc4
 80013c8:	f001 f842 	bl	8002450 <Widget::SnifferRdm()>
 80013cc:	a831      	add	r0, sp, #196	; 0xc4
 80013ce:	f001 f819 	bl	8002404 <Widget::SnifferDmx()>
 80013d2:	9a1a      	ldr	r2, [sp, #104]	; 0x68
 80013d4:	b172      	cbz	r2, 80013f4 <main+0x1a4>
 80013d6:	6823      	ldr	r3, [r4, #0]
 80013d8:	991c      	ldr	r1, [sp, #112]	; 0x70
 80013da:	1a5b      	subs	r3, r3, r1
 80013dc:	429a      	cmp	r2, r3
 80013de:	d809      	bhi.n	80013f4 <main+0x1a4>
 80013e0:	6823      	ldr	r3, [r4, #0]
 80013e2:	931c      	str	r3, [sp, #112]	; 0x70
 80013e4:	9b1b      	ldr	r3, [sp, #108]	; 0x6c
 80013e6:	2b01      	cmp	r3, #1
 80013e8:	f083 0201 	eor.w	r2, r3, #1
 80013ec:	921b      	str	r2, [sp, #108]	; 0x6c
 80013ee:	bf14      	ite	ne
 80013f0:	612e      	strne	r6, [r5, #16]
 80013f2:	616b      	streq	r3, [r5, #20]
 80013f4:	a806      	add	r0, sp, #24
 80013f6:	f002 f943 	bl	8003680 <SpiFlashStore::Flash()>
 80013fa:	e7d3      	b.n	80013a4 <main+0x154>
 80013fc:	080057a0 	stmdaeq	r0, {r5, r7, r8, r9, sl, ip, lr}
 8001400:	080056ed 	stmdaeq	r0, {r0, r2, r3, r5, r6, r7, r9, sl, ip, lr}
 8001404:	080056c4 	stmdaeq	r0, {r2, r6, r7, r9, sl, ip, lr}
 8001408:	080057a8 	stmdaeq	r0, {r3, r5, r7, r8, r9, sl, ip, lr}
 800140c:	080056ce 	stmdaeq	r0, {r1, r2, r3, r6, r7, r9, sl, ip, lr}
 8001410:	080056b8 	stmdaeq	r0, {r3, r4, r5, r7, r9, sl, ip, lr}
 8001414:	080057ac 	stmdaeq	r0, {r2, r3, r5, r7, r8, r9, sl, ip, lr}
 8001418:	080056f6 	stmdaeq	r0, {r1, r2, r4, r5, r6, r7, r9, sl, ip, lr}
 800141c:	08005750 	stmdaeq	r0, {r4, r6, r8, r9, sl, ip, lr}
 8001420:	0800577a 	stmdaeq	r0, {r1, r3, r4, r5, r6, r8, r9, sl, ip, lr}
 8001424:	2000181c 	andcs	r1, r0, ip, lsl r8
 8001428:	40011000 	andmi	r1, r1, r0

0800142c <_itostr>:
 800142c:	b5f0      	push	{r4, r5, r6, r7, lr}
 800142e:	0fc7      	lsrs	r7, r0, #31
 8001430:	b091      	sub	sp, #68	; 0x44
 8001432:	bf18      	it	ne
 8001434:	4240      	negne	r0, r0
 8001436:	f10d 043f 	add.w	r4, sp, #63	; 0x3f
 800143a:	b9c8      	cbnz	r0, 8001470 <_itostr+0x44>
 800143c:	2330      	movs	r3, #48	; 0x30
 800143e:	f88d 303f 	strb.w	r3, [sp, #63]	; 0x3f
 8001442:	f10d 033e 	add.w	r3, sp, #62	; 0x3e
 8001446:	b132      	cbz	r2, 8001456 <_itostr+0x2a>
 8001448:	4668      	mov	r0, sp
 800144a:	2530      	movs	r5, #48	; 0x30
 800144c:	1ae6      	subs	r6, r4, r3
 800144e:	4296      	cmp	r6, r2
 8001450:	da01      	bge.n	8001456 <_itostr+0x2a>
 8001452:	4283      	cmp	r3, r0
 8001454:	d81c      	bhi.n	8001490 <_itostr+0x64>
 8001456:	b117      	cbz	r7, 800145e <_itostr+0x32>
 8001458:	222d      	movs	r2, #45	; 0x2d
 800145a:	f803 2901 	strb.w	r2, [r3], #-1
 800145e:	3301      	adds	r3, #1
 8001460:	1ae0      	subs	r0, r4, r3
 8001462:	3901      	subs	r1, #1
 8001464:	aa10      	add	r2, sp, #64	; 0x40
 8001466:	4293      	cmp	r3, r2
 8001468:	d315      	bcc.n	8001496 <_itostr+0x6a>
 800146a:	3001      	adds	r0, #1
 800146c:	b011      	add	sp, #68	; 0x44
 800146e:	bdf0      	pop	{r4, r5, r6, r7, pc}
 8001470:	4623      	mov	r3, r4
 8001472:	250a      	movs	r5, #10
 8001474:	46ec      	mov	ip, sp
 8001476:	fb90 f6f5 	sdiv	r6, r0, r5
 800147a:	fb05 0016 	mls	r0, r5, r6, r0
 800147e:	3030      	adds	r0, #48	; 0x30
 8001480:	f803 0901 	strb.w	r0, [r3], #-1
 8001484:	4630      	mov	r0, r6
 8001486:	2e00      	cmp	r6, #0
 8001488:	d0dd      	beq.n	8001446 <_itostr+0x1a>
 800148a:	4563      	cmp	r3, ip
 800148c:	d1f3      	bne.n	8001476 <_itostr+0x4a>
 800148e:	e7da      	b.n	8001446 <_itostr+0x1a>
 8001490:	f803 5901 	strb.w	r5, [r3], #-1
 8001494:	e7da      	b.n	800144c <_itostr+0x20>
 8001496:	f813 2b01 	ldrb.w	r2, [r3], #1
 800149a:	f801 2f01 	strb.w	r2, [r1, #1]!
 800149e:	e7e1      	b.n	8001464 <_itostr+0x38>

080014a0 <_xputch>:
 80014a0:	4603      	mov	r3, r0
 80014a2:	b410      	push	{r4}
 80014a4:	4c08      	ldr	r4, [pc, #32]	; (80014c8 <_xputch+0x28>)
 80014a6:	68da      	ldr	r2, [r3, #12]
 80014a8:	4608      	mov	r0, r1
 80014aa:	6821      	ldr	r1, [r4, #0]
 80014ac:	3201      	adds	r2, #1
 80014ae:	60da      	str	r2, [r3, #12]
 80014b0:	b139      	cbz	r1, 80014c2 <_xputch+0x22>
 80014b2:	691b      	ldr	r3, [r3, #16]
 80014b4:	429a      	cmp	r2, r3
 80014b6:	da02      	bge.n	80014be <_xputch+0x1e>
 80014b8:	1c4b      	adds	r3, r1, #1
 80014ba:	6023      	str	r3, [r4, #0]
 80014bc:	7008      	strb	r0, [r1, #0]
 80014be:	bc10      	pop	{r4}
 80014c0:	4770      	bx	lr
 80014c2:	bc10      	pop	{r4}
 80014c4:	f002 be30 	b.w	8004128 <console_putc>
 80014c8:	200000f0 	strdcs	r0, [r0], -r0	; <UNPREDICTABLE>

080014cc <_format_int>:
 80014cc:	e92d 4ff0 	stmdb	sp!, {r4, r5, r6, r7, r8, r9, sl, fp, lr}
 80014d0:	461f      	mov	r7, r3
 80014d2:	b091      	sub	sp, #68	; 0x44
 80014d4:	ea52 0307 	orrs.w	r3, r2, r7
 80014d8:	4680      	mov	r8, r0
 80014da:	4616      	mov	r6, r2
 80014dc:	f10d 053f 	add.w	r5, sp, #63	; 0x3f
 80014e0:	d138      	bne.n	8001554 <_format_int+0x88>
 80014e2:	2330      	movs	r3, #48	; 0x30
 80014e4:	f10d 043e 	add.w	r4, sp, #62	; 0x3e
 80014e8:	f88d 303f 	strb.w	r3, [sp, #63]	; 0x3f
 80014ec:	f8d8 3000 	ldr.w	r3, [r8]
 80014f0:	07d8      	lsls	r0, r3, #31
 80014f2:	d508      	bpl.n	8001506 <_format_int+0x3a>
 80014f4:	466a      	mov	r2, sp
 80014f6:	2030      	movs	r0, #48	; 0x30
 80014f8:	f8d8 1004 	ldr.w	r1, [r8, #4]
 80014fc:	1b2e      	subs	r6, r5, r4
 80014fe:	428e      	cmp	r6, r1
 8001500:	da01      	bge.n	8001506 <_format_int+0x3a>
 8001502:	4294      	cmp	r4, r2
 8001504:	d843      	bhi.n	800158e <_format_int+0xc2>
 8001506:	0699      	lsls	r1, r3, #26
 8001508:	d508      	bpl.n	800151c <_format_int+0x50>
 800150a:	466a      	mov	r2, sp
 800150c:	2030      	movs	r0, #48	; 0x30
 800150e:	f8d8 1008 	ldr.w	r1, [r8, #8]
 8001512:	1b2e      	subs	r6, r5, r4
 8001514:	428e      	cmp	r6, r1
 8001516:	da01      	bge.n	800151c <_format_int+0x50>
 8001518:	4294      	cmp	r4, r2
 800151a:	d83b      	bhi.n	8001594 <_format_int+0xc8>
 800151c:	071a      	lsls	r2, r3, #28
 800151e:	bf44      	itt	mi
 8001520:	222d      	movmi	r2, #45	; 0x2d
 8001522:	f804 2901 	strbmi.w	r2, [r4], #-1
 8001526:	065b      	lsls	r3, r3, #25
 8001528:	d408      	bmi.n	800153c <_format_int+0x70>
 800152a:	466b      	mov	r3, sp
 800152c:	2120      	movs	r1, #32
 800152e:	f8d8 2008 	ldr.w	r2, [r8, #8]
 8001532:	1b28      	subs	r0, r5, r4
 8001534:	4290      	cmp	r0, r2
 8001536:	da01      	bge.n	800153c <_format_int+0x70>
 8001538:	429c      	cmp	r4, r3
 800153a:	d82e      	bhi.n	800159a <_format_int+0xce>
 800153c:	1b2d      	subs	r5, r5, r4
 800153e:	3401      	adds	r4, #1
 8001540:	ab10      	add	r3, sp, #64	; 0x40
 8001542:	429c      	cmp	r4, r3
 8001544:	d32c      	bcc.n	80015a0 <_format_int+0xd4>
 8001546:	f8d8 3008 	ldr.w	r3, [r8, #8]
 800154a:	42ab      	cmp	r3, r5
 800154c:	dc2e      	bgt.n	80015ac <_format_int+0xe0>
 800154e:	b011      	add	sp, #68	; 0x44
 8001550:	e8bd 8ff0 	ldmia.w	sp!, {r4, r5, r6, r7, r8, r9, sl, fp, pc}
 8001554:	462c      	mov	r4, r5
 8001556:	46eb      	mov	fp, sp
 8001558:	4630      	mov	r0, r6
 800155a:	4639      	mov	r1, r7
 800155c:	220a      	movs	r2, #10
 800155e:	2300      	movs	r3, #0
 8001560:	f7ff f894 	bl	800068c <__aeabi_uldivmod>
 8001564:	46b2      	mov	sl, r6
 8001566:	3230      	adds	r2, #48	; 0x30
 8001568:	46b9      	mov	r9, r7
 800156a:	2300      	movs	r3, #0
 800156c:	4630      	mov	r0, r6
 800156e:	4639      	mov	r1, r7
 8001570:	f804 2901 	strb.w	r2, [r4], #-1
 8001574:	220a      	movs	r2, #10
 8001576:	f7ff f889 	bl	800068c <__aeabi_uldivmod>
 800157a:	f1ba 0f0a 	cmp.w	sl, #10
 800157e:	f179 0300 	sbcs.w	r3, r9, #0
 8001582:	4606      	mov	r6, r0
 8001584:	460f      	mov	r7, r1
 8001586:	d3b1      	bcc.n	80014ec <_format_int+0x20>
 8001588:	455c      	cmp	r4, fp
 800158a:	d1e5      	bne.n	8001558 <_format_int+0x8c>
 800158c:	e7ae      	b.n	80014ec <_format_int+0x20>
 800158e:	f804 0901 	strb.w	r0, [r4], #-1
 8001592:	e7b3      	b.n	80014fc <_format_int+0x30>
 8001594:	f804 0901 	strb.w	r0, [r4], #-1
 8001598:	e7bb      	b.n	8001512 <_format_int+0x46>
 800159a:	f804 1901 	strb.w	r1, [r4], #-1
 800159e:	e7c8      	b.n	8001532 <_format_int+0x66>
 80015a0:	4640      	mov	r0, r8
 80015a2:	f814 1b01 	ldrb.w	r1, [r4], #1
 80015a6:	f7ff ff7b 	bl	80014a0 <_xputch>
 80015aa:	e7c9      	b.n	8001540 <_format_int+0x74>
 80015ac:	2120      	movs	r1, #32
 80015ae:	4640      	mov	r0, r8
 80015b0:	f7ff ff76 	bl	80014a0 <_xputch>
 80015b4:	3501      	adds	r5, #1
 80015b6:	e7c6      	b.n	8001546 <_format_int+0x7a>

080015b8 <_format_hex>:
 80015b8:	b5f0      	push	{r4, r5, r6, r7, lr}
 80015ba:	b091      	sub	sp, #68	; 0x44
 80015bc:	4606      	mov	r6, r0
 80015be:	6804      	ldr	r4, [r0, #0]
 80015c0:	f10d 023f 	add.w	r2, sp, #63	; 0x3f
 80015c4:	bb61      	cbnz	r1, 8001620 <_format_hex+0x68>
 80015c6:	2330      	movs	r3, #48	; 0x30
 80015c8:	f88d 303f 	strb.w	r3, [sp, #63]	; 0x3f
 80015cc:	f10d 033e 	add.w	r3, sp, #62	; 0x3e
 80015d0:	07e5      	lsls	r5, r4, #31
 80015d2:	d507      	bpl.n	80015e4 <_format_hex+0x2c>
 80015d4:	4669      	mov	r1, sp
 80015d6:	2530      	movs	r5, #48	; 0x30
 80015d8:	6870      	ldr	r0, [r6, #4]
 80015da:	1ad7      	subs	r7, r2, r3
 80015dc:	4287      	cmp	r7, r0
 80015de:	da01      	bge.n	80015e4 <_format_hex+0x2c>
 80015e0:	428b      	cmp	r3, r1
 80015e2:	d831      	bhi.n	8001648 <_format_hex+0x90>
 80015e4:	06a0      	lsls	r0, r4, #26
 80015e6:	d507      	bpl.n	80015f8 <_format_hex+0x40>
 80015e8:	4669      	mov	r1, sp
 80015ea:	2530      	movs	r5, #48	; 0x30
 80015ec:	68b0      	ldr	r0, [r6, #8]
 80015ee:	1ad7      	subs	r7, r2, r3
 80015f0:	4287      	cmp	r7, r0
 80015f2:	da01      	bge.n	80015f8 <_format_hex+0x40>
 80015f4:	428b      	cmp	r3, r1
 80015f6:	d82a      	bhi.n	800164e <_format_hex+0x96>
 80015f8:	0661      	lsls	r1, r4, #25
 80015fa:	d407      	bmi.n	800160c <_format_hex+0x54>
 80015fc:	4669      	mov	r1, sp
 80015fe:	2420      	movs	r4, #32
 8001600:	68b0      	ldr	r0, [r6, #8]
 8001602:	1ad5      	subs	r5, r2, r3
 8001604:	4285      	cmp	r5, r0
 8001606:	da01      	bge.n	800160c <_format_hex+0x54>
 8001608:	428b      	cmp	r3, r1
 800160a:	d823      	bhi.n	8001654 <_format_hex+0x9c>
 800160c:	1ad5      	subs	r5, r2, r3
 800160e:	1c5c      	adds	r4, r3, #1
 8001610:	ab10      	add	r3, sp, #64	; 0x40
 8001612:	429c      	cmp	r4, r3
 8001614:	d321      	bcc.n	800165a <_format_hex+0xa2>
 8001616:	68b3      	ldr	r3, [r6, #8]
 8001618:	429d      	cmp	r5, r3
 800161a:	db24      	blt.n	8001666 <_format_hex+0xae>
 800161c:	b011      	add	sp, #68	; 0x44
 800161e:	bdf0      	pop	{r4, r5, r6, r7, pc}
 8001620:	f014 0f02 	tst.w	r4, #2
 8001624:	bf0c      	ite	eq
 8001626:	2757      	moveq	r7, #87	; 0x57
 8001628:	2737      	movne	r7, #55	; 0x37
 800162a:	4613      	mov	r3, r2
 800162c:	466d      	mov	r5, sp
 800162e:	f001 000f 	and.w	r0, r1, #15
 8001632:	2809      	cmp	r0, #9
 8001634:	bf94      	ite	ls
 8001636:	3030      	addls	r0, #48	; 0x30
 8001638:	19c0      	addhi	r0, r0, r7
 800163a:	0909      	lsrs	r1, r1, #4
 800163c:	f803 0901 	strb.w	r0, [r3], #-1
 8001640:	d0c6      	beq.n	80015d0 <_format_hex+0x18>
 8001642:	42ab      	cmp	r3, r5
 8001644:	d1f3      	bne.n	800162e <_format_hex+0x76>
 8001646:	e7c3      	b.n	80015d0 <_format_hex+0x18>
 8001648:	f803 5901 	strb.w	r5, [r3], #-1
 800164c:	e7c5      	b.n	80015da <_format_hex+0x22>
 800164e:	f803 5901 	strb.w	r5, [r3], #-1
 8001652:	e7cc      	b.n	80015ee <_format_hex+0x36>
 8001654:	f803 4901 	strb.w	r4, [r3], #-1
 8001658:	e7d3      	b.n	8001602 <_format_hex+0x4a>
 800165a:	4630      	mov	r0, r6
 800165c:	f814 1b01 	ldrb.w	r1, [r4], #1
 8001660:	f7ff ff1e 	bl	80014a0 <_xputch>
 8001664:	e7d4      	b.n	8001610 <_format_hex+0x58>
 8001666:	2120      	movs	r1, #32
 8001668:	4630      	mov	r0, r6
 800166a:	f7ff ff19 	bl	80014a0 <_xputch>
 800166e:	3501      	adds	r5, #1
 8001670:	e7d1      	b.n	8001616 <_format_hex+0x5e>
	...

08001674 <_vprintf>:
 8001674:	e92d 4ff0 	stmdb	sp!, {r4, r5, r6, r7, r8, r9, sl, fp, lr}
 8001678:	4614      	mov	r4, r2
 800167a:	2200      	movs	r2, #0
 800167c:	460b      	mov	r3, r1
 800167e:	2700      	movs	r7, #0
 8001680:	b099      	sub	sp, #100	; 0x64
 8001682:	e9cd 2006 	strd	r2, r0, [sp, #24]
 8001686:	ae08      	add	r6, sp, #32
 8001688:	7819      	ldrb	r1, [r3, #0]
 800168a:	b919      	cbnz	r1, 8001694 <_vprintf+0x20>
 800168c:	9806      	ldr	r0, [sp, #24]
 800168e:	b019      	add	sp, #100	; 0x64
 8001690:	e8bd 8ff0 	ldmia.w	sp!, {r4, r5, r6, r7, r8, r9, sl, fp, pc}
 8001694:	2925      	cmp	r1, #37	; 0x25
 8001696:	f103 0501 	add.w	r5, r3, #1
 800169a:	d004      	beq.n	80016a6 <_vprintf+0x32>
 800169c:	a803      	add	r0, sp, #12
 800169e:	f7ff feff 	bl	80014a0 <_xputch>
 80016a2:	462b      	mov	r3, r5
 80016a4:	e7f0      	b.n	8001688 <_vprintf+0x14>
 80016a6:	2200      	movs	r2, #0
 80016a8:	e9cd 2203 	strd	r2, r2, [sp, #12]
 80016ac:	9205      	str	r2, [sp, #20]
 80016ae:	785a      	ldrb	r2, [r3, #1]
 80016b0:	2a30      	cmp	r2, #48	; 0x30
 80016b2:	d12b      	bne.n	800170c <_vprintf+0x98>
 80016b4:	2220      	movs	r2, #32
 80016b6:	9203      	str	r2, [sp, #12]
 80016b8:	1c9d      	adds	r5, r3, #2
 80016ba:	2200      	movs	r2, #0
 80016bc:	46ac      	mov	ip, r5
 80016be:	4613      	mov	r3, r2
 80016c0:	f04f 0e0a 	mov.w	lr, #10
 80016c4:	f89c 1000 	ldrb.w	r1, [ip]
 80016c8:	4665      	mov	r5, ip
 80016ca:	f1a1 0030 	sub.w	r0, r1, #48	; 0x30
 80016ce:	2809      	cmp	r0, #9
 80016d0:	f10c 0c01 	add.w	ip, ip, #1
 80016d4:	d91e      	bls.n	8001714 <_vprintf+0xa0>
 80016d6:	b12a      	cbz	r2, 80016e4 <_vprintf+0x70>
 80016d8:	9305      	str	r3, [sp, #20]
 80016da:	b11b      	cbz	r3, 80016e4 <_vprintf+0x70>
 80016dc:	9b03      	ldr	r3, [sp, #12]
 80016de:	f043 0310 	orr.w	r3, r3, #16
 80016e2:	9303      	str	r3, [sp, #12]
 80016e4:	292e      	cmp	r1, #46	; 0x2e
 80016e6:	d124      	bne.n	8001732 <_vprintf+0xbe>
 80016e8:	786b      	ldrb	r3, [r5, #1]
 80016ea:	2b2a      	cmp	r3, #42	; 0x2a
 80016ec:	d016      	beq.n	800171c <_vprintf+0xa8>
 80016ee:	2100      	movs	r1, #0
 80016f0:	f04f 0c0a 	mov.w	ip, #10
 80016f4:	460a      	mov	r2, r1
 80016f6:	1c68      	adds	r0, r5, #1
 80016f8:	7803      	ldrb	r3, [r0, #0]
 80016fa:	4605      	mov	r5, r0
 80016fc:	3b30      	subs	r3, #48	; 0x30
 80016fe:	2b09      	cmp	r3, #9
 8001700:	f100 0001 	add.w	r0, r0, #1
 8001704:	d958      	bls.n	80017b8 <_vprintf+0x144>
 8001706:	b181      	cbz	r1, 800172a <_vprintf+0xb6>
 8001708:	9204      	str	r2, [sp, #16]
 800170a:	e00e      	b.n	800172a <_vprintf+0xb6>
 800170c:	2a2d      	cmp	r2, #45	; 0x2d
 800170e:	d1d4      	bne.n	80016ba <_vprintf+0x46>
 8001710:	2240      	movs	r2, #64	; 0x40
 8001712:	e7d0      	b.n	80016b6 <_vprintf+0x42>
 8001714:	2201      	movs	r2, #1
 8001716:	fb0e 0303 	mla	r3, lr, r3, r0
 800171a:	e7d3      	b.n	80016c4 <_vprintf+0x50>
 800171c:	f854 3b04 	ldr.w	r3, [r4], #4
 8001720:	3502      	adds	r5, #2
 8001722:	2b00      	cmp	r3, #0
 8001724:	bfb8      	it	lt
 8001726:	425b      	neglt	r3, r3
 8001728:	9304      	str	r3, [sp, #16]
 800172a:	9b03      	ldr	r3, [sp, #12]
 800172c:	f043 0301 	orr.w	r3, r3, #1
 8001730:	9303      	str	r3, [sp, #12]
 8001732:	782b      	ldrb	r3, [r5, #0]
 8001734:	2b6c      	cmp	r3, #108	; 0x6c
 8001736:	bf04      	itt	eq
 8001738:	9b03      	ldreq	r3, [sp, #12]
 800173a:	3501      	addeq	r5, #1
 800173c:	7829      	ldrb	r1, [r5, #0]
 800173e:	bf04      	itt	eq
 8001740:	f043 0304 	orreq.w	r3, r3, #4
 8001744:	9303      	streq	r3, [sp, #12]
 8001746:	2958      	cmp	r1, #88	; 0x58
 8001748:	f000 8173 	beq.w	8001a32 <_vprintf+0x3be>
 800174c:	f1a1 0363 	sub.w	r3, r1, #99	; 0x63
 8001750:	b2da      	uxtb	r2, r3
 8001752:	2a15      	cmp	r2, #21
 8001754:	d8a2      	bhi.n	800169c <_vprintf+0x28>
 8001756:	2b15      	cmp	r3, #21
 8001758:	d8a0      	bhi.n	800169c <_vprintf+0x28>
 800175a:	a201      	add	r2, pc, #4	; (adr r2, 8001760 <_vprintf+0xec>)
 800175c:	f852 f023 	ldr.w	pc, [r2, r3, lsl #2]
 8001760:	080017c1 	stmdaeq	r0, {r0, r6, r7, r8, r9, sl, ip}
 8001764:	080017cf 	stmdaeq	r0, {r0, r1, r2, r3, r6, r7, r8, r9, sl, ip}
 8001768:	0800169d 	stmdaeq	r0, {r0, r2, r3, r4, r7, r9, sl, ip}
 800176c:	08001803 	stmdaeq	r0, {r0, r1, fp, ip}
 8001770:	0800169d 	stmdaeq	r0, {r0, r2, r3, r4, r7, r9, sl, ip}
 8001774:	0800169d 	stmdaeq	r0, {r0, r2, r3, r4, r7, r9, sl, ip}
 8001778:	080017cf 	stmdaeq	r0, {r0, r1, r2, r3, r6, r7, r8, r9, sl, ip}
 800177c:	0800169d 	stmdaeq	r0, {r0, r2, r3, r4, r7, r9, sl, ip}
 8001780:	0800169d 	stmdaeq	r0, {r0, r2, r3, r4, r7, r9, sl, ip}
 8001784:	0800169d 	stmdaeq	r0, {r0, r2, r3, r4, r7, r9, sl, ip}
 8001788:	0800169d 	stmdaeq	r0, {r0, r2, r3, r4, r7, r9, sl, ip}
 800178c:	0800169d 	stmdaeq	r0, {r0, r2, r3, r4, r7, r9, sl, ip}
 8001790:	0800169d 	stmdaeq	r0, {r0, r2, r3, r4, r7, r9, sl, ip}
 8001794:	08001975 	stmdaeq	r0, {r0, r2, r4, r5, r6, r8, fp, ip}
 8001798:	0800169d 	stmdaeq	r0, {r0, r2, r3, r4, r7, r9, sl, ip}
 800179c:	0800169d 	stmdaeq	r0, {r0, r2, r3, r4, r7, r9, sl, ip}
 80017a0:	0800199b 	stmdaeq	r0, {r0, r1, r3, r4, r7, r8, fp, ip}
 80017a4:	0800169d 	stmdaeq	r0, {r0, r2, r3, r4, r7, r9, sl, ip}
 80017a8:	08001a15 	stmdaeq	r0, {r0, r2, r4, r9, fp, ip}
 80017ac:	0800169d 	stmdaeq	r0, {r0, r2, r3, r4, r7, r9, sl, ip}
 80017b0:	0800169d 	stmdaeq	r0, {r0, r2, r3, r4, r7, r9, sl, ip}
 80017b4:	08001a3b 	stmdaeq	r0, {r0, r1, r3, r4, r5, r9, fp, ip}
 80017b8:	2101      	movs	r1, #1
 80017ba:	fb0c 3202 	mla	r2, ip, r2, r3
 80017be:	e79b      	b.n	80016f8 <_vprintf+0x84>
 80017c0:	f854 1b04 	ldr.w	r1, [r4], #4
 80017c4:	a803      	add	r0, sp, #12
 80017c6:	f7ff fe6b 	bl	80014a0 <_xputch>
 80017ca:	3501      	adds	r5, #1
 80017cc:	e769      	b.n	80016a2 <_vprintf+0x2e>
 80017ce:	9903      	ldr	r1, [sp, #12]
 80017d0:	074a      	lsls	r2, r1, #29
 80017d2:	bf43      	ittte	mi
 80017d4:	3407      	addmi	r4, #7
 80017d6:	f024 0307 	bicmi.w	r3, r4, #7
 80017da:	461c      	movmi	r4, r3
 80017dc:	f854 2b04 	ldrpl.w	r2, [r4], #4
 80017e0:	bf4a      	itet	mi
 80017e2:	685b      	ldrmi	r3, [r3, #4]
 80017e4:	17d3      	asrpl	r3, r2, #31
 80017e6:	f854 2b08 	ldrmi.w	r2, [r4], #8
 80017ea:	2b00      	cmp	r3, #0
 80017ec:	da05      	bge.n	80017fa <_vprintf+0x186>
 80017ee:	f041 0108 	orr.w	r1, r1, #8
 80017f2:	4252      	negs	r2, r2
 80017f4:	9103      	str	r1, [sp, #12]
 80017f6:	eb63 0343 	sbc.w	r3, r3, r3, lsl #1
 80017fa:	a803      	add	r0, sp, #12
 80017fc:	f7ff fe66 	bl	80014cc <_format_int>
 8001800:	e7e3      	b.n	80017ca <_vprintf+0x156>
 8001802:	3407      	adds	r4, #7
 8001804:	f024 0407 	bic.w	r4, r4, #7
 8001808:	e8f4 0102 	ldrd	r0, r1, [r4], #8
 800180c:	f7fe fd44 	bl	8000298 <__aeabi_d2f>
 8001810:	9b03      	ldr	r3, [sp, #12]
 8001812:	4639      	mov	r1, r7
 8001814:	07db      	lsls	r3, r3, #31
 8001816:	bf54      	ite	pl
 8001818:	f04f 0a06 	movpl.w	sl, #6
 800181c:	f8dd a010 	ldrmi.w	sl, [sp, #16]
 8001820:	4681      	mov	r9, r0
 8001822:	f7fe fee5 	bl	80005f0 <__aeabi_fcmplt>
 8001826:	2800      	cmp	r0, #0
 8001828:	d069      	beq.n	80018fe <_vprintf+0x28a>
 800182a:	232d      	movs	r3, #45	; 0x2d
 800182c:	f109 4900 	add.w	r9, r9, #2147483648	; 0x80000000
 8001830:	f88d 3020 	strb.w	r3, [sp, #32]
 8001834:	f10d 0b21 	add.w	fp, sp, #33	; 0x21
 8001838:	4648      	mov	r0, r9
 800183a:	f7fe ff01 	bl	8000640 <__aeabi_f2iz>
 800183e:	4659      	mov	r1, fp
 8001840:	2200      	movs	r2, #0
 8001842:	4680      	mov	r8, r0
 8001844:	f7ff fdf2 	bl	800142c <_itostr>
 8001848:	eb0b 0200 	add.w	r2, fp, r0
 800184c:	e9cd 2000 	strd	r2, r0, [sp]
 8001850:	4640      	mov	r0, r8
 8001852:	f7fe fe2b 	bl	80004ac <__aeabi_i2f>
 8001856:	4601      	mov	r1, r0
 8001858:	4648      	mov	r0, r9
 800185a:	f7fe fd71 	bl	8000340 <__aeabi_fsub>
 800185e:	222e      	movs	r2, #46	; 0x2e
 8001860:	4601      	mov	r1, r0
 8001862:	200a      	movs	r0, #10
 8001864:	9b00      	ldr	r3, [sp, #0]
 8001866:	f10a 0901 	add.w	r9, sl, #1
 800186a:	f103 0801 	add.w	r8, r3, #1
 800186e:	9b01      	ldr	r3, [sp, #4]
 8001870:	f80b 2003 	strb.w	r2, [fp, r3]
 8001874:	4603      	mov	r3, r0
 8001876:	f1ba 0f00 	cmp.w	sl, #0
 800187a:	dc42      	bgt.n	8001902 <_vprintf+0x28e>
 800187c:	9100      	str	r1, [sp, #0]
 800187e:	f7fe fe15 	bl	80004ac <__aeabi_i2f>
 8001882:	9900      	ldr	r1, [sp, #0]
 8001884:	f7fe fc54 	bl	8000130 <__aeabi_fmul>
 8001888:	f7fe feda 	bl	8000640 <__aeabi_f2iz>
 800188c:	4641      	mov	r1, r8
 800188e:	464a      	mov	r2, r9
 8001890:	f7ff fdcc 	bl	800142c <_itostr>
 8001894:	4480      	add	r8, r0
 8001896:	eba8 0806 	sub.w	r8, r8, r6
 800189a:	f108 31ff 	add.w	r1, r8, #4294967295	; 0xffffffff
 800189e:	5c73      	ldrb	r3, [r6, r1]
 80018a0:	1872      	adds	r2, r6, r1
 80018a2:	2b34      	cmp	r3, #52	; 0x34
 80018a4:	d910      	bls.n	80018c8 <_vprintf+0x254>
 80018a6:	f812 0c01 	ldrb.w	r0, [r2, #-1]
 80018aa:	1e53      	subs	r3, r2, #1
 80018ac:	282e      	cmp	r0, #46	; 0x2e
 80018ae:	d02f      	beq.n	8001910 <_vprintf+0x29c>
 80018b0:	469c      	mov	ip, r3
 80018b2:	f04f 0e30 	mov.w	lr, #48	; 0x30
 80018b6:	4663      	mov	r3, ip
 80018b8:	f81c 0901 	ldrb.w	r0, [ip], #-1
 80018bc:	2839      	cmp	r0, #57	; 0x39
 80018be:	d024      	beq.n	800190a <_vprintf+0x296>
 80018c0:	282e      	cmp	r0, #46	; 0x2e
 80018c2:	d025      	beq.n	8001910 <_vprintf+0x29c>
 80018c4:	3001      	adds	r0, #1
 80018c6:	7018      	strb	r0, [r3, #0]
 80018c8:	f101 0360 	add.w	r3, r1, #96	; 0x60
 80018cc:	446b      	add	r3, sp
 80018ce:	f813 3c41 	ldrb.w	r3, [r3, #-65]
 80018d2:	2b2e      	cmp	r3, #46	; 0x2e
 80018d4:	bf08      	it	eq
 80018d6:	f101 31ff 	addeq.w	r1, r1, #4294967295	; 0xffffffff
 80018da:	4688      	mov	r8, r1
 80018dc:	4689      	mov	r9, r1
 80018de:	9b05      	ldr	r3, [sp, #20]
 80018e0:	454b      	cmp	r3, r9
 80018e2:	dc40      	bgt.n	8001966 <_vprintf+0x2f2>
 80018e4:	46b1      	mov	r9, r6
 80018e6:	f1b8 0f00 	cmp.w	r8, #0
 80018ea:	f77f af6e 	ble.w	80017ca <_vprintf+0x156>
 80018ee:	f819 1b01 	ldrb.w	r1, [r9], #1
 80018f2:	a803      	add	r0, sp, #12
 80018f4:	f7ff fdd4 	bl	80014a0 <_xputch>
 80018f8:	f108 38ff 	add.w	r8, r8, #4294967295	; 0xffffffff
 80018fc:	e7f3      	b.n	80018e6 <_vprintf+0x272>
 80018fe:	46b3      	mov	fp, r6
 8001900:	e79a      	b.n	8001838 <_vprintf+0x1c4>
 8001902:	4358      	muls	r0, r3
 8001904:	f10a 3aff 	add.w	sl, sl, #4294967295	; 0xffffffff
 8001908:	e7b5      	b.n	8001876 <_vprintf+0x202>
 800190a:	f88c e001 	strb.w	lr, [ip, #1]
 800190e:	e7d2      	b.n	80018b6 <_vprintf+0x242>
 8001910:	f04f 0c30 	mov.w	ip, #48	; 0x30
 8001914:	3b01      	subs	r3, #1
 8001916:	7818      	ldrb	r0, [r3, #0]
 8001918:	2839      	cmp	r0, #57	; 0x39
 800191a:	d112      	bne.n	8001942 <_vprintf+0x2ce>
 800191c:	42b3      	cmp	r3, r6
 800191e:	d20d      	bcs.n	800193c <_vprintf+0x2c8>
 8001920:	1c98      	adds	r0, r3, #2
 8001922:	1c59      	adds	r1, r3, #1
 8001924:	4281      	cmp	r1, r0
 8001926:	eba2 0203 	sub.w	r2, r2, r3
 800192a:	d913      	bls.n	8001954 <_vprintf+0x2e0>
 800192c:	3201      	adds	r2, #1
 800192e:	441a      	add	r2, r3
 8001930:	428a      	cmp	r2, r1
 8001932:	d10b      	bne.n	800194c <_vprintf+0x2d8>
 8001934:	2231      	movs	r2, #49	; 0x31
 8001936:	4641      	mov	r1, r8
 8001938:	705a      	strb	r2, [r3, #1]
 800193a:	e7c5      	b.n	80018c8 <_vprintf+0x254>
 800193c:	f803 c901 	strb.w	ip, [r3], #-1
 8001940:	e7e9      	b.n	8001916 <_vprintf+0x2a2>
 8001942:	42b3      	cmp	r3, r6
 8001944:	d3ec      	bcc.n	8001920 <_vprintf+0x2ac>
 8001946:	282d      	cmp	r0, #45	; 0x2d
 8001948:	d0ea      	beq.n	8001920 <_vprintf+0x2ac>
 800194a:	e7bb      	b.n	80018c4 <_vprintf+0x250>
 800194c:	f811 0b01 	ldrb.w	r0, [r1], #1
 8001950:	7008      	strb	r0, [r1, #0]
 8001952:	e7ed      	b.n	8001930 <_vprintf+0x2bc>
 8001954:	4411      	add	r1, r2
 8001956:	4402      	add	r2, r0
 8001958:	4290      	cmp	r0, r2
 800195a:	d0eb      	beq.n	8001934 <_vprintf+0x2c0>
 800195c:	f811 cd01 	ldrb.w	ip, [r1, #-1]!
 8001960:	f802 cd01 	strb.w	ip, [r2, #-1]!
 8001964:	e7f8      	b.n	8001958 <_vprintf+0x2e4>
 8001966:	2120      	movs	r1, #32
 8001968:	a803      	add	r0, sp, #12
 800196a:	f7ff fd99 	bl	80014a0 <_xputch>
 800196e:	f109 0901 	add.w	r9, r9, #1
 8001972:	e7b4      	b.n	80018de <_vprintf+0x26a>
 8001974:	2308      	movs	r3, #8
 8001976:	9305      	str	r3, [sp, #20]
 8001978:	2320      	movs	r3, #32
 800197a:	2130      	movs	r1, #48	; 0x30
 800197c:	f854 8b04 	ldr.w	r8, [r4], #4
 8001980:	a803      	add	r0, sp, #12
 8001982:	9303      	str	r3, [sp, #12]
 8001984:	f7ff fd8c 	bl	80014a0 <_xputch>
 8001988:	2178      	movs	r1, #120	; 0x78
 800198a:	a803      	add	r0, sp, #12
 800198c:	f7ff fd88 	bl	80014a0 <_xputch>
 8001990:	4641      	mov	r1, r8
 8001992:	a803      	add	r0, sp, #12
 8001994:	f7ff fe10 	bl	80015b8 <_format_hex>
 8001998:	e717      	b.n	80017ca <_vprintf+0x156>
 800199a:	f04f 0800 	mov.w	r8, #0
 800199e:	f854 9b04 	ldr.w	r9, [r4], #4
 80019a2:	f819 3008 	ldrb.w	r3, [r9, r8]
 80019a6:	b993      	cbnz	r3, 80019ce <_vprintf+0x35a>
 80019a8:	9b03      	ldr	r3, [sp, #12]
 80019aa:	07d9      	lsls	r1, r3, #31
 80019ac:	d503      	bpl.n	80019b6 <_vprintf+0x342>
 80019ae:	9b04      	ldr	r3, [sp, #16]
 80019b0:	4598      	cmp	r8, r3
 80019b2:	bfa8      	it	ge
 80019b4:	4698      	movge	r8, r3
 80019b6:	9b03      	ldr	r3, [sp, #12]
 80019b8:	f108 0a01 	add.w	sl, r8, #1
 80019bc:	065a      	lsls	r2, r3, #25
 80019be:	d403      	bmi.n	80019c8 <_vprintf+0x354>
 80019c0:	9b05      	ldr	r3, [sp, #20]
 80019c2:	4598      	cmp	r8, r3
 80019c4:	db06      	blt.n	80019d4 <_vprintf+0x360>
 80019c6:	46d0      	mov	r8, sl
 80019c8:	f109 39ff 	add.w	r9, r9, #4294967295	; 0xffffffff
 80019cc:	e00e      	b.n	80019ec <_vprintf+0x378>
 80019ce:	f108 0801 	add.w	r8, r8, #1
 80019d2:	e7e6      	b.n	80019a2 <_vprintf+0x32e>
 80019d4:	2120      	movs	r1, #32
 80019d6:	a803      	add	r0, sp, #12
 80019d8:	f7ff fd62 	bl	80014a0 <_xputch>
 80019dc:	46d0      	mov	r8, sl
 80019de:	e7ea      	b.n	80019b6 <_vprintf+0x342>
 80019e0:	a803      	add	r0, sp, #12
 80019e2:	f7ff fd5d 	bl	80014a0 <_xputch>
 80019e6:	9b04      	ldr	r3, [sp, #16]
 80019e8:	3b01      	subs	r3, #1
 80019ea:	9304      	str	r3, [sp, #16]
 80019ec:	9b03      	ldr	r3, [sp, #12]
 80019ee:	07db      	lsls	r3, r3, #31
 80019f0:	d501      	bpl.n	80019f6 <_vprintf+0x382>
 80019f2:	9b04      	ldr	r3, [sp, #16]
 80019f4:	b11b      	cbz	r3, 80019fe <_vprintf+0x38a>
 80019f6:	f819 1f01 	ldrb.w	r1, [r9, #1]!
 80019fa:	2900      	cmp	r1, #0
 80019fc:	d1f0      	bne.n	80019e0 <_vprintf+0x36c>
 80019fe:	9b05      	ldr	r3, [sp, #20]
 8001a00:	4543      	cmp	r3, r8
 8001a02:	f77f aee2 	ble.w	80017ca <_vprintf+0x156>
 8001a06:	2120      	movs	r1, #32
 8001a08:	a803      	add	r0, sp, #12
 8001a0a:	f7ff fd49 	bl	80014a0 <_xputch>
 8001a0e:	f108 0801 	add.w	r8, r8, #1
 8001a12:	e7f4      	b.n	80019fe <_vprintf+0x38a>
 8001a14:	9b03      	ldr	r3, [sp, #12]
 8001a16:	f013 0304 	ands.w	r3, r3, #4
 8001a1a:	bf1d      	ittte	ne
 8001a1c:	3407      	addne	r4, #7
 8001a1e:	f024 0307 	bicne.w	r3, r4, #7
 8001a22:	461c      	movne	r4, r3
 8001a24:	f854 2b04 	ldreq.w	r2, [r4], #4
 8001a28:	bf1c      	itt	ne
 8001a2a:	f854 2b08 	ldrne.w	r2, [r4], #8
 8001a2e:	685b      	ldrne	r3, [r3, #4]
 8001a30:	e6e3      	b.n	80017fa <_vprintf+0x186>
 8001a32:	9b03      	ldr	r3, [sp, #12]
 8001a34:	f043 0302 	orr.w	r3, r3, #2
 8001a38:	9303      	str	r3, [sp, #12]
 8001a3a:	f854 1b04 	ldr.w	r1, [r4], #4
 8001a3e:	e7a8      	b.n	8001992 <_vprintf+0x31e>

08001a40 <printf>:
 8001a40:	b40f      	push	{r0, r1, r2, r3}
 8001a42:	b507      	push	{r0, r1, r2, lr}
 8001a44:	aa04      	add	r2, sp, #16
 8001a46:	f852 1b04 	ldr.w	r1, [r2], #4
 8001a4a:	f06f 4000 	mvn.w	r0, #2147483648	; 0x80000000
 8001a4e:	9201      	str	r2, [sp, #4]
 8001a50:	f7ff fe10 	bl	8001674 <_vprintf>
 8001a54:	b003      	add	sp, #12
 8001a56:	f85d eb04 	ldr.w	lr, [sp], #4
 8001a5a:	b004      	add	sp, #16
 8001a5c:	4770      	bx	lr
	...

08001a60 <Widget::Widget()>:
 8001a60:	b510      	push	{r4, lr}
 8001a62:	4604      	mov	r4, r0
 8001a64:	f001 f914 	bl	8002c90 <Dmx::Dmx()>
 8001a68:	f104 001c 	add.w	r0, r4, #28
 8001a6c:	f001 fbf4 	bl	8003258 <RDMDevice::RDMDevice()>
 8001a70:	2300      	movs	r3, #0
 8001a72:	e9c4 33bc 	strd	r3, r3, [r4, #752]	; 0x2f0
 8001a76:	e9c4 33be 	strd	r3, r3, [r4, #760]	; 0x2f8
 8001a7a:	f8c4 3300 	str.w	r3, [r4, #768]	; 0x300
 8001a7e:	f884 3304 	strb.w	r3, [r4, #772]	; 0x304
 8001a82:	f8c4 3308 	str.w	r3, [r4, #776]	; 0x308
 8001a86:	4b03      	ldr	r3, [pc, #12]	; (8001a94 <Widget::Widget()+0x34>)
 8001a88:	601c      	str	r4, [r3, #0]
 8001a8a:	f001 fb03 	bl	8003094 <FT245RL_init>
 8001a8e:	4620      	mov	r0, r4
 8001a90:	bd10      	pop	{r4, pc}
 8001a92:	bf00      	nop
 8001a94:	200000f4 	strdcs	r0, [r0], -r4

08001a98 <Widget::GetParamsReply()>:
 8001a98:	b513      	push	{r0, r1, r4, lr}
 8001a9a:	4604      	mov	r4, r0
 8001a9c:	4911      	ldr	r1, [pc, #68]	; (8001ae4 <Widget::GetParamsReply()+0x4c>)
 8001a9e:	2007      	movs	r0, #7
 8001aa0:	f000 fb90 	bl	80021c4 <WidgetMonitor::Line(int, char const*, ...)>
 8001aa4:	2100      	movs	r1, #0
 8001aa6:	201c      	movs	r0, #28
 8001aa8:	f000 fb8c 	bl	80021c4 <WidgetMonitor::Line(int, char const*, ...)>
 8001aac:	4b0e      	ldr	r3, [pc, #56]	; (8001ae8 <Widget::GetParamsReply()+0x50>)
 8001aae:	466a      	mov	r2, sp
 8001ab0:	781b      	ldrb	r3, [r3, #0]
 8001ab2:	2103      	movs	r1, #3
 8001ab4:	f88d 3002 	strb.w	r3, [sp, #2]
 8001ab8:	4b0c      	ldr	r3, [pc, #48]	; (8001aec <Widget::GetParamsReply()+0x54>)
 8001aba:	4620      	mov	r0, r4
 8001abc:	781b      	ldrb	r3, [r3, #0]
 8001abe:	f88d 3000 	strb.w	r3, [sp]
 8001ac2:	4b0b      	ldr	r3, [pc, #44]	; (8001af0 <Widget::GetParamsReply()+0x58>)
 8001ac4:	781b      	ldrb	r3, [r3, #0]
 8001ac6:	f88d 3001 	strb.w	r3, [sp, #1]
 8001aca:	4b0a      	ldr	r3, [pc, #40]	; (8001af4 <Widget::GetParamsReply()+0x5c>)
 8001acc:	781b      	ldrb	r3, [r3, #0]
 8001ace:	f88d 3003 	strb.w	r3, [sp, #3]
 8001ad2:	4b09      	ldr	r3, [pc, #36]	; (8001af8 <Widget::GetParamsReply()+0x60>)
 8001ad4:	781b      	ldrb	r3, [r3, #0]
 8001ad6:	f88d 3004 	strb.w	r3, [sp, #4]
 8001ada:	2305      	movs	r3, #5
 8001adc:	f000 fd40 	bl	8002560 <Widget::SendMessage(unsigned char, unsigned char const*, unsigned int)>
 8001ae0:	b002      	add	sp, #8
 8001ae2:	bd10      	pop	{r4, pc}
 8001ae4:	080057dc 	stmdaeq	r0, {r2, r3, r4, r6, r7, r8, r9, sl, ip, lr}
 8001ae8:	20000001 	andcs	r0, r0, r1
 8001aec:	20000002 	andcs	r0, r0, r2
 8001af0:	20000003 	andcs	r0, r0, r3
 8001af4:	20000000 	andcs	r0, r0, r0
 8001af8:	20000004 	andcs	r0, r0, r4

08001afc <Widget::SetParams()>:
 8001afc:	b513      	push	{r0, r1, r4, lr}
 8001afe:	4604      	mov	r4, r0
 8001b00:	4914      	ldr	r1, [pc, #80]	; (8001b54 <Widget::SetParams()+0x58>)
 8001b02:	2007      	movs	r0, #7
 8001b04:	f000 fb5e 	bl	80021c4 <WidgetMonitor::Line(int, char const*, ...)>
 8001b08:	2100      	movs	r1, #0
 8001b0a:	201c      	movs	r0, #28
 8001b0c:	f000 fb5a 	bl	80021c4 <WidgetMonitor::Line(int, char const*, ...)>
 8001b10:	2300      	movs	r3, #0
 8001b12:	2201      	movs	r2, #1
 8001b14:	4619      	mov	r1, r3
 8001b16:	4620      	mov	r0, r4
 8001b18:	f001 f88c 	bl	8002c34 <Dmx::SetPortDirection(unsigned int, dmx::PortDirection, bool)>
 8001b1c:	f894 309a 	ldrb.w	r3, [r4, #154]	; 0x9a
 8001b20:	4668      	mov	r0, sp
 8001b22:	f88d 3002 	strb.w	r3, [sp, #2]
 8001b26:	f894 309b 	ldrb.w	r3, [r4, #155]	; 0x9b
 8001b2a:	f88d 3003 	strb.w	r3, [sp, #3]
 8001b2e:	f894 309c 	ldrb.w	r3, [r4, #156]	; 0x9c
 8001b32:	f88d 3004 	strb.w	r3, [sp, #4]
 8001b36:	f000 fd73 	bl	8002620 <WidgetConfiguration::Store(TWidgetConfiguration const*)>
 8001b3a:	2301      	movs	r3, #1
 8001b3c:	2100      	movs	r1, #0
 8001b3e:	461a      	mov	r2, r3
 8001b40:	4620      	mov	r0, r4
 8001b42:	f001 f877 	bl	8002c34 <Dmx::SetPortDirection(unsigned int, dmx::PortDirection, bool)>
 8001b46:	4b04      	ldr	r3, [pc, #16]	; (8001b58 <Widget::SetParams()+0x5c>)
 8001b48:	681b      	ldr	r3, [r3, #0]
 8001b4a:	f8c4 32fc 	str.w	r3, [r4, #764]	; 0x2fc
 8001b4e:	b002      	add	sp, #8
 8001b50:	bd10      	pop	{r4, pc}
 8001b52:	bf00      	nop
 8001b54:	080057f4 	stmdaeq	r0, {r2, r4, r5, r6, r7, r8, r9, sl, ip, lr}
 8001b58:	2000181c 	andcs	r1, r0, ip, lsl r8

08001b5c <Widget::ReceivedDmxPacket()>:
 8001b5c:	b5f8      	push	{r3, r4, r5, r6, r7, lr}
 8001b5e:	f8d0 32f0 	ldr.w	r3, [r0, #752]	; 0x2f0
 8001b62:	4604      	mov	r4, r0
 8001b64:	2b03      	cmp	r3, #3
 8001b66:	d042      	beq.n	8001bee <Widget::ReceivedDmxPacket()+0x92>
 8001b68:	f890 7304 	ldrb.w	r7, [r0, #772]	; 0x304
 8001b6c:	2f00      	cmp	r7, #0
 8001b6e:	d13e      	bne.n	8001bee <Widget::ReceivedDmxPacket()+0x92>
 8001b70:	6943      	ldr	r3, [r0, #20]
 8001b72:	2b01      	cmp	r3, #1
 8001b74:	d13b      	bne.n	8001bee <Widget::ReceivedDmxPacket()+0x92>
 8001b76:	f8d0 32f4 	ldr.w	r3, [r0, #756]	; 0x2f4
 8001b7a:	2b01      	cmp	r3, #1
 8001b7c:	d037      	beq.n	8001bee <Widget::ReceivedDmxPacket()+0x92>
 8001b7e:	4639      	mov	r1, r7
 8001b80:	f001 f9d6 	bl	8002f30 <Dmx::GetDmxAvailable(unsigned int)>
 8001b84:	4605      	mov	r5, r0
 8001b86:	b390      	cbz	r0, 8001bee <Widget::ReceivedDmxPacket()+0x92>
 8001b88:	4b19      	ldr	r3, [pc, #100]	; (8001bf0 <Widget::ReceivedDmxPacket()+0x94>)
 8001b8a:	f8d4 12f8 	ldr.w	r1, [r4, #760]	; 0x2f8
 8001b8e:	681a      	ldr	r2, [r3, #0]
 8001b90:	f8d4 32fc 	ldr.w	r3, [r4, #764]	; 0x2fc
 8001b94:	1ad3      	subs	r3, r2, r3
 8001b96:	428b      	cmp	r3, r1
 8001b98:	d329      	bcc.n	8001bee <Widget::ReceivedDmxPacket()+0x92>
 8001b9a:	f8d4 3308 	ldr.w	r3, [r4, #776]	; 0x308
 8001b9e:	f8c4 22fc 	str.w	r2, [r4, #764]	; 0x2fc
 8001ba2:	3301      	adds	r3, #1
 8001ba4:	f8c4 3308 	str.w	r3, [r4, #776]	; 0x308
 8001ba8:	f8d0 6204 	ldr.w	r6, [r0, #516]	; 0x204
 8001bac:	4911      	ldr	r1, [pc, #68]	; (8001bf4 <Widget::ReceivedDmxPacket()+0x98>)
 8001bae:	3601      	adds	r6, #1
 8001bb0:	2006      	movs	r0, #6
 8001bb2:	f000 fb07 	bl	80021c4 <WidgetMonitor::Line(int, char const*, ...)>
 8001bb6:	4632      	mov	r2, r6
 8001bb8:	2007      	movs	r0, #7
 8001bba:	490f      	ldr	r1, [pc, #60]	; (8001bf8 <Widget::ReceivedDmxPacket()+0x9c>)
 8001bbc:	f000 fb02 	bl	80021c4 <WidgetMonitor::Line(int, char const*, ...)>
 8001bc0:	4639      	mov	r1, r7
 8001bc2:	201c      	movs	r0, #28
 8001bc4:	f000 fafe 	bl	80021c4 <WidgetMonitor::Line(int, char const*, ...)>
 8001bc8:	1c72      	adds	r2, r6, #1
 8001bca:	2105      	movs	r1, #5
 8001bcc:	4620      	mov	r0, r4
 8001bce:	b292      	uxth	r2, r2
 8001bd0:	f000 fca6 	bl	8002520 <Widget::SendHeader(unsigned char, unsigned int)>
 8001bd4:	4638      	mov	r0, r7
 8001bd6:	f001 fa3e 	bl	8003056 <usb_send_byte>
 8001bda:	4620      	mov	r0, r4
 8001bdc:	4629      	mov	r1, r5
 8001bde:	b2b2      	uxth	r2, r6
 8001be0:	f000 fcb0 	bl	8002544 <Widget::SendData(unsigned char const*, unsigned int)>
 8001be4:	4620      	mov	r0, r4
 8001be6:	e8bd 40f8 	ldmia.w	sp!, {r3, r4, r5, r6, r7, lr}
 8001bea:	f000 bcb6 	b.w	800255a <Widget::SendFooter()>
 8001bee:	bdf8      	pop	{r3, r4, r5, r6, r7, pc}
 8001bf0:	2000181c 	andcs	r1, r0, ip, lsl r8
 8001bf4:	08005806 	stmdaeq	r0, {r1, r2, fp, ip, lr}
 8001bf8:	0800581a 	stmdaeq	r0, {r1, r3, r4, fp, ip, lr}

08001bfc <Widget::SendDmxPacketRequestOutputOnly(unsigned short)>:
 8001bfc:	b570      	push	{r4, r5, r6, lr}
 8001bfe:	f8d0 5300 	ldr.w	r5, [r0, #768]	; 0x300
 8001c02:	4604      	mov	r4, r0
 8001c04:	460e      	mov	r6, r1
 8001c06:	b9e5      	cbnz	r5, 8001c42 <Widget::SendDmxPacketRequestOutputOnly(unsigned short)+0x46>
 8001c08:	2007      	movs	r0, #7
 8001c0a:	490e      	ldr	r1, [pc, #56]	; (8001c44 <Widget::SendDmxPacketRequestOutputOnly(unsigned short)+0x48>)
 8001c0c:	f000 fada 	bl	80021c4 <WidgetMonitor::Line(int, char const*, ...)>
 8001c10:	4629      	mov	r1, r5
 8001c12:	201c      	movs	r0, #28
 8001c14:	f000 fad6 	bl	80021c4 <WidgetMonitor::Line(int, char const*, ...)>
 8001c18:	462b      	mov	r3, r5
 8001c1a:	462a      	mov	r2, r5
 8001c1c:	4629      	mov	r1, r5
 8001c1e:	4620      	mov	r0, r4
 8001c20:	f001 f808 	bl	8002c34 <Dmx::SetPortDirection(unsigned int, dmx::PortDirection, bool)>
 8001c24:	4633      	mov	r3, r6
 8001c26:	4629      	mov	r1, r5
 8001c28:	4620      	mov	r0, r4
 8001c2a:	f104 0298 	add.w	r2, r4, #152	; 0x98
 8001c2e:	f001 f957 	bl	8002ee0 <Dmx::SetSendData(unsigned int, unsigned char const*, unsigned int)>
 8001c32:	462a      	mov	r2, r5
 8001c34:	4629      	mov	r1, r5
 8001c36:	4620      	mov	r0, r4
 8001c38:	e8bd 4070 	ldmia.w	sp!, {r4, r5, r6, lr}
 8001c3c:	2301      	movs	r3, #1
 8001c3e:	f000 bff9 	b.w	8002c34 <Dmx::SetPortDirection(unsigned int, dmx::PortDirection, bool)>
 8001c42:	bd70      	pop	{r4, r5, r6, pc}
 8001c44:	08005834 	stmdaeq	r0, {r2, r4, r5, fp, ip, lr}

08001c48 <Widget::SendRdmPacketRequest(unsigned short)>:
 8001c48:	b570      	push	{r4, r5, r6, lr}
 8001c4a:	4604      	mov	r4, r0
 8001c4c:	460d      	mov	r5, r1
 8001c4e:	2007      	movs	r0, #7
 8001c50:	4910      	ldr	r1, [pc, #64]	; (8001c94 <Widget::SendRdmPacketRequest(unsigned short)+0x4c>)
 8001c52:	f000 fab7 	bl	80021c4 <WidgetMonitor::Line(int, char const*, ...)>
 8001c56:	2100      	movs	r1, #0
 8001c58:	201c      	movs	r0, #28
 8001c5a:	f000 fab3 	bl	80021c4 <WidgetMonitor::Line(int, char const*, ...)>
 8001c5e:	f894 30ac 	ldrb.w	r3, [r4, #172]	; 0xac
 8001c62:	f104 0698 	add.w	r6, r4, #152	; 0x98
 8001c66:	f1a3 0210 	sub.w	r2, r3, #16
 8001c6a:	4253      	negs	r3, r2
 8001c6c:	4153      	adcs	r3, r2
 8001c6e:	4631      	mov	r1, r6
 8001c70:	462a      	mov	r2, r5
 8001c72:	f884 3304 	strb.w	r3, [r4, #772]	; 0x304
 8001c76:	2000      	movs	r0, #0
 8001c78:	f000 fd34 	bl	80026e4 <Rdm::SendRaw(unsigned int, unsigned char const*, unsigned int)>
 8001c7c:	4b06      	ldr	r3, [pc, #24]	; (8001c98 <Widget::SendRdmPacketRequest(unsigned short)+0x50>)
 8001c7e:	4632      	mov	r2, r6
 8001c80:	681b      	ldr	r3, [r3, #0]
 8001c82:	4629      	mov	r1, r5
 8001c84:	f8c4 3300 	str.w	r3, [r4, #768]	; 0x300
 8001c88:	2011      	movs	r0, #17
 8001c8a:	e8bd 4070 	ldmia.w	sp!, {r4, r5, r6, lr}
 8001c8e:	2301      	movs	r3, #1
 8001c90:	f000 bd1e 	b.w	80026d0 <WidgetMonitor::RdmData(int, unsigned short, unsigned char const*, bool)>
 8001c94:	08005858 	stmdaeq	r0, {r3, r4, r6, fp, ip, lr}
 8001c98:	2000181c 	andcs	r1, r0, ip, lsl r8

08001c9c <Widget::ReceiveDmxOnChange()>:
 8001c9c:	b510      	push	{r4, lr}
 8001c9e:	4604      	mov	r4, r0
 8001ca0:	4910      	ldr	r1, [pc, #64]	; (8001ce4 <Widget::ReceiveDmxOnChange()+0x48>)
 8001ca2:	2007      	movs	r0, #7
 8001ca4:	f000 fa8e 	bl	80021c4 <WidgetMonitor::Line(int, char const*, ...)>
 8001ca8:	2100      	movs	r1, #0
 8001caa:	201c      	movs	r0, #28
 8001cac:	f000 fa8a 	bl	80021c4 <WidgetMonitor::Line(int, char const*, ...)>
 8001cb0:	f894 3098 	ldrb.w	r3, [r4, #152]	; 0x98
 8001cb4:	2201      	movs	r2, #1
 8001cb6:	f8c4 32f4 	str.w	r3, [r4, #756]	; 0x2f4
 8001cba:	2300      	movs	r3, #0
 8001cbc:	4620      	mov	r0, r4
 8001cbe:	4619      	mov	r1, r3
 8001cc0:	f000 ffb8 	bl	8002c34 <Dmx::SetPortDirection(unsigned int, dmx::PortDirection, bool)>
 8001cc4:	2100      	movs	r1, #0
 8001cc6:	4620      	mov	r0, r4
 8001cc8:	f000 fec0 	bl	8002a4c <Dmx::ClearData(unsigned int)>
 8001ccc:	2301      	movs	r3, #1
 8001cce:	2100      	movs	r1, #0
 8001cd0:	461a      	mov	r2, r3
 8001cd2:	4620      	mov	r0, r4
 8001cd4:	f000 ffae 	bl	8002c34 <Dmx::SetPortDirection(unsigned int, dmx::PortDirection, bool)>
 8001cd8:	4b03      	ldr	r3, [pc, #12]	; (8001ce8 <Widget::ReceiveDmxOnChange()+0x4c>)
 8001cda:	681b      	ldr	r3, [r3, #0]
 8001cdc:	f8c4 32fc 	str.w	r3, [r4, #764]	; 0x2fc
 8001ce0:	bd10      	pop	{r4, pc}
 8001ce2:	bf00      	nop
 8001ce4:	08005870 	stmdaeq	r0, {r4, r5, r6, fp, ip, lr}
 8001ce8:	2000181c 	andcs	r1, r0, ip, lsl r8

08001cec <Widget::ReceivedDmxChangeOfStatePacket()>:
 8001cec:	f8d0 22f0 	ldr.w	r2, [r0, #752]	; 0x2f0
 8001cf0:	b510      	push	{r4, lr}
 8001cf2:	2a03      	cmp	r2, #3
 8001cf4:	d01a      	beq.n	8001d2c <Widget::ReceivedDmxChangeOfStatePacket()+0x40>
 8001cf6:	f890 4304 	ldrb.w	r4, [r0, #772]	; 0x304
 8001cfa:	b9bc      	cbnz	r4, 8001d2c <Widget::ReceivedDmxChangeOfStatePacket()+0x40>
 8001cfc:	6942      	ldr	r2, [r0, #20]
 8001cfe:	2a01      	cmp	r2, #1
 8001d00:	d114      	bne.n	8001d2c <Widget::ReceivedDmxChangeOfStatePacket()+0x40>
 8001d02:	f8d0 32f4 	ldr.w	r3, [r0, #756]	; 0x2f4
 8001d06:	b18b      	cbz	r3, 8001d2c <Widget::ReceivedDmxChangeOfStatePacket()+0x40>
 8001d08:	4621      	mov	r1, r4
 8001d0a:	f001 f925 	bl	8002f58 <Dmx::GetDmxChanged(unsigned int)>
 8001d0e:	b168      	cbz	r0, 8001d2c <Widget::ReceivedDmxChangeOfStatePacket()+0x40>
 8001d10:	2007      	movs	r0, #7
 8001d12:	4907      	ldr	r1, [pc, #28]	; (8001d30 <Widget::ReceivedDmxChangeOfStatePacket()+0x44>)
 8001d14:	f000 fa56 	bl	80021c4 <WidgetMonitor::Line(int, char const*, ...)>
 8001d18:	4621      	mov	r1, r4
 8001d1a:	201c      	movs	r0, #28
 8001d1c:	f000 fa52 	bl	80021c4 <WidgetMonitor::Line(int, char const*, ...)>
 8001d20:	e8bd 4010 	ldmia.w	sp!, {r4, lr}
 8001d24:	2007      	movs	r0, #7
 8001d26:	4903      	ldr	r1, [pc, #12]	; (8001d34 <Widget::ReceivedDmxChangeOfStatePacket()+0x48>)
 8001d28:	f000 ba4c 	b.w	80021c4 <WidgetMonitor::Line(int, char const*, ...)>
 8001d2c:	bd10      	pop	{r4, pc}
 8001d2e:	bf00      	nop
 8001d30:	08005886 	stmdaeq	r0, {r1, r2, r7, fp, ip, lr}
 8001d34:	0800589c 	stmdaeq	r0, {r2, r3, r4, r7, fp, ip, lr}

08001d38 <Widget::GetSnReply()>:
 8001d38:	b510      	push	{r4, lr}
 8001d3a:	4910      	ldr	r1, [pc, #64]	; (8001d7c <Widget::GetSnReply()+0x44>)
 8001d3c:	4604      	mov	r4, r0
 8001d3e:	2007      	movs	r0, #7
 8001d40:	f000 fa40 	bl	80021c4 <WidgetMonitor::Line(int, char const*, ...)>
 8001d44:	2100      	movs	r1, #0
 8001d46:	201c      	movs	r0, #28
 8001d48:	f000 fa3c 	bl	80021c4 <WidgetMonitor::Line(int, char const*, ...)>
 8001d4c:	2300      	movs	r3, #0
 8001d4e:	2201      	movs	r2, #1
 8001d50:	4619      	mov	r1, r3
 8001d52:	4620      	mov	r0, r4
 8001d54:	f000 ff6e 	bl	8002c34 <Dmx::SetPortDirection(unsigned int, dmx::PortDirection, bool)>
 8001d58:	2304      	movs	r3, #4
 8001d5a:	210a      	movs	r1, #10
 8001d5c:	4620      	mov	r0, r4
 8001d5e:	f104 0222 	add.w	r2, r4, #34	; 0x22
 8001d62:	f000 fbfd 	bl	8002560 <Widget::SendMessage(unsigned char, unsigned char const*, unsigned int)>
 8001d66:	2301      	movs	r3, #1
 8001d68:	2100      	movs	r1, #0
 8001d6a:	461a      	mov	r2, r3
 8001d6c:	4620      	mov	r0, r4
 8001d6e:	f000 ff61 	bl	8002c34 <Dmx::SetPortDirection(unsigned int, dmx::PortDirection, bool)>
 8001d72:	4b03      	ldr	r3, [pc, #12]	; (8001d80 <Widget::GetSnReply()+0x48>)
 8001d74:	681b      	ldr	r3, [r3, #0]
 8001d76:	f8c4 32fc 	str.w	r3, [r4, #764]	; 0x2fc
 8001d7a:	bd10      	pop	{r4, pc}
 8001d7c:	080057dc 	stmdaeq	r0, {r2, r3, r4, r6, r7, r8, r9, sl, ip, lr}
 8001d80:	2000181c 	andcs	r1, r0, ip, lsl r8

08001d84 <Widget::SendRdmDiscoveryRequest(unsigned short)>:
 8001d84:	b570      	push	{r4, r5, r6, lr}
 8001d86:	4604      	mov	r4, r0
 8001d88:	460d      	mov	r5, r1
 8001d8a:	2007      	movs	r0, #7
 8001d8c:	490d      	ldr	r1, [pc, #52]	; (8001dc4 <Widget::SendRdmDiscoveryRequest(unsigned short)+0x40>)
 8001d8e:	f000 fa19 	bl	80021c4 <WidgetMonitor::Line(int, char const*, ...)>
 8001d92:	f104 0698 	add.w	r6, r4, #152	; 0x98
 8001d96:	2100      	movs	r1, #0
 8001d98:	201c      	movs	r0, #28
 8001d9a:	f000 fa13 	bl	80021c4 <WidgetMonitor::Line(int, char const*, ...)>
 8001d9e:	462a      	mov	r2, r5
 8001da0:	4631      	mov	r1, r6
 8001da2:	2000      	movs	r0, #0
 8001da4:	f000 fc9e 	bl	80026e4 <Rdm::SendRaw(unsigned int, unsigned char const*, unsigned int)>
 8001da8:	2301      	movs	r3, #1
 8001daa:	4a07      	ldr	r2, [pc, #28]	; (8001dc8 <Widget::SendRdmDiscoveryRequest(unsigned short)+0x44>)
 8001dac:	4629      	mov	r1, r5
 8001dae:	6812      	ldr	r2, [r2, #0]
 8001db0:	f884 3304 	strb.w	r3, [r4, #772]	; 0x304
 8001db4:	f8c4 2300 	str.w	r2, [r4, #768]	; 0x300
 8001db8:	2011      	movs	r0, #17
 8001dba:	4632      	mov	r2, r6
 8001dbc:	e8bd 4070 	ldmia.w	sp!, {r4, r5, r6, lr}
 8001dc0:	f000 bc86 	b.w	80026d0 <WidgetMonitor::RdmData(int, unsigned short, unsigned char const*, bool)>
 8001dc4:	080058ba 	stmdaeq	r0, {r1, r3, r4, r5, r7, fp, ip, lr}
 8001dc8:	2000181c 	andcs	r1, r0, ip, lsl r8

08001dcc <Widget::RdmTimeOutMessage()>:
 8001dcc:	b510      	push	{r4, lr}
 8001dce:	4604      	mov	r4, r0
 8001dd0:	2200      	movs	r2, #0
 8001dd2:	2007      	movs	r0, #7
 8001dd4:	490a      	ldr	r1, [pc, #40]	; (8001e00 <Widget::RdmTimeOutMessage()+0x34>)
 8001dd6:	f000 f9f5 	bl	80021c4 <WidgetMonitor::Line(int, char const*, ...)>
 8001dda:	201c      	movs	r0, #28
 8001ddc:	4909      	ldr	r1, [pc, #36]	; (8001e04 <Widget::RdmTimeOutMessage()+0x38>)
 8001dde:	f000 f9f1 	bl	80021c4 <WidgetMonitor::Line(int, char const*, ...)>
 8001de2:	2200      	movs	r2, #0
 8001de4:	210c      	movs	r1, #12
 8001de6:	4620      	mov	r0, r4
 8001de8:	f000 fb9a 	bl	8002520 <Widget::SendHeader(unsigned char, unsigned int)>
 8001dec:	4620      	mov	r0, r4
 8001dee:	f000 fbb4 	bl	800255a <Widget::SendFooter()>
 8001df2:	2300      	movs	r3, #0
 8001df4:	f884 3304 	strb.w	r3, [r4, #772]	; 0x304
 8001df8:	f8c4 3300 	str.w	r3, [r4, #768]	; 0x300
 8001dfc:	bd10      	pop	{r4, pc}
 8001dfe:	bf00      	nop
 8001e00:	080058d5 	stmdaeq	r0, {r0, r2, r4, r6, r7, fp, ip, lr}
 8001e04:	080058f1 	stmdaeq	r0, {r0, r4, r5, r6, r7, fp, ip, lr}

08001e08 <Widget::ReceivedRdmPacket()>:
 8001e08:	f8d0 32f0 	ldr.w	r3, [r0, #752]	; 0x2f0
 8001e0c:	e92d 41f0 	stmdb	sp!, {r4, r5, r6, r7, r8, lr}
 8001e10:	f023 0302 	bic.w	r3, r3, #2
 8001e14:	2b01      	cmp	r3, #1
 8001e16:	4604      	mov	r4, r0
 8001e18:	d063      	beq.n	8001ee2 <Widget::ReceivedRdmPacket()+0xda>
 8001e1a:	f8d0 32f4 	ldr.w	r3, [r0, #756]	; 0x2f4
 8001e1e:	2b01      	cmp	r3, #1
 8001e20:	d05f      	beq.n	8001ee2 <Widget::ReceivedRdmPacket()+0xda>
 8001e22:	2000      	movs	r0, #0
 8001e24:	f000 fc56 	bl	80026d4 <Rdm::Receive(unsigned int)>
 8001e28:	4605      	mov	r5, r0
 8001e2a:	2800      	cmp	r0, #0
 8001e2c:	d059      	beq.n	8001ee2 <Widget::ReceivedRdmPacket()+0xda>
 8001e2e:	7803      	ldrb	r3, [r0, #0]
 8001e30:	2bcc      	cmp	r3, #204	; 0xcc
 8001e32:	d134      	bne.n	8001e9e <Widget::ReceivedRdmPacket()+0x96>
 8001e34:	7886      	ldrb	r6, [r0, #2]
 8001e36:	7d07      	ldrb	r7, [r0, #20]
 8001e38:	3602      	adds	r6, #2
 8001e3a:	b2f6      	uxtb	r6, r6
 8001e3c:	4632      	mov	r2, r6
 8001e3e:	2007      	movs	r0, #7
 8001e40:	4929      	ldr	r1, [pc, #164]	; (8001ee8 <Widget::ReceivedRdmPacket()+0xe0>)
 8001e42:	f000 f9bf 	bl	80021c4 <WidgetMonitor::Line(int, char const*, ...)>
 8001e46:	201c      	movs	r0, #28
 8001e48:	4928      	ldr	r1, [pc, #160]	; (8001eec <Widget::ReceivedRdmPacket()+0xe4>)
 8001e4a:	f000 f9bb 	bl	80021c4 <WidgetMonitor::Line(int, char const*, ...)>
 8001e4e:	2105      	movs	r1, #5
 8001e50:	1c72      	adds	r2, r6, #1
 8001e52:	4620      	mov	r0, r4
 8001e54:	f000 fb64 	bl	8002520 <Widget::SendHeader(unsigned char, unsigned int)>
 8001e58:	2000      	movs	r0, #0
 8001e5a:	f001 f8fc 	bl	8003056 <usb_send_byte>
 8001e5e:	4632      	mov	r2, r6
 8001e60:	4629      	mov	r1, r5
 8001e62:	4620      	mov	r0, r4
 8001e64:	f000 fb6e 	bl	8002544 <Widget::SendData(unsigned char const*, unsigned int)>
 8001e68:	4620      	mov	r0, r4
 8001e6a:	f000 fb76 	bl	800255a <Widget::SendFooter()>
 8001e6e:	2f11      	cmp	r7, #17
 8001e70:	d111      	bne.n	8001e96 <Widget::ReceivedRdmPacket()+0x8e>
 8001e72:	7d6a      	ldrb	r2, [r5, #21]
 8001e74:	7dab      	ldrb	r3, [r5, #22]
 8001e76:	eb03 2302 	add.w	r3, r3, r2, lsl #8
 8001e7a:	b29b      	uxth	r3, r3
 8001e7c:	2b02      	cmp	r3, #2
 8001e7e:	d00a      	beq.n	8001e96 <Widget::ReceivedRdmPacket()+0x8e>
 8001e80:	4620      	mov	r0, r4
 8001e82:	f7ff ffa3 	bl	8001dcc <Widget::RdmTimeOutMessage()>
 8001e86:	462a      	mov	r2, r5
 8001e88:	4631      	mov	r1, r6
 8001e8a:	e8bd 41f0 	ldmia.w	sp!, {r4, r5, r6, r7, r8, lr}
 8001e8e:	2300      	movs	r3, #0
 8001e90:	2011      	movs	r0, #17
 8001e92:	f000 bc1d 	b.w	80026d0 <WidgetMonitor::RdmData(int, unsigned short, unsigned char const*, bool)>
 8001e96:	2300      	movs	r3, #0
 8001e98:	f8c4 3300 	str.w	r3, [r4, #768]	; 0x300
 8001e9c:	e7f3      	b.n	8001e86 <Widget::ReceivedRdmPacket()+0x7e>
 8001e9e:	2bfe      	cmp	r3, #254	; 0xfe
 8001ea0:	d11d      	bne.n	8001ede <Widget::ReceivedRdmPacket()+0xd6>
 8001ea2:	2218      	movs	r2, #24
 8001ea4:	2007      	movs	r0, #7
 8001ea6:	4910      	ldr	r1, [pc, #64]	; (8001ee8 <Widget::ReceivedRdmPacket()+0xe0>)
 8001ea8:	f000 f98c 	bl	80021c4 <WidgetMonitor::Line(int, char const*, ...)>
 8001eac:	201c      	movs	r0, #28
 8001eae:	4910      	ldr	r1, [pc, #64]	; (8001ef0 <Widget::ReceivedRdmPacket()+0xe8>)
 8001eb0:	f000 f988 	bl	80021c4 <WidgetMonitor::Line(int, char const*, ...)>
 8001eb4:	2219      	movs	r2, #25
 8001eb6:	2105      	movs	r1, #5
 8001eb8:	4620      	mov	r0, r4
 8001eba:	f000 fb31 	bl	8002520 <Widget::SendHeader(unsigned char, unsigned int)>
 8001ebe:	2000      	movs	r0, #0
 8001ec0:	f001 f8c9 	bl	8003056 <usb_send_byte>
 8001ec4:	2218      	movs	r2, #24
 8001ec6:	4629      	mov	r1, r5
 8001ec8:	4620      	mov	r0, r4
 8001eca:	f000 fb3b 	bl	8002544 <Widget::SendData(unsigned char const*, unsigned int)>
 8001ece:	4620      	mov	r0, r4
 8001ed0:	f000 fb43 	bl	800255a <Widget::SendFooter()>
 8001ed4:	4620      	mov	r0, r4
 8001ed6:	f7ff ff79 	bl	8001dcc <Widget::RdmTimeOutMessage()>
 8001eda:	2618      	movs	r6, #24
 8001edc:	e7d3      	b.n	8001e86 <Widget::ReceivedRdmPacket()+0x7e>
 8001ede:	2600      	movs	r6, #0
 8001ee0:	e7d1      	b.n	8001e86 <Widget::ReceivedRdmPacket()+0x7e>
 8001ee2:	e8bd 81f0 	ldmia.w	sp!, {r4, r5, r6, r7, r8, pc}
 8001ee6:	bf00      	nop
 8001ee8:	080058d5 	stmdaeq	r0, {r0, r2, r4, r6, r7, fp, ip, lr}
 8001eec:	080058fd 	stmdaeq	r0, {r0, r2, r3, r4, r5, r6, r7, fp, ip, lr}
 8001ef0:	08005919 	stmdaeq	r0, {r0, r3, r4, r8, fp, ip, lr}

08001ef4 <Widget::RdmTimeout()>:
 8001ef4:	f8d0 32f0 	ldr.w	r3, [r0, #752]	; 0x2f0
 8001ef8:	b510      	push	{r4, lr}
 8001efa:	2b03      	cmp	r3, #3
 8001efc:	4604      	mov	r4, r0
 8001efe:	d00d      	beq.n	8001f1c <Widget::RdmTimeout()+0x28>
 8001f00:	f8d0 2300 	ldr.w	r2, [r0, #768]	; 0x300
 8001f04:	b152      	cbz	r2, 8001f1c <Widget::RdmTimeout()+0x28>
 8001f06:	4b06      	ldr	r3, [pc, #24]	; (8001f20 <Widget::RdmTimeout()+0x2c>)
 8001f08:	681b      	ldr	r3, [r3, #0]
 8001f0a:	1a9b      	subs	r3, r3, r2
 8001f0c:	f5b3 7f7a 	cmp.w	r3, #1000	; 0x3e8
 8001f10:	d304      	bcc.n	8001f1c <Widget::RdmTimeout()+0x28>
 8001f12:	f7ff ff5b 	bl	8001dcc <Widget::RdmTimeOutMessage()>
 8001f16:	2300      	movs	r3, #0
 8001f18:	f8c4 3300 	str.w	r3, [r4, #768]	; 0x300
 8001f1c:	bd10      	pop	{r4, pc}
 8001f1e:	bf00      	nop
 8001f20:	2000181c 	andcs	r1, r0, ip, lsl r8

08001f24 <Widget::GetManufacturerReply()>:
 8001f24:	b538      	push	{r3, r4, r5, lr}
 8001f26:	4918      	ldr	r1, [pc, #96]	; (8001f88 <Widget::GetManufacturerReply()+0x64>)
 8001f28:	4604      	mov	r4, r0
 8001f2a:	2007      	movs	r0, #7
 8001f2c:	f000 f94a 	bl	80021c4 <WidgetMonitor::Line(int, char const*, ...)>
 8001f30:	2100      	movs	r1, #0
 8001f32:	201c      	movs	r0, #28
 8001f34:	f000 f946 	bl	80021c4 <WidgetMonitor::Line(int, char const*, ...)>
 8001f38:	2300      	movs	r3, #0
 8001f3a:	f894 5067 	ldrb.w	r5, [r4, #103]	; 0x67
 8001f3e:	4619      	mov	r1, r3
 8001f40:	2201      	movs	r2, #1
 8001f42:	4620      	mov	r0, r4
 8001f44:	f000 fe76 	bl	8002c34 <Dmx::SetPortDirection(unsigned int, dmx::PortDirection, bool)>
 8001f48:	214d      	movs	r1, #77	; 0x4d
 8001f4a:	4620      	mov	r0, r4
 8001f4c:	1caa      	adds	r2, r5, #2
 8001f4e:	f000 fae7 	bl	8002520 <Widget::SendHeader(unsigned char, unsigned int)>
 8001f52:	2202      	movs	r2, #2
 8001f54:	4620      	mov	r0, r4
 8001f56:	f104 016c 	add.w	r1, r4, #108	; 0x6c
 8001f5a:	f000 faf3 	bl	8002544 <Widget::SendData(unsigned char const*, unsigned int)>
 8001f5e:	462a      	mov	r2, r5
 8001f60:	f104 0147 	add.w	r1, r4, #71	; 0x47
 8001f64:	4620      	mov	r0, r4
 8001f66:	f000 faed 	bl	8002544 <Widget::SendData(unsigned char const*, unsigned int)>
 8001f6a:	4620      	mov	r0, r4
 8001f6c:	f000 faf5 	bl	800255a <Widget::SendFooter()>
 8001f70:	2301      	movs	r3, #1
 8001f72:	2100      	movs	r1, #0
 8001f74:	461a      	mov	r2, r3
 8001f76:	4620      	mov	r0, r4
 8001f78:	f000 fe5c 	bl	8002c34 <Dmx::SetPortDirection(unsigned int, dmx::PortDirection, bool)>
 8001f7c:	4b03      	ldr	r3, [pc, #12]	; (8001f8c <Widget::GetManufacturerReply()+0x68>)
 8001f7e:	681b      	ldr	r3, [r3, #0]
 8001f80:	f8c4 32fc 	str.w	r3, [r4, #764]	; 0x2fc
 8001f84:	bd38      	pop	{r3, r4, r5, pc}
 8001f86:	bf00      	nop
 8001f88:	08005935 	stmdaeq	r0, {r0, r2, r4, r5, r8, fp, ip, lr}
 8001f8c:	2000181c 	andcs	r1, r0, ip, lsl r8

08001f90 <Widget::GetNameReply()>:
 8001f90:	b538      	push	{r3, r4, r5, lr}
 8001f92:	4917      	ldr	r1, [pc, #92]	; (8001ff0 <Widget::GetNameReply()+0x60>)
 8001f94:	4604      	mov	r4, r0
 8001f96:	2007      	movs	r0, #7
 8001f98:	f000 f914 	bl	80021c4 <WidgetMonitor::Line(int, char const*, ...)>
 8001f9c:	2100      	movs	r1, #0
 8001f9e:	201c      	movs	r0, #28
 8001fa0:	f000 f910 	bl	80021c4 <WidgetMonitor::Line(int, char const*, ...)>
 8001fa4:	2300      	movs	r3, #0
 8001fa6:	f894 5046 	ldrb.w	r5, [r4, #70]	; 0x46
 8001faa:	4619      	mov	r1, r3
 8001fac:	2201      	movs	r2, #1
 8001fae:	4620      	mov	r0, r4
 8001fb0:	f000 fe40 	bl	8002c34 <Dmx::SetPortDirection(unsigned int, dmx::PortDirection, bool)>
 8001fb4:	214e      	movs	r1, #78	; 0x4e
 8001fb6:	4620      	mov	r0, r4
 8001fb8:	1caa      	adds	r2, r5, #2
 8001fba:	f000 fab1 	bl	8002520 <Widget::SendHeader(unsigned char, unsigned int)>
 8001fbe:	2202      	movs	r2, #2
 8001fc0:	4620      	mov	r0, r4
 8001fc2:	490c      	ldr	r1, [pc, #48]	; (8001ff4 <Widget::GetNameReply()+0x64>)
 8001fc4:	f000 fabe 	bl	8002544 <Widget::SendData(unsigned char const*, unsigned int)>
 8001fc8:	462a      	mov	r2, r5
 8001fca:	f104 0126 	add.w	r1, r4, #38	; 0x26
 8001fce:	4620      	mov	r0, r4
 8001fd0:	f000 fab8 	bl	8002544 <Widget::SendData(unsigned char const*, unsigned int)>
 8001fd4:	4620      	mov	r0, r4
 8001fd6:	f000 fac0 	bl	800255a <Widget::SendFooter()>
 8001fda:	2301      	movs	r3, #1
 8001fdc:	2100      	movs	r1, #0
 8001fde:	461a      	mov	r2, r3
 8001fe0:	4620      	mov	r0, r4
 8001fe2:	f000 fe27 	bl	8002c34 <Dmx::SetPortDirection(unsigned int, dmx::PortDirection, bool)>
 8001fe6:	4b04      	ldr	r3, [pc, #16]	; (8001ff8 <Widget::GetNameReply()+0x68>)
 8001fe8:	681b      	ldr	r3, [r3, #0]
 8001fea:	f8c4 32fc 	str.w	r3, [r4, #764]	; 0x2fc
 8001fee:	bd38      	pop	{r3, r4, r5, pc}
 8001ff0:	08005948 	stmdaeq	r0, {r3, r6, r8, fp, ip, lr}
 8001ff4:	20000005 	andcs	r0, r0, r5
 8001ff8:	2000181c 	andcs	r1, r0, ip, lsl r8

08001ffc <Widget::ReceiveDataFromHost()>:
 8001ffc:	e92d 43f7 	stmdb	sp!, {r0, r1, r2, r4, r5, r6, r7, r8, r9, lr}
 8002000:	4604      	mov	r4, r0
 8002002:	f001 f911 	bl	8003228 <FT245RL_data_available>
 8002006:	2800      	cmp	r0, #0
 8002008:	d040      	beq.n	800208c <Widget::ReceiveDataFromHost()+0x90>
 800200a:	f001 f81b 	bl	8003044 <usb_read_byte>
 800200e:	287e      	cmp	r0, #126	; 0x7e
 8002010:	d13c      	bne.n	800208c <Widget::ReceiveDataFromHost()+0x90>
 8002012:	f001 f817 	bl	8003044 <usb_read_byte>
 8002016:	4607      	mov	r7, r0
 8002018:	f001 f814 	bl	8003044 <usb_read_byte>
 800201c:	4605      	mov	r5, r0
 800201e:	f001 f811 	bl	8003044 <usb_read_byte>
 8002022:	ea45 2500 	orr.w	r5, r5, r0, lsl #8
 8002026:	f06f 0997 	mvn.w	r9, #151	; 0x97
 800202a:	b2ad      	uxth	r5, r5
 800202c:	462e      	mov	r6, r5
 800202e:	f104 0898 	add.w	r8, r4, #152	; 0x98
 8002032:	eba9 0904 	sub.w	r9, r9, r4
 8002036:	eb09 0308 	add.w	r3, r9, r8
 800203a:	429d      	cmp	r5, r3
 800203c:	d904      	bls.n	8002048 <Widget::ReceiveDataFromHost()+0x4c>
 800203e:	f001 f801 	bl	8003044 <usb_read_byte>
 8002042:	f808 0b01 	strb.w	r0, [r8], #1
 8002046:	e7f6      	b.n	8002036 <Widget::ReceiveDataFromHost()+0x3a>
 8002048:	f000 fffc 	bl	8003044 <usb_read_byte>
 800204c:	28e7      	cmp	r0, #231	; 0xe7
 800204e:	d004      	beq.n	800205a <Widget::ReceiveDataFromHost()+0x5e>
 8002050:	1c73      	adds	r3, r6, #1
 8002052:	f5b6 7f16 	cmp.w	r6, #600	; 0x258
 8002056:	461e      	mov	r6, r3
 8002058:	d3f6      	bcc.n	8002048 <Widget::ReceiveDataFromHost()+0x4c>
 800205a:	462b      	mov	r3, r5
 800205c:	463a      	mov	r2, r7
 800205e:	2006      	movs	r0, #6
 8002060:	4928      	ldr	r1, [pc, #160]	; (8002104 <Widget::ReceiveDataFromHost()+0x108>)
 8002062:	9600      	str	r6, [sp, #0]
 8002064:	f000 f8ae 	bl	80021c4 <WidgetMonitor::Line(int, char const*, ...)>
 8002068:	2f0b      	cmp	r7, #11
 800206a:	d80b      	bhi.n	8002084 <Widget::ReceiveDataFromHost()+0x88>
 800206c:	2f02      	cmp	r7, #2
 800206e:	d90d      	bls.n	800208c <Widget::ReceiveDataFromHost()+0x90>
 8002070:	3f03      	subs	r7, #3
 8002072:	2f08      	cmp	r7, #8
 8002074:	d80a      	bhi.n	800208c <Widget::ReceiveDataFromHost()+0x90>
 8002076:	e8df f007 	tbb	[pc, r7]
 800207a:	2a09180c 	bcs	82480b2 <__exidx_end+0x24213a>
 800207e:	12093137 	andne	r3, r9, #-1073741811	; 0xc000000d
 8002082:	2f4d003e 	svccs	0x004d003e
 8002086:	d01c      	beq.n	80020c2 <Widget::ReceiveDataFromHost()+0xc6>
 8002088:	2f4e      	cmp	r7, #78	; 0x4e
 800208a:	d014      	beq.n	80020b6 <Widget::ReceiveDataFromHost()+0xba>
 800208c:	b003      	add	sp, #12
 800208e:	e8bd 83f0 	ldmia.w	sp!, {r4, r5, r6, r7, r8, r9, pc}
 8002092:	4620      	mov	r0, r4
 8002094:	b003      	add	sp, #12
 8002096:	e8bd 43f0 	ldmia.w	sp!, {r4, r5, r6, r7, r8, r9, lr}
 800209a:	f7ff bcfd 	b.w	8001a98 <Widget::GetParamsReply()>
 800209e:	4620      	mov	r0, r4
 80020a0:	b003      	add	sp, #12
 80020a2:	e8bd 43f0 	ldmia.w	sp!, {r4, r5, r6, r7, r8, r9, lr}
 80020a6:	f7ff be47 	b.w	8001d38 <Widget::GetSnReply()>
 80020aa:	4620      	mov	r0, r4
 80020ac:	b003      	add	sp, #12
 80020ae:	e8bd 43f0 	ldmia.w	sp!, {r4, r5, r6, r7, r8, r9, lr}
 80020b2:	f7ff bd23 	b.w	8001afc <Widget::SetParams()>
 80020b6:	4620      	mov	r0, r4
 80020b8:	b003      	add	sp, #12
 80020ba:	e8bd 43f0 	ldmia.w	sp!, {r4, r5, r6, r7, r8, r9, lr}
 80020be:	f7ff bf67 	b.w	8001f90 <Widget::GetNameReply()>
 80020c2:	4620      	mov	r0, r4
 80020c4:	b003      	add	sp, #12
 80020c6:	e8bd 43f0 	ldmia.w	sp!, {r4, r5, r6, r7, r8, r9, lr}
 80020ca:	f7ff bf2b 	b.w	8001f24 <Widget::GetManufacturerReply()>
 80020ce:	4629      	mov	r1, r5
 80020d0:	4620      	mov	r0, r4
 80020d2:	b003      	add	sp, #12
 80020d4:	e8bd 43f0 	ldmia.w	sp!, {r4, r5, r6, r7, r8, r9, lr}
 80020d8:	f7ff bd90 	b.w	8001bfc <Widget::SendDmxPacketRequestOutputOnly(unsigned short)>
 80020dc:	4620      	mov	r0, r4
 80020de:	b003      	add	sp, #12
 80020e0:	e8bd 43f0 	ldmia.w	sp!, {r4, r5, r6, r7, r8, r9, lr}
 80020e4:	f7ff bdda 	b.w	8001c9c <Widget::ReceiveDmxOnChange()>
 80020e8:	4629      	mov	r1, r5
 80020ea:	4620      	mov	r0, r4
 80020ec:	b003      	add	sp, #12
 80020ee:	e8bd 43f0 	ldmia.w	sp!, {r4, r5, r6, r7, r8, r9, lr}
 80020f2:	f7ff bda9 	b.w	8001c48 <Widget::SendRdmPacketRequest(unsigned short)>
 80020f6:	4629      	mov	r1, r5
 80020f8:	4620      	mov	r0, r4
 80020fa:	b003      	add	sp, #12
 80020fc:	e8bd 43f0 	ldmia.w	sp!, {r4, r5, r6, r7, r8, r9, lr}
 8002100:	f7ff be40 	b.w	8001d84 <Widget::SendRdmDiscoveryRequest(unsigned short)>
 8002104:	0800595e 	stmdaeq	r0, {r1, r2, r3, r4, r6, r8, fp, ip, lr}

08002108 <WidgetConfiguration::SetRefreshRate(unsigned char)>:
 8002108:	4b05      	ldr	r3, [pc, #20]	; (8002120 <WidgetConfiguration::SetRefreshRate(unsigned char)+0x18>)
 800210a:	7018      	strb	r0, [r3, #0]
 800210c:	b130      	cbz	r0, 800211c <WidgetConfiguration::SetRefreshRate(unsigned char)+0x14>
 800210e:	4905      	ldr	r1, [pc, #20]	; (8002124 <WidgetConfiguration::SetRefreshRate(unsigned char)+0x1c>)
 8002110:	fbb1 f1f0 	udiv	r1, r1, r0
 8002114:	4b04      	ldr	r3, [pc, #16]	; (8002128 <WidgetConfiguration::SetRefreshRate(unsigned char)+0x20>)
 8002116:	6818      	ldr	r0, [r3, #0]
 8002118:	f000 be9e 	b.w	8002e58 <Dmx::SetDmxPeriodTime(unsigned int)>
 800211c:	4601      	mov	r1, r0
 800211e:	e7f9      	b.n	8002114 <WidgetConfiguration::SetRefreshRate(unsigned char)+0xc>
 8002120:	20000004 	andcs	r0, r0, r4
 8002124:	000f4240 	andeq	r4, pc, r0, asr #4
 8002128:	20000724 	andcs	r0, r0, r4, lsr #14

0800212c <WidgetConfiguration::SetBreakTime(unsigned char)>:
 800212c:	b508      	push	{r3, lr}
 800212e:	4b08      	ldr	r3, [pc, #32]	; (8002150 <WidgetConfiguration::SetBreakTime(unsigned char)+0x24>)
 8002130:	7018      	strb	r0, [r3, #0]
 8002132:	f7fe f9bb 	bl	80004ac <__aeabi_i2f>
 8002136:	4907      	ldr	r1, [pc, #28]	; (8002154 <WidgetConfiguration::SetBreakTime(unsigned char)+0x28>)
 8002138:	f7fd fffa 	bl	8000130 <__aeabi_fmul>
 800213c:	f7ff f818 	bl	8001170 <__aeabi_f2uiz>
 8002140:	4b05      	ldr	r3, [pc, #20]	; (8002158 <WidgetConfiguration::SetBreakTime(unsigned char)+0x2c>)
 8002142:	4601      	mov	r1, r0
 8002144:	6818      	ldr	r0, [r3, #0]
 8002146:	e8bd 4008 	ldmia.w	sp!, {r3, lr}
 800214a:	f000 beb5 	b.w	8002eb8 <Dmx::SetDmxBreakTime(unsigned int)>
 800214e:	bf00      	nop
 8002150:	20000001 	andcs	r0, r0, r1
 8002154:	412ab852 			; <UNDEFINED> instruction: 0x412ab852
 8002158:	20000724 	andcs	r0, r0, r4, lsr #14

0800215c <WidgetConfiguration::SetMabTime(unsigned char)>:
 800215c:	b508      	push	{r3, lr}
 800215e:	4b08      	ldr	r3, [pc, #32]	; (8002180 <WidgetConfiguration::SetMabTime(unsigned char)+0x24>)
 8002160:	7018      	strb	r0, [r3, #0]
 8002162:	f7fe f9a3 	bl	80004ac <__aeabi_i2f>
 8002166:	4907      	ldr	r1, [pc, #28]	; (8002184 <WidgetConfiguration::SetMabTime(unsigned char)+0x28>)
 8002168:	f7fd ffe2 	bl	8000130 <__aeabi_fmul>
 800216c:	f7ff f800 	bl	8001170 <__aeabi_f2uiz>
 8002170:	4b05      	ldr	r3, [pc, #20]	; (8002188 <WidgetConfiguration::SetMabTime(unsigned char)+0x2c>)
 8002172:	4601      	mov	r1, r0
 8002174:	6818      	ldr	r0, [r3, #0]
 8002176:	e8bd 4008 	ldmia.w	sp!, {r3, lr}
 800217a:	f000 bea7 	b.w	8002ecc <Dmx::SetDmxMabTime(unsigned int)>
 800217e:	bf00      	nop
 8002180:	20000000 	andcs	r0, r0, r0
 8002184:	412ab852 			; <UNDEFINED> instruction: 0x412ab852
 8002188:	20000724 	andcs	r0, r0, r4, lsr #14

0800218c <WidgetConfiguration::SetMode(widget::Mode)>:
 800218c:	2800      	cmp	r0, #0
 800218e:	bf14      	ite	ne
 8002190:	4602      	movne	r2, r0
 8002192:	2202      	moveq	r2, #2
 8002194:	4b03      	ldr	r3, [pc, #12]	; (80021a4 <WidgetConfiguration::SetMode(widget::Mode)+0x18>)
 8002196:	701a      	strb	r2, [r3, #0]
 8002198:	4b03      	ldr	r3, [pc, #12]	; (80021a8 <WidgetConfiguration::SetMode(widget::Mode)+0x1c>)
 800219a:	681b      	ldr	r3, [r3, #0]
 800219c:	f8c3 02f0 	str.w	r0, [r3, #752]	; 0x2f0
 80021a0:	4770      	bx	lr
 80021a2:	bf00      	nop
 80021a4:	20000002 	andcs	r0, r0, r2
 80021a8:	200000f4 	strdcs	r0, [r0], -r4

080021ac <WidgetConfiguration::SetThrottle(unsigned char)>:
 80021ac:	b118      	cbz	r0, 80021b6 <WidgetConfiguration::SetThrottle(unsigned char)+0xa>
 80021ae:	f44f 737a 	mov.w	r3, #1000	; 0x3e8
 80021b2:	fbb3 f0f0 	udiv	r0, r3, r0
 80021b6:	4b02      	ldr	r3, [pc, #8]	; (80021c0 <WidgetConfiguration::SetThrottle(unsigned char)+0x14>)
 80021b8:	681b      	ldr	r3, [r3, #0]
 80021ba:	f8c3 02f8 	str.w	r0, [r3, #760]	; 0x2f8
 80021be:	4770      	bx	lr
 80021c0:	200000f4 	strdcs	r0, [r0], -r4

080021c4 <WidgetMonitor::Line(int, char const*, ...)>:
 80021c4:	b40e      	push	{r1, r2, r3}
 80021c6:	b003      	add	sp, #12
 80021c8:	4770      	bx	lr
	...

080021cc <WidgetParams::WidgetParams(WidgetParamsStore*)>:
 80021cc:	4a02      	ldr	r2, [pc, #8]	; (80021d8 <WidgetParams::WidgetParams(WidgetParamsStore*)+0xc>)
 80021ce:	6001      	str	r1, [r0, #0]
 80021d0:	6082      	str	r2, [r0, #8]
 80021d2:	2200      	movs	r2, #0
 80021d4:	7302      	strb	r2, [r0, #12]
 80021d6:	4770      	bx	lr
 80021d8:	00280109 	eoreq	r0, r8, r9, lsl #2

080021dc <WidgetParams::Load()>:
 80021dc:	2300      	movs	r3, #0
 80021de:	b513      	push	{r0, r1, r4, lr}
 80021e0:	4604      	mov	r4, r0
 80021e2:	4602      	mov	r2, r0
 80021e4:	6043      	str	r3, [r0, #4]
 80021e6:	4909      	ldr	r1, [pc, #36]	; (800220c <WidgetParams::Load()+0x30>)
 80021e8:	4668      	mov	r0, sp
 80021ea:	f001 fcca 	bl	8003b82 <ReadConfigFile::ReadConfigFile(void (*)(void*, char const*), void*)>
 80021ee:	6820      	ldr	r0, [r4, #0]
 80021f0:	b150      	cbz	r0, 8002208 <WidgetParams::Load()+0x2c>
 80021f2:	6803      	ldr	r3, [r0, #0]
 80021f4:	1d21      	adds	r1, r4, #4
 80021f6:	68db      	ldr	r3, [r3, #12]
 80021f8:	4798      	blx	r3
 80021fa:	2401      	movs	r4, #1
 80021fc:	4668      	mov	r0, sp
 80021fe:	f001 fcc3 	bl	8003b88 <ReadConfigFile::~ReadConfigFile()>
 8002202:	4620      	mov	r0, r4
 8002204:	b002      	add	sp, #8
 8002206:	bd10      	pop	{r4, pc}
 8002208:	4604      	mov	r4, r0
 800220a:	e7f7      	b.n	80021fc <WidgetParams::Load()+0x20>
 800220c:	080022d1 	stmdaeq	r0, {r0, r4, r6, r7, r9, sp}

08002210 <WidgetParams::callbackFunction(char const*)>:
 8002210:	b537      	push	{r0, r1, r2, r4, r5, lr}
 8002212:	460d      	mov	r5, r1
 8002214:	4604      	mov	r4, r0
 8002216:	4929      	ldr	r1, [pc, #164]	; (80022bc <WidgetParams::callbackFunction(char const*)+0xac>)
 8002218:	4628      	mov	r0, r5
 800221a:	f10d 0207 	add.w	r2, sp, #7
 800221e:	f001 fcb4 	bl	8003b8a <Sscan::Uint8(char const*, char const*, unsigned char&)>
 8002222:	b960      	cbnz	r0, 800223e <WidgetParams::callbackFunction(char const*)+0x2e>
 8002224:	f89d 3007 	ldrb.w	r3, [sp, #7]
 8002228:	f1a3 0209 	sub.w	r2, r3, #9
 800222c:	2a76      	cmp	r2, #118	; 0x76
 800222e:	d806      	bhi.n	800223e <WidgetParams::callbackFunction(char const*)+0x2e>
 8002230:	7223      	strb	r3, [r4, #8]
 8002232:	6863      	ldr	r3, [r4, #4]
 8002234:	f043 0301 	orr.w	r3, r3, #1
 8002238:	6063      	str	r3, [r4, #4]
 800223a:	b003      	add	sp, #12
 800223c:	bd30      	pop	{r4, r5, pc}
 800223e:	4628      	mov	r0, r5
 8002240:	491f      	ldr	r1, [pc, #124]	; (80022c0 <WidgetParams::callbackFunction(char const*)+0xb0>)
 8002242:	f10d 0207 	add.w	r2, sp, #7
 8002246:	f001 fca0 	bl	8003b8a <Sscan::Uint8(char const*, char const*, unsigned char&)>
 800224a:	b950      	cbnz	r0, 8002262 <WidgetParams::callbackFunction(char const*)+0x52>
 800224c:	f99d 2007 	ldrsb.w	r2, [sp, #7]
 8002250:	f89d 3007 	ldrb.w	r3, [sp, #7]
 8002254:	2a00      	cmp	r2, #0
 8002256:	dd04      	ble.n	8002262 <WidgetParams::callbackFunction(char const*)+0x52>
 8002258:	7263      	strb	r3, [r4, #9]
 800225a:	6863      	ldr	r3, [r4, #4]
 800225c:	f043 0302 	orr.w	r3, r3, #2
 8002260:	e7ea      	b.n	8002238 <WidgetParams::callbackFunction(char const*)+0x28>
 8002262:	4628      	mov	r0, r5
 8002264:	4917      	ldr	r1, [pc, #92]	; (80022c4 <WidgetParams::callbackFunction(char const*)+0xb4>)
 8002266:	f10d 0207 	add.w	r2, sp, #7
 800226a:	f001 fc8e 	bl	8003b8a <Sscan::Uint8(char const*, char const*, unsigned char&)>
 800226e:	b930      	cbnz	r0, 800227e <WidgetParams::callbackFunction(char const*)+0x6e>
 8002270:	f89d 3007 	ldrb.w	r3, [sp, #7]
 8002274:	72a3      	strb	r3, [r4, #10]
 8002276:	6863      	ldr	r3, [r4, #4]
 8002278:	f043 0304 	orr.w	r3, r3, #4
 800227c:	e7dc      	b.n	8002238 <WidgetParams::callbackFunction(char const*)+0x28>
 800227e:	4628      	mov	r0, r5
 8002280:	4911      	ldr	r1, [pc, #68]	; (80022c8 <WidgetParams::callbackFunction(char const*)+0xb8>)
 8002282:	f10d 0207 	add.w	r2, sp, #7
 8002286:	f001 fc80 	bl	8003b8a <Sscan::Uint8(char const*, char const*, unsigned char&)>
 800228a:	b940      	cbnz	r0, 800229e <WidgetParams::callbackFunction(char const*)+0x8e>
 800228c:	f89d 3007 	ldrb.w	r3, [sp, #7]
 8002290:	2b03      	cmp	r3, #3
 8002292:	d804      	bhi.n	800229e <WidgetParams::callbackFunction(char const*)+0x8e>
 8002294:	72e3      	strb	r3, [r4, #11]
 8002296:	6863      	ldr	r3, [r4, #4]
 8002298:	f043 0308 	orr.w	r3, r3, #8
 800229c:	e7cc      	b.n	8002238 <WidgetParams::callbackFunction(char const*)+0x28>
 800229e:	4628      	mov	r0, r5
 80022a0:	490a      	ldr	r1, [pc, #40]	; (80022cc <WidgetParams::callbackFunction(char const*)+0xbc>)
 80022a2:	f10d 0207 	add.w	r2, sp, #7
 80022a6:	f001 fc70 	bl	8003b8a <Sscan::Uint8(char const*, char const*, unsigned char&)>
 80022aa:	2800      	cmp	r0, #0
 80022ac:	d1c5      	bne.n	800223a <WidgetParams::callbackFunction(char const*)+0x2a>
 80022ae:	f89d 3007 	ldrb.w	r3, [sp, #7]
 80022b2:	7323      	strb	r3, [r4, #12]
 80022b4:	6863      	ldr	r3, [r4, #4]
 80022b6:	f043 0310 	orr.w	r3, r3, #16
 80022ba:	e7bd      	b.n	8002238 <WidgetParams::callbackFunction(char const*)+0x28>
 80022bc:	08005989 	stmdaeq	r0, {r0, r3, r7, r8, fp, ip, lr}
 80022c0:	08005976 	stmdaeq	r0, {r1, r2, r4, r5, r6, r8, fp, ip, lr}
 80022c4:	0800599e 	stmdaeq	r0, {r1, r2, r3, r4, r7, r8, fp, ip, lr}
 80022c8:	0800596a 	stmdaeq	r0, {r1, r3, r5, r6, r8, fp, ip, lr}
 80022cc:	080059b5 	stmdaeq	r0, {r0, r2, r4, r5, r7, r8, fp, ip, lr}

080022d0 <WidgetParams::staticCallbackFunction(void*, char const*)>:
 80022d0:	f7ff bf9e 	b.w	8002210 <WidgetParams::callbackFunction(char const*)>

080022d4 <WidgetParams::Set()>:
 80022d4:	6843      	ldr	r3, [r0, #4]
 80022d6:	b510      	push	{r4, lr}
 80022d8:	075b      	lsls	r3, r3, #29
 80022da:	4604      	mov	r4, r0
 80022dc:	d502      	bpl.n	80022e4 <WidgetParams::Set()+0x10>
 80022de:	7a80      	ldrb	r0, [r0, #10]
 80022e0:	f7ff ff12 	bl	8002108 <WidgetConfiguration::SetRefreshRate(unsigned char)>
 80022e4:	6863      	ldr	r3, [r4, #4]
 80022e6:	07d8      	lsls	r0, r3, #31
 80022e8:	d502      	bpl.n	80022f0 <WidgetParams::Set()+0x1c>
 80022ea:	7a20      	ldrb	r0, [r4, #8]
 80022ec:	f7ff ff1e 	bl	800212c <WidgetConfiguration::SetBreakTime(unsigned char)>
 80022f0:	6863      	ldr	r3, [r4, #4]
 80022f2:	0799      	lsls	r1, r3, #30
 80022f4:	d502      	bpl.n	80022fc <WidgetParams::Set()+0x28>
 80022f6:	7a60      	ldrb	r0, [r4, #9]
 80022f8:	f7ff ff30 	bl	800215c <WidgetConfiguration::SetMabTime(unsigned char)>
 80022fc:	6863      	ldr	r3, [r4, #4]
 80022fe:	06da      	lsls	r2, r3, #27
 8002300:	d502      	bpl.n	8002308 <WidgetParams::Set()+0x34>
 8002302:	7b20      	ldrb	r0, [r4, #12]
 8002304:	f7ff ff52 	bl	80021ac <WidgetConfiguration::SetThrottle(unsigned char)>
 8002308:	6863      	ldr	r3, [r4, #4]
 800230a:	071b      	lsls	r3, r3, #28
 800230c:	d504      	bpl.n	8002318 <WidgetParams::Set()+0x44>
 800230e:	7ae0      	ldrb	r0, [r4, #11]
 8002310:	e8bd 4010 	ldmia.w	sp!, {r4, lr}
 8002314:	f7ff bf3a 	b.w	800218c <WidgetConfiguration::SetMode(widget::Mode)>
 8002318:	bd10      	pop	{r4, pc}

0800231a <WidgetParams::Dump()>:
 800231a:	4770      	bx	lr

0800231c <Widget::UsbSendPackage(unsigned char const*, unsigned short, unsigned short)>:
 800231c:	e92d 43f8 	stmdb	sp!, {r3, r4, r5, r6, r7, r8, r9, lr}
 8002320:	4606      	mov	r6, r0
 8002322:	460f      	mov	r7, r1
 8002324:	461d      	mov	r5, r3
 8002326:	eb03 0802 	add.w	r8, r3, r2
 800232a:	eba8 0405 	sub.w	r4, r8, r5
 800232e:	b2a4      	uxth	r4, r4
 8002330:	2d63      	cmp	r5, #99	; 0x63
 8002332:	f04f 02c8 	mov.w	r2, #200	; 0xc8
 8002336:	f04f 0181 	mov.w	r1, #129	; 0x81
 800233a:	4630      	mov	r0, r6
 800233c:	443c      	add	r4, r7
 800233e:	d81e      	bhi.n	800237e <Widget::UsbSendPackage(unsigned char const*, unsigned short, unsigned short)+0x62>
 8002340:	f000 f8ee 	bl	8002520 <Widget::SendHeader(unsigned char, unsigned int)>
 8002344:	f04f 0800 	mov.w	r8, #0
 8002348:	4545      	cmp	r5, r8
 800234a:	462f      	mov	r7, r5
 800234c:	d909      	bls.n	8002362 <Widget::UsbSendPackage(unsigned char const*, unsigned short, unsigned short)+0x46>
 800234e:	2080      	movs	r0, #128	; 0x80
 8002350:	f000 fe81 	bl	8003056 <usb_send_byte>
 8002354:	f814 0b01 	ldrb.w	r0, [r4], #1
 8002358:	f000 fe7d 	bl	8003056 <usb_send_byte>
 800235c:	f108 0801 	add.w	r8, r8, #1
 8002360:	e7f2      	b.n	8002348 <Widget::UsbSendPackage(unsigned char const*, unsigned short, unsigned short)+0x2c>
 8002362:	2000      	movs	r0, #0
 8002364:	f000 fe77 	bl	8003056 <usb_send_byte>
 8002368:	3701      	adds	r7, #1
 800236a:	2002      	movs	r0, #2
 800236c:	f000 fe73 	bl	8003056 <usb_send_byte>
 8002370:	2f64      	cmp	r7, #100	; 0x64
 8002372:	d1f6      	bne.n	8002362 <Widget::UsbSendPackage(unsigned char const*, unsigned short, unsigned short)+0x46>
 8002374:	4630      	mov	r0, r6
 8002376:	e8bd 43f8 	ldmia.w	sp!, {r3, r4, r5, r6, r7, r8, r9, lr}
 800237a:	f000 b8ee 	b.w	800255a <Widget::SendFooter()>
 800237e:	f000 f8cf 	bl	8002520 <Widget::SendHeader(unsigned char, unsigned int)>
 8002382:	f04f 0900 	mov.w	r9, #0
 8002386:	2080      	movs	r0, #128	; 0x80
 8002388:	f000 fe65 	bl	8003056 <usb_send_byte>
 800238c:	f109 0901 	add.w	r9, r9, #1
 8002390:	f814 0b01 	ldrb.w	r0, [r4], #1
 8002394:	f000 fe5f 	bl	8003056 <usb_send_byte>
 8002398:	f1b9 0f64 	cmp.w	r9, #100	; 0x64
 800239c:	d1f3      	bne.n	8002386 <Widget::UsbSendPackage(unsigned char const*, unsigned short, unsigned short)+0x6a>
 800239e:	4630      	mov	r0, r6
 80023a0:	3d64      	subs	r5, #100	; 0x64
 80023a2:	f000 f8da 	bl	800255a <Widget::SendFooter()>
 80023a6:	b2ad      	uxth	r5, r5
 80023a8:	e7bf      	b.n	800232a <Widget::UsbSendPackage(unsigned char const*, unsigned short, unsigned short)+0xe>
	...

080023ac <Widget::UsbCanSend()>:
 80023ac:	b570      	push	{r4, r5, r6, lr}
 80023ae:	4a12      	ldr	r2, [pc, #72]	; (80023f8 <Widget::UsbCanSend()+0x4c>)
 80023b0:	4812      	ldr	r0, [pc, #72]	; (80023fc <Widget::UsbCanSend()+0x50>)
 80023b2:	6a53      	ldr	r3, [r2, #36]	; 0x24
 80023b4:	f8d0 4c24 	ldr.w	r4, [r0, #3108]	; 0xc24
 80023b8:	6a51      	ldr	r1, [r2, #36]	; 0x24
 80023ba:	428b      	cmp	r3, r1
 80023bc:	d1f9      	bne.n	80023b2 <Widget::UsbCanSend()+0x6>
 80023be:	4d0e      	ldr	r5, [pc, #56]	; (80023f8 <Widget::UsbCanSend()+0x4c>)
 80023c0:	4e0e      	ldr	r6, [pc, #56]	; (80023fc <Widget::UsbCanSend()+0x50>)
 80023c2:	ea44 4403 	orr.w	r4, r4, r3, lsl #16
 80023c6:	f000 ff3b 	bl	8003240 <FT245RL_can_write>
 80023ca:	b958      	cbnz	r0, 80023e4 <Widget::UsbCanSend()+0x38>
 80023cc:	6a6a      	ldr	r2, [r5, #36]	; 0x24
 80023ce:	f8d6 3c24 	ldr.w	r3, [r6, #3108]	; 0xc24
 80023d2:	6a69      	ldr	r1, [r5, #36]	; 0x24
 80023d4:	428a      	cmp	r2, r1
 80023d6:	d1f9      	bne.n	80023cc <Widget::UsbCanSend()+0x20>
 80023d8:	ea43 4302 	orr.w	r3, r3, r2, lsl #16
 80023dc:	1b1b      	subs	r3, r3, r4
 80023de:	f5b3 7f7a 	cmp.w	r3, #1000	; 0x3e8
 80023e2:	d3f0      	bcc.n	80023c6 <Widget::UsbCanSend()+0x1a>
 80023e4:	f000 ff2c 	bl	8003240 <FT245RL_can_write>
 80023e8:	4604      	mov	r4, r0
 80023ea:	b918      	cbnz	r0, 80023f4 <Widget::UsbCanSend()+0x48>
 80023ec:	2007      	movs	r0, #7
 80023ee:	4904      	ldr	r1, [pc, #16]	; (8002400 <Widget::UsbCanSend()+0x54>)
 80023f0:	f7ff fee8 	bl	80021c4 <WidgetMonitor::Line(int, char const*, ...)>
 80023f4:	4620      	mov	r0, r4
 80023f6:	bd70      	pop	{r4, r5, r6, pc}
 80023f8:	40015000 	andmi	r5, r1, r0
 80023fc:	40014000 	andmi	r4, r1, r0
 8002400:	080059cf 	stmdaeq	r0, {r0, r1, r2, r3, r6, r7, r8, fp, ip, lr}

08002404 <Widget::SnifferDmx()>:
 8002404:	f8d0 32f0 	ldr.w	r3, [r0, #752]	; 0x2f0
 8002408:	b570      	push	{r4, r5, r6, lr}
 800240a:	2b03      	cmp	r3, #3
 800240c:	4604      	mov	r4, r0
 800240e:	d11c      	bne.n	800244a <Widget::SnifferDmx()+0x46>
 8002410:	f7ff ffcc 	bl	80023ac <Widget::UsbCanSend()>
 8002414:	b1c8      	cbz	r0, 800244a <Widget::SnifferDmx()+0x46>
 8002416:	2100      	movs	r1, #0
 8002418:	4620      	mov	r0, r4
 800241a:	f000 fd9d 	bl	8002f58 <Dmx::GetDmxChanged(unsigned int)>
 800241e:	4605      	mov	r5, r0
 8002420:	b198      	cbz	r0, 800244a <Widget::SnifferDmx()+0x46>
 8002422:	f8d0 6204 	ldr.w	r6, [r0, #516]	; 0x204
 8002426:	4620      	mov	r0, r4
 8002428:	f7ff ffc0 	bl	80023ac <Widget::UsbCanSend()>
 800242c:	b168      	cbz	r0, 800244a <Widget::SnifferDmx()+0x46>
 800242e:	3601      	adds	r6, #1
 8002430:	4632      	mov	r2, r6
 8002432:	2007      	movs	r0, #7
 8002434:	4905      	ldr	r1, [pc, #20]	; (800244c <Widget::SnifferDmx()+0x48>)
 8002436:	f7ff fec5 	bl	80021c4 <WidgetMonitor::Line(int, char const*, ...)>
 800243a:	4629      	mov	r1, r5
 800243c:	4620      	mov	r0, r4
 800243e:	b2b3      	uxth	r3, r6
 8002440:	2200      	movs	r2, #0
 8002442:	e8bd 4070 	ldmia.w	sp!, {r4, r5, r6, lr}
 8002446:	f7ff bf69 	b.w	800231c <Widget::UsbSendPackage(unsigned char const*, unsigned short, unsigned short)>
 800244a:	bd70      	pop	{r4, r5, r6, pc}
 800244c:	080059ec 	stmdaeq	r0, {r2, r3, r5, r6, r7, r8, fp, ip, lr}

08002450 <Widget::SnifferRdm()>:
 8002450:	f8d0 32f0 	ldr.w	r3, [r0, #752]	; 0x2f0
 8002454:	b570      	push	{r4, r5, r6, lr}
 8002456:	2b03      	cmp	r3, #3
 8002458:	4604      	mov	r4, r0
 800245a:	d14c      	bne.n	80024f6 <Widget::SnifferRdm()+0xa6>
 800245c:	f7ff ffa6 	bl	80023ac <Widget::UsbCanSend()>
 8002460:	2800      	cmp	r0, #0
 8002462:	d048      	beq.n	80024f6 <Widget::SnifferRdm()+0xa6>
 8002464:	2000      	movs	r0, #0
 8002466:	f000 f935 	bl	80026d4 <Rdm::Receive(unsigned int)>
 800246a:	4605      	mov	r5, r0
 800246c:	2800      	cmp	r0, #0
 800246e:	d042      	beq.n	80024f6 <Widget::SnifferRdm()+0xa6>
 8002470:	7803      	ldrb	r3, [r0, #0]
 8002472:	2bcc      	cmp	r3, #204	; 0xcc
 8002474:	d134      	bne.n	80024e0 <Widget::SnifferRdm()+0x90>
 8002476:	7886      	ldrb	r6, [r0, #2]
 8002478:	7d03      	ldrb	r3, [r0, #20]
 800247a:	3602      	adds	r6, #2
 800247c:	2b20      	cmp	r3, #32
 800247e:	b2f6      	uxtb	r6, r6
 8002480:	d028      	beq.n	80024d4 <Widget::SnifferRdm()+0x84>
 8002482:	d813      	bhi.n	80024ac <Widget::SnifferRdm()+0x5c>
 8002484:	2b10      	cmp	r3, #16
 8002486:	d019      	beq.n	80024bc <Widget::SnifferRdm()+0x6c>
 8002488:	2b11      	cmp	r3, #17
 800248a:	d01d      	beq.n	80024c8 <Widget::SnifferRdm()+0x78>
 800248c:	4620      	mov	r0, r4
 800248e:	f7ff ff8d 	bl	80023ac <Widget::UsbCanSend()>
 8002492:	b380      	cbz	r0, 80024f6 <Widget::SnifferRdm()+0xa6>
 8002494:	2007      	movs	r0, #7
 8002496:	4918      	ldr	r1, [pc, #96]	; (80024f8 <Widget::SnifferRdm()+0xa8>)
 8002498:	f7ff fe94 	bl	80021c4 <WidgetMonitor::Line(int, char const*, ...)>
 800249c:	4633      	mov	r3, r6
 800249e:	4629      	mov	r1, r5
 80024a0:	4620      	mov	r0, r4
 80024a2:	e8bd 4070 	ldmia.w	sp!, {r4, r5, r6, lr}
 80024a6:	2200      	movs	r2, #0
 80024a8:	f7ff bf38 	b.w	800231c <Widget::UsbSendPackage(unsigned char const*, unsigned short, unsigned short)>
 80024ac:	2b30      	cmp	r3, #48	; 0x30
 80024ae:	d1ed      	bne.n	800248c <Widget::SnifferRdm()+0x3c>
 80024b0:	f8d4 3318 	ldr.w	r3, [r4, #792]	; 0x318
 80024b4:	3301      	adds	r3, #1
 80024b6:	f8c4 3318 	str.w	r3, [r4, #792]	; 0x318
 80024ba:	e7e7      	b.n	800248c <Widget::SnifferRdm()+0x3c>
 80024bc:	f8d4 330c 	ldr.w	r3, [r4, #780]	; 0x30c
 80024c0:	3301      	adds	r3, #1
 80024c2:	f8c4 330c 	str.w	r3, [r4, #780]	; 0x30c
 80024c6:	e7e1      	b.n	800248c <Widget::SnifferRdm()+0x3c>
 80024c8:	f8d4 3310 	ldr.w	r3, [r4, #784]	; 0x310
 80024cc:	3301      	adds	r3, #1
 80024ce:	f8c4 3310 	str.w	r3, [r4, #784]	; 0x310
 80024d2:	e7db      	b.n	800248c <Widget::SnifferRdm()+0x3c>
 80024d4:	f8d4 3314 	ldr.w	r3, [r4, #788]	; 0x314
 80024d8:	3301      	adds	r3, #1
 80024da:	f8c4 3314 	str.w	r3, [r4, #788]	; 0x314
 80024de:	e7d5      	b.n	800248c <Widget::SnifferRdm()+0x3c>
 80024e0:	2bfe      	cmp	r3, #254	; 0xfe
 80024e2:	bf03      	ittte	eq
 80024e4:	f8d4 3310 	ldreq.w	r3, [r4, #784]	; 0x310
 80024e8:	2618      	moveq	r6, #24
 80024ea:	3301      	addeq	r3, #1
 80024ec:	2600      	movne	r6, #0
 80024ee:	bf08      	it	eq
 80024f0:	f8c4 3310 	streq.w	r3, [r4, #784]	; 0x310
 80024f4:	e7ca      	b.n	800248c <Widget::SnifferRdm()+0x3c>
 80024f6:	bd70      	pop	{r4, r5, r6, pc}
 80024f8:	08005a08 	stmdaeq	r0, {r3, r9, fp, ip, lr}

080024fc <Widget::SnifferFillTransmitBuffer()>:
 80024fc:	b538      	push	{r3, r4, r5, lr}
 80024fe:	4605      	mov	r5, r0
 8002500:	f7ff ff54 	bl	80023ac <Widget::UsbCanSend()>
 8002504:	b158      	cbz	r0, 800251e <Widget::SnifferFillTransmitBuffer()+0x22>
 8002506:	f240 1401 	movw	r4, #257	; 0x101
 800250a:	3c01      	subs	r4, #1
 800250c:	d007      	beq.n	800251e <Widget::SnifferFillTransmitBuffer()+0x22>
 800250e:	4628      	mov	r0, r5
 8002510:	f7ff ff4c 	bl	80023ac <Widget::UsbCanSend()>
 8002514:	b118      	cbz	r0, 800251e <Widget::SnifferFillTransmitBuffer()+0x22>
 8002516:	2000      	movs	r0, #0
 8002518:	f000 fd9d 	bl	8003056 <usb_send_byte>
 800251c:	e7f5      	b.n	800250a <Widget::SnifferFillTransmitBuffer()+0xe>
 800251e:	bd38      	pop	{r3, r4, r5, pc}

08002520 <Widget::SendHeader(unsigned char, unsigned int)>:
 8002520:	b538      	push	{r3, r4, r5, lr}
 8002522:	460d      	mov	r5, r1
 8002524:	4614      	mov	r4, r2
 8002526:	207e      	movs	r0, #126	; 0x7e
 8002528:	f000 fd95 	bl	8003056 <usb_send_byte>
 800252c:	4628      	mov	r0, r5
 800252e:	f000 fd92 	bl	8003056 <usb_send_byte>
 8002532:	b2e0      	uxtb	r0, r4
 8002534:	f000 fd8f 	bl	8003056 <usb_send_byte>
 8002538:	f3c4 2007 	ubfx	r0, r4, #8, #8
 800253c:	e8bd 4038 	ldmia.w	sp!, {r3, r4, r5, lr}
 8002540:	f000 bd89 	b.w	8003056 <usb_send_byte>

08002544 <Widget::SendData(unsigned char const*, unsigned int)>:
 8002544:	b538      	push	{r3, r4, r5, lr}
 8002546:	460c      	mov	r4, r1
 8002548:	188d      	adds	r5, r1, r2
 800254a:	42ac      	cmp	r4, r5
 800254c:	d004      	beq.n	8002558 <Widget::SendData(unsigned char const*, unsigned int)+0x14>
 800254e:	f814 0b01 	ldrb.w	r0, [r4], #1
 8002552:	f000 fd80 	bl	8003056 <usb_send_byte>
 8002556:	e7f8      	b.n	800254a <Widget::SendData(unsigned char const*, unsigned int)+0x6>
 8002558:	bd38      	pop	{r3, r4, r5, pc}

0800255a <Widget::SendFooter()>:
 800255a:	20e7      	movs	r0, #231	; 0xe7
 800255c:	f000 bd7b 	b.w	8003056 <usb_send_byte>

08002560 <Widget::SendMessage(unsigned char, unsigned char const*, unsigned int)>:
 8002560:	b570      	push	{r4, r5, r6, lr}
 8002562:	461c      	mov	r4, r3
 8002564:	4605      	mov	r5, r0
 8002566:	4616      	mov	r6, r2
 8002568:	461a      	mov	r2, r3
 800256a:	f7ff ffd9 	bl	8002520 <Widget::SendHeader(unsigned char, unsigned int)>
 800256e:	4628      	mov	r0, r5
 8002570:	4622      	mov	r2, r4
 8002572:	4631      	mov	r1, r6
 8002574:	f7ff ffe6 	bl	8002544 <Widget::SendData(unsigned char const*, unsigned int)>
 8002578:	e8bd 4070 	ldmia.w	sp!, {r4, r5, r6, lr}
 800257c:	20e7      	movs	r0, #231	; 0xe7
 800257e:	f000 bd6a 	b.w	8003056 <usb_send_byte>
	...

08002584 <StoreWidget::UpdateBreakTime(unsigned char)>:
 8002584:	b57f      	push	{r0, r1, r2, r3, r4, r5, r6, lr}
 8002586:	2301      	movs	r3, #1
 8002588:	2200      	movs	r2, #0
 800258a:	e9cd 3201 	strd	r3, r2, [sp, #4]
 800258e:	4807      	ldr	r0, [pc, #28]	; (80025ac <StoreWidget::UpdateBreakTime(unsigned char)+0x28>)
 8002590:	9300      	str	r3, [sp, #0]
 8002592:	f88d 1017 	strb.w	r1, [sp, #23]
 8002596:	2204      	movs	r2, #4
 8002598:	210a      	movs	r1, #10
 800259a:	6800      	ldr	r0, [r0, #0]
 800259c:	f10d 0317 	add.w	r3, sp, #23
 80025a0:	f000 fffa 	bl	8003598 <SpiFlashStore::Update(spiflashstore::Store, unsigned int, void const*, unsigned int, unsigned int, unsigned int)>
 80025a4:	b007      	add	sp, #28
 80025a6:	f85d fb04 	ldr.w	pc, [sp], #4
 80025aa:	bf00      	nop
 80025ac:	20001740 	andcs	r1, r0, r0, asr #14

080025b0 <non-virtual thunk to StoreWidget::UpdateBreakTime(unsigned char)>:
 80025b0:	f1a0 0004 	sub.w	r0, r0, #4
 80025b4:	e7e6      	b.n	8002584 <StoreWidget::UpdateBreakTime(unsigned char)>
 80025b6:	bf00      	nop

080025b8 <StoreWidget::UpdateMabTime(unsigned char)>:
 80025b8:	b57f      	push	{r0, r1, r2, r3, r4, r5, r6, lr}
 80025ba:	2302      	movs	r3, #2
 80025bc:	2200      	movs	r2, #0
 80025be:	e9cd 3201 	strd	r3, r2, [sp, #4]
 80025c2:	2301      	movs	r3, #1
 80025c4:	4806      	ldr	r0, [pc, #24]	; (80025e0 <StoreWidget::UpdateMabTime(unsigned char)+0x28>)
 80025c6:	9300      	str	r3, [sp, #0]
 80025c8:	f88d 1017 	strb.w	r1, [sp, #23]
 80025cc:	2205      	movs	r2, #5
 80025ce:	210a      	movs	r1, #10
 80025d0:	6800      	ldr	r0, [r0, #0]
 80025d2:	f10d 0317 	add.w	r3, sp, #23
 80025d6:	f000 ffdf 	bl	8003598 <SpiFlashStore::Update(spiflashstore::Store, unsigned int, void const*, unsigned int, unsigned int, unsigned int)>
 80025da:	b007      	add	sp, #28
 80025dc:	f85d fb04 	ldr.w	pc, [sp], #4
 80025e0:	20001740 	andcs	r1, r0, r0, asr #14

080025e4 <non-virtual thunk to StoreWidget::UpdateMabTime(unsigned char)>:
 80025e4:	f1a0 0004 	sub.w	r0, r0, #4
 80025e8:	e7e6      	b.n	80025b8 <StoreWidget::UpdateMabTime(unsigned char)>
 80025ea:	bf00      	nop

080025ec <StoreWidget::UpdateRefreshRate(unsigned char)>:
 80025ec:	b57f      	push	{r0, r1, r2, r3, r4, r5, r6, lr}
 80025ee:	2304      	movs	r3, #4
 80025f0:	2200      	movs	r2, #0
 80025f2:	e9cd 3201 	strd	r3, r2, [sp, #4]
 80025f6:	2301      	movs	r3, #1
 80025f8:	4806      	ldr	r0, [pc, #24]	; (8002614 <StoreWidget::UpdateRefreshRate(unsigned char)+0x28>)
 80025fa:	9300      	str	r3, [sp, #0]
 80025fc:	f88d 1017 	strb.w	r1, [sp, #23]
 8002600:	2206      	movs	r2, #6
 8002602:	210a      	movs	r1, #10
 8002604:	6800      	ldr	r0, [r0, #0]
 8002606:	f10d 0317 	add.w	r3, sp, #23
 800260a:	f000 ffc5 	bl	8003598 <SpiFlashStore::Update(spiflashstore::Store, unsigned int, void const*, unsigned int, unsigned int, unsigned int)>
 800260e:	b007      	add	sp, #28
 8002610:	f85d fb04 	ldr.w	pc, [sp], #4
 8002614:	20001740 	andcs	r1, r0, r0, asr #14

08002618 <non-virtual thunk to StoreWidget::UpdateRefreshRate(unsigned char)>:
 8002618:	f1a0 0004 	sub.w	r0, r0, #4
 800261c:	e7e6      	b.n	80025ec <StoreWidget::UpdateRefreshRate(unsigned char)>
 800261e:	bf00      	nop

08002620 <WidgetConfiguration::Store(TWidgetConfiguration const*)>:
 8002620:	b510      	push	{r4, lr}
 8002622:	4b25      	ldr	r3, [pc, #148]	; (80026b8 <WidgetConfiguration::Store(TWidgetConfiguration const*)+0x98>)
 8002624:	4604      	mov	r4, r0
 8002626:	781a      	ldrb	r2, [r3, #0]
 8002628:	7880      	ldrb	r0, [r0, #2]
 800262a:	4282      	cmp	r2, r0
 800262c:	d013      	beq.n	8002656 <WidgetConfiguration::Store(TWidgetConfiguration const*)+0x36>
 800262e:	7018      	strb	r0, [r3, #0]
 8002630:	f7fe fb02 	bl	8000c38 <__aeabi_i2d>
 8002634:	a31e      	add	r3, pc, #120	; (adr r3, 80026b0 <WidgetConfiguration::Store(TWidgetConfiguration const*)+0x90>)
 8002636:	e9d3 2300 	ldrd	r2, r3, [r3]
 800263a:	f7fe fb67 	bl	8000d0c <__aeabi_dmul>
 800263e:	f7fe fd77 	bl	8001130 <__aeabi_d2uiz>
 8002642:	4b1e      	ldr	r3, [pc, #120]	; (80026bc <WidgetConfiguration::Store(TWidgetConfiguration const*)+0x9c>)
 8002644:	4601      	mov	r1, r0
 8002646:	6818      	ldr	r0, [r3, #0]
 8002648:	f000 fc36 	bl	8002eb8 <Dmx::SetDmxBreakTime(unsigned int)>
 800264c:	4b1c      	ldr	r3, [pc, #112]	; (80026c0 <WidgetConfiguration::Store(TWidgetConfiguration const*)+0xa0>)
 800264e:	78a1      	ldrb	r1, [r4, #2]
 8002650:	6818      	ldr	r0, [r3, #0]
 8002652:	f7ff ff97 	bl	8002584 <StoreWidget::UpdateBreakTime(unsigned char)>
 8002656:	4b1b      	ldr	r3, [pc, #108]	; (80026c4 <WidgetConfiguration::Store(TWidgetConfiguration const*)+0xa4>)
 8002658:	78e0      	ldrb	r0, [r4, #3]
 800265a:	781a      	ldrb	r2, [r3, #0]
 800265c:	4282      	cmp	r2, r0
 800265e:	d013      	beq.n	8002688 <WidgetConfiguration::Store(TWidgetConfiguration const*)+0x68>
 8002660:	7018      	strb	r0, [r3, #0]
 8002662:	f7fe fae9 	bl	8000c38 <__aeabi_i2d>
 8002666:	a312      	add	r3, pc, #72	; (adr r3, 80026b0 <WidgetConfiguration::Store(TWidgetConfiguration const*)+0x90>)
 8002668:	e9d3 2300 	ldrd	r2, r3, [r3]
 800266c:	f7fe fb4e 	bl	8000d0c <__aeabi_dmul>
 8002670:	f7fe fd5e 	bl	8001130 <__aeabi_d2uiz>
 8002674:	4b11      	ldr	r3, [pc, #68]	; (80026bc <WidgetConfiguration::Store(TWidgetConfiguration const*)+0x9c>)
 8002676:	4601      	mov	r1, r0
 8002678:	6818      	ldr	r0, [r3, #0]
 800267a:	f000 fc27 	bl	8002ecc <Dmx::SetDmxMabTime(unsigned int)>
 800267e:	4b10      	ldr	r3, [pc, #64]	; (80026c0 <WidgetConfiguration::Store(TWidgetConfiguration const*)+0xa0>)
 8002680:	78e1      	ldrb	r1, [r4, #3]
 8002682:	6818      	ldr	r0, [r3, #0]
 8002684:	f7ff ff98 	bl	80025b8 <StoreWidget::UpdateMabTime(unsigned char)>
 8002688:	4b0f      	ldr	r3, [pc, #60]	; (80026c8 <WidgetConfiguration::Store(TWidgetConfiguration const*)+0xa8>)
 800268a:	7921      	ldrb	r1, [r4, #4]
 800268c:	781a      	ldrb	r2, [r3, #0]
 800268e:	428a      	cmp	r2, r1
 8002690:	d00d      	beq.n	80026ae <WidgetConfiguration::Store(TWidgetConfiguration const*)+0x8e>
 8002692:	7019      	strb	r1, [r3, #0]
 8002694:	4b09      	ldr	r3, [pc, #36]	; (80026bc <WidgetConfiguration::Store(TWidgetConfiguration const*)+0x9c>)
 8002696:	6818      	ldr	r0, [r3, #0]
 8002698:	b111      	cbz	r1, 80026a0 <WidgetConfiguration::Store(TWidgetConfiguration const*)+0x80>
 800269a:	4b0c      	ldr	r3, [pc, #48]	; (80026cc <WidgetConfiguration::Store(TWidgetConfiguration const*)+0xac>)
 800269c:	fbb3 f1f1 	udiv	r1, r3, r1
 80026a0:	f000 fbda 	bl	8002e58 <Dmx::SetDmxPeriodTime(unsigned int)>
 80026a4:	4b06      	ldr	r3, [pc, #24]	; (80026c0 <WidgetConfiguration::Store(TWidgetConfiguration const*)+0xa0>)
 80026a6:	7921      	ldrb	r1, [r4, #4]
 80026a8:	6818      	ldr	r0, [r3, #0]
 80026aa:	f7ff ff9f 	bl	80025ec <StoreWidget::UpdateRefreshRate(unsigned char)>
 80026ae:	bd10      	pop	{r4, pc}
 80026b0:	3d70a3d7 	ldclcc	3, cr10, [r0, #-860]!	; 0xfffffca4
 80026b4:	4025570a 	eormi	r5, r5, sl, lsl #14
 80026b8:	20000001 	andcs	r0, r0, r1
 80026bc:	20000724 	andcs	r0, r0, r4, lsr #14
 80026c0:	2000174c 	andcs	r1, r0, ip, asr #14
 80026c4:	20000000 	andcs	r0, r0, r0
 80026c8:	20000004 	andcs	r0, r0, r4
 80026cc:	000f4240 	andeq	r4, pc, r0, asr #4

080026d0 <WidgetMonitor::RdmData(int, unsigned short, unsigned char const*, bool)>:
 80026d0:	4770      	bx	lr
	...

080026d4 <Rdm::Receive(unsigned int)>:
 80026d4:	4b02      	ldr	r3, [pc, #8]	; (80026e0 <Rdm::Receive(unsigned int)+0xc>)
 80026d6:	4601      	mov	r1, r0
 80026d8:	6818      	ldr	r0, [r3, #0]
 80026da:	f000 bca1 	b.w	8003020 <Dmx::RdmReceive(unsigned int)>
 80026de:	bf00      	nop
 80026e0:	20000724 	andcs	r0, r0, r4, lsr #14

080026e4 <Rdm::SendRaw(unsigned int, unsigned char const*, unsigned int)>:
 80026e4:	2300      	movs	r3, #0
 80026e6:	e92d 41f0 	stmdb	sp!, {r4, r5, r6, r7, r8, lr}
 80026ea:	4604      	mov	r4, r0
 80026ec:	460e      	mov	r6, r1
 80026ee:	4617      	mov	r7, r2
 80026f0:	4d0b      	ldr	r5, [pc, #44]	; (8002720 <Rdm::SendRaw(unsigned int, unsigned char const*, unsigned int)+0x3c>)
 80026f2:	461a      	mov	r2, r3
 80026f4:	4601      	mov	r1, r0
 80026f6:	6828      	ldr	r0, [r5, #0]
 80026f8:	f000 fa9c 	bl	8002c34 <Dmx::SetPortDirection(unsigned int, dmx::PortDirection, bool)>
 80026fc:	463b      	mov	r3, r7
 80026fe:	4632      	mov	r2, r6
 8002700:	4621      	mov	r1, r4
 8002702:	6828      	ldr	r0, [r5, #0]
 8002704:	f000 fc46 	bl	8002f94 <Dmx::RdmSendRaw(unsigned int, unsigned char const*, unsigned int)>
 8002708:	2100      	movs	r1, #0
 800270a:	2004      	movs	r0, #4
 800270c:	f002 fe1e 	bl	800534c <udelay(unsigned int, unsigned int)>
 8002710:	2301      	movs	r3, #1
 8002712:	4621      	mov	r1, r4
 8002714:	6828      	ldr	r0, [r5, #0]
 8002716:	461a      	mov	r2, r3
 8002718:	e8bd 41f0 	ldmia.w	sp!, {r4, r5, r6, r7, r8, lr}
 800271c:	f000 ba8a 	b.w	8002c34 <Dmx::SetPortDirection(unsigned int, dmx::PortDirection, bool)>
 8002720:	20000724 	andcs	r0, r0, r4, lsr #14

08002724 <USART2_IRQHandler>:
 8002724:	b510      	push	{r4, lr}
 8002726:	f3bf 8f5f 	dmb	sy
 800272a:	f04f 2240 	mov.w	r2, #1073758208	; 0x40004000
 800272e:	f8d2 3800 	ldr.w	r3, [r2, #2048]	; 0x800
 8002732:	f013 0f02 	tst.w	r3, #2
 8002736:	4b74      	ldr	r3, [pc, #464]	; (8002908 <USART2_IRQHandler+0x1e4>)
 8002738:	d00e      	beq.n	8002758 <USART2_IRQHandler+0x34>
 800273a:	f8d2 1800 	ldr.w	r1, [r2, #2048]	; 0x800
 800273e:	f021 0102 	bic.w	r1, r1, #2
 8002742:	f8c2 1800 	str.w	r1, [r2, #2048]	; 0x800
 8002746:	f8d2 2804 	ldr.w	r2, [r2, #2052]	; 0x804
 800274a:	2200      	movs	r2, #0
 800274c:	f8c3 2204 	str.w	r2, [r3, #516]	; 0x204
 8002750:	2202      	movs	r2, #2
 8002752:	f8c3 220c 	str.w	r2, [r3, #524]	; 0x20c
 8002756:	bd10      	pop	{r4, pc}
 8002758:	f8d2 2804 	ldr.w	r2, [r2, #2052]	; 0x804
 800275c:	f8d3 120c 	ldr.w	r1, [r3, #524]	; 0x20c
 8002760:	f3c2 0208 	ubfx	r2, r2, #0, #9
 8002764:	290a      	cmp	r1, #10
 8002766:	f200 80ca 	bhi.w	80028fe <USART2_IRQHandler+0x1da>
 800276a:	e8df f001 	tbb	[pc, r1]
 800276e:	c810c806 	ldmdagt	r0, {r1, r2, fp, lr, pc}
 8002772:	6d5f482c 	ldclvs	8, cr4, [pc, #-176]	; 80026c8 <WidgetConfiguration::Store(TWidgetConfiguration const*)+0xa8>
 8002776:	00ac9886 	adceq	r9, ip, r6, lsl #17
 800277a:	2108      	movs	r1, #8
 800277c:	701a      	strb	r2, [r3, #0]
 800277e:	2201      	movs	r2, #1
 8002780:	f8c3 120c 	str.w	r1, [r3, #524]	; 0x20c
 8002784:	f8a3 2204 	strh.w	r2, [r3, #516]	; 0x204
 8002788:	f3bf 8f5f 	dmb	sy
 800278c:	e7e3      	b.n	8002756 <USART2_IRQHandler+0x32>
 800278e:	b11a      	cbz	r2, 8002798 <USART2_IRQHandler+0x74>
 8002790:	2acc      	cmp	r2, #204	; 0xcc
 8002792:	d012      	beq.n	80027ba <USART2_IRQHandler+0x96>
 8002794:	2200      	movs	r2, #0
 8002796:	e00d      	b.n	80027b4 <USART2_IRQHandler+0x90>
 8002798:	701a      	strb	r2, [r3, #0]
 800279a:	2201      	movs	r2, #1
 800279c:	f8c3 2204 	str.w	r2, [r3, #516]	; 0x204
 80027a0:	4a5a      	ldr	r2, [pc, #360]	; (800290c <USART2_IRQHandler+0x1e8>)
 80027a2:	6851      	ldr	r1, [r2, #4]
 80027a4:	3101      	adds	r1, #1
 80027a6:	6051      	str	r1, [r2, #4]
 80027a8:	f04f 4180 	mov.w	r1, #1073741824	; 0x40000000
 80027ac:	f8d1 1424 	ldr.w	r1, [r1, #1060]	; 0x424
 80027b0:	60d1      	str	r1, [r2, #12]
 80027b2:	2204      	movs	r2, #4
 80027b4:	f8c3 220c 	str.w	r2, [r3, #524]	; 0x20c
 80027b8:	e7e6      	b.n	8002788 <USART2_IRQHandler+0x64>
 80027ba:	701a      	strb	r2, [r3, #0]
 80027bc:	4a54      	ldr	r2, [pc, #336]	; (8002910 <USART2_IRQHandler+0x1ec>)
 80027be:	f8c3 2204 	str.w	r2, [r3, #516]	; 0x204
 80027c2:	2205      	movs	r2, #5
 80027c4:	e7f6      	b.n	80027b4 <USART2_IRQHandler+0x90>
 80027c6:	f8d3 1204 	ldr.w	r1, [r3, #516]	; 0x204
 80027ca:	b288      	uxth	r0, r1
 80027cc:	541a      	strb	r2, [r3, r0]
 80027ce:	1c4a      	adds	r2, r1, #1
 80027d0:	f5b2 7f00 	cmp.w	r2, #512	; 0x200
 80027d4:	f8c3 2204 	str.w	r2, [r3, #516]	; 0x204
 80027d8:	d904      	bls.n	80027e4 <USART2_IRQHandler+0xc0>
 80027da:	f442 4200 	orr.w	r2, r2, #32768	; 0x8000
 80027de:	f8c3 2204 	str.w	r2, [r3, #516]	; 0x204
 80027e2:	e7d7      	b.n	8002794 <USART2_IRQHandler+0x70>
 80027e4:	f04f 4280 	mov.w	r2, #1073741824	; 0x40000000
 80027e8:	4848      	ldr	r0, [pc, #288]	; (800290c <USART2_IRQHandler+0x1e8>)
 80027ea:	f8d2 1424 	ldr.w	r1, [r2, #1060]	; 0x424
 80027ee:	68c3      	ldr	r3, [r0, #12]
 80027f0:	60c1      	str	r1, [r0, #12]
 80027f2:	ebc3 0341 	rsb	r3, r3, r1, lsl #1
 80027f6:	3304      	adds	r3, #4
 80027f8:	f8c2 3434 	str.w	r3, [r2, #1076]	; 0x434
 80027fc:	e7c4      	b.n	8002788 <USART2_IRQHandler+0x64>
 80027fe:	f8b3 0204 	ldrh.w	r0, [r3, #516]	; 0x204
 8002802:	f8b3 4206 	ldrh.w	r4, [r3, #518]	; 0x206
 8002806:	541a      	strb	r2, [r3, r0]
 8002808:	1c41      	adds	r1, r0, #1
 800280a:	3817      	subs	r0, #23
 800280c:	b289      	uxth	r1, r1
 800280e:	4422      	add	r2, r4
 8002810:	28e7      	cmp	r0, #231	; 0xe7
 8002812:	f8a3 1204 	strh.w	r1, [r3, #516]	; 0x204
 8002816:	f8a3 2206 	strh.w	r2, [r3, #518]	; 0x206
 800281a:	d804      	bhi.n	8002826 <USART2_IRQHandler+0x102>
 800281c:	789a      	ldrb	r2, [r3, #2]
 800281e:	428a      	cmp	r2, r1
 8002820:	d101      	bne.n	8002826 <USART2_IRQHandler+0x102>
 8002822:	2206      	movs	r2, #6
 8002824:	e7c6      	b.n	80027b4 <USART2_IRQHandler+0x90>
 8002826:	29ff      	cmp	r1, #255	; 0xff
 8002828:	d9ae      	bls.n	8002788 <USART2_IRQHandler+0x64>
 800282a:	e7b3      	b.n	8002794 <USART2_IRQHandler+0x70>
 800282c:	f8b3 1204 	ldrh.w	r1, [r3, #516]	; 0x204
 8002830:	545a      	strb	r2, [r3, r1]
 8002832:	3101      	adds	r1, #1
 8002834:	f8a3 1204 	strh.w	r1, [r3, #516]	; 0x204
 8002838:	f8b3 1206 	ldrh.w	r1, [r3, #518]	; 0x206
 800283c:	eba1 2202 	sub.w	r2, r1, r2, lsl #8
 8002840:	f8a3 2206 	strh.w	r2, [r3, #518]	; 0x206
 8002844:	2207      	movs	r2, #7
 8002846:	e7b5      	b.n	80027b4 <USART2_IRQHandler+0x90>
 8002848:	f8b3 0206 	ldrh.w	r0, [r3, #518]	; 0x206
 800284c:	f8b3 1204 	ldrh.w	r1, [r3, #516]	; 0x204
 8002850:	545a      	strb	r2, [r3, r1]
 8002852:	1a82      	subs	r2, r0, r2
 8002854:	b292      	uxth	r2, r2
 8002856:	f8a3 2206 	strh.w	r2, [r3, #518]	; 0x206
 800285a:	b912      	cbnz	r2, 8002862 <USART2_IRQHandler+0x13e>
 800285c:	785a      	ldrb	r2, [r3, #1]
 800285e:	2a01      	cmp	r2, #1
 8002860:	d001      	beq.n	8002866 <USART2_IRQHandler+0x142>
 8002862:	2200      	movs	r2, #0
 8002864:	e7bb      	b.n	80027de <USART2_IRQHandler+0xba>
 8002866:	3101      	adds	r1, #1
 8002868:	4a2a      	ldr	r2, [pc, #168]	; (8002914 <USART2_IRQHandler+0x1f0>)
 800286a:	f441 4180 	orr.w	r1, r1, #16384	; 0x4000
 800286e:	f8a3 1204 	strh.w	r1, [r3, #516]	; 0x204
 8002872:	6851      	ldr	r1, [r2, #4]
 8002874:	4a28      	ldr	r2, [pc, #160]	; (8002918 <USART2_IRQHandler+0x1f4>)
 8002876:	6011      	str	r1, [r2, #0]
 8002878:	e78c      	b.n	8002794 <USART2_IRQHandler+0x70>
 800287a:	f8b3 1204 	ldrh.w	r1, [r3, #516]	; 0x204
 800287e:	2aaa      	cmp	r2, #170	; 0xaa
 8002880:	545a      	strb	r2, [r3, r1]
 8002882:	f101 0101 	add.w	r1, r1, #1
 8002886:	b289      	uxth	r1, r1
 8002888:	f8a3 1204 	strh.w	r1, [r3, #516]	; 0x204
 800288c:	d002      	beq.n	8002894 <USART2_IRQHandler+0x170>
 800288e:	2909      	cmp	r1, #9
 8002890:	f47f af7a 	bne.w	8002788 <USART2_IRQHandler+0x64>
 8002894:	2200      	movs	r2, #0
 8002896:	f8a3 2208 	strh.w	r2, [r3, #520]	; 0x208
 800289a:	2209      	movs	r2, #9
 800289c:	e78a      	b.n	80027b4 <USART2_IRQHandler+0x90>
 800289e:	f8b3 1204 	ldrh.w	r1, [r3, #516]	; 0x204
 80028a2:	545a      	strb	r2, [r3, r1]
 80028a4:	f8b3 2208 	ldrh.w	r2, [r3, #520]	; 0x208
 80028a8:	3101      	adds	r1, #1
 80028aa:	3201      	adds	r2, #1
 80028ac:	b292      	uxth	r2, r2
 80028ae:	2a0c      	cmp	r2, #12
 80028b0:	f8a3 1204 	strh.w	r1, [r3, #516]	; 0x204
 80028b4:	d002      	beq.n	80028bc <USART2_IRQHandler+0x198>
 80028b6:	f8a3 2208 	strh.w	r2, [r3, #520]	; 0x208
 80028ba:	e765      	b.n	8002788 <USART2_IRQHandler+0x64>
 80028bc:	2200      	movs	r2, #0
 80028be:	f8a3 2208 	strh.w	r2, [r3, #520]	; 0x208
 80028c2:	220a      	movs	r2, #10
 80028c4:	e776      	b.n	80027b4 <USART2_IRQHandler+0x90>
 80028c6:	f8b3 1204 	ldrh.w	r1, [r3, #516]	; 0x204
 80028ca:	545a      	strb	r2, [r3, r1]
 80028cc:	1c4a      	adds	r2, r1, #1
 80028ce:	f8b3 1208 	ldrh.w	r1, [r3, #520]	; 0x208
 80028d2:	b292      	uxth	r2, r2
 80028d4:	3101      	adds	r1, #1
 80028d6:	b289      	uxth	r1, r1
 80028d8:	2904      	cmp	r1, #4
 80028da:	f8a3 2204 	strh.w	r2, [r3, #516]	; 0x204
 80028de:	f8a3 1208 	strh.w	r1, [r3, #520]	; 0x208
 80028e2:	f47f af51 	bne.w	8002788 <USART2_IRQHandler+0x64>
 80028e6:	2100      	movs	r1, #0
 80028e8:	f442 4280 	orr.w	r2, r2, #16384	; 0x4000
 80028ec:	f8c3 120c 	str.w	r1, [r3, #524]	; 0x20c
 80028f0:	f8a3 2204 	strh.w	r2, [r3, #516]	; 0x204
 80028f4:	4b07      	ldr	r3, [pc, #28]	; (8002914 <USART2_IRQHandler+0x1f0>)
 80028f6:	685a      	ldr	r2, [r3, #4]
 80028f8:	4b07      	ldr	r3, [pc, #28]	; (8002918 <USART2_IRQHandler+0x1f4>)
 80028fa:	601a      	str	r2, [r3, #0]
 80028fc:	e744      	b.n	8002788 <USART2_IRQHandler+0x64>
 80028fe:	2200      	movs	r2, #0
 8002900:	f8c3 2204 	str.w	r2, [r3, #516]	; 0x204
 8002904:	e756      	b.n	80027b4 <USART2_IRQHandler+0x90>
 8002906:	bf00      	nop
 8002908:	200000f8 	strdcs	r0, [r0], -r8
 800290c:	20000714 	andcs	r0, r0, r4, lsl r7
 8002910:	00cc0001 	sbceq	r0, ip, r1
 8002914:	e0001000 	and	r1, r0, r0
 8002918:	20000728 	andcs	r0, r0, r8, lsr #14

0800291c <TIMER1_IRQHandler>:
 800291c:	b5f8      	push	{r3, r4, r5, r6, r7, lr}
 800291e:	f3bf 8f5f 	dmb	sy
 8002922:	f04f 4380 	mov.w	r3, #1073741824	; 0x40000000
 8002926:	691c      	ldr	r4, [r3, #16]
 8002928:	4e1f      	ldr	r6, [pc, #124]	; (80029a8 <TIMER1_IRQHandler+0x8c>)
 800292a:	07a7      	lsls	r7, r4, #30
 800292c:	8835      	ldrh	r5, [r6, #0]
 800292e:	d518      	bpl.n	8002962 <TIMER1_IRQHandler+0x46>
 8002930:	4f1e      	ldr	r7, [pc, #120]	; (80029ac <TIMER1_IRQHandler+0x90>)
 8002932:	f44f 6380 	mov.w	r3, #1024	; 0x400
 8002936:	2203      	movs	r2, #3
 8002938:	2110      	movs	r1, #16
 800293a:	4638      	mov	r0, r7
 800293c:	f001 ff82 	bl	8004844 <gpio_init>
 8002940:	07ed      	lsls	r5, r5, #31
 8002942:	d506      	bpl.n	8002952 <TIMER1_IRQHandler+0x36>
 8002944:	8833      	ldrh	r3, [r6, #0]
 8002946:	f443 7380 	orr.w	r3, r3, #256	; 0x100
 800294a:	8033      	strh	r3, [r6, #0]
 800294c:	f44f 6380 	mov.w	r3, #1024	; 0x400
 8002950:	617b      	str	r3, [r7, #20]
 8002952:	4621      	mov	r1, r4
 8002954:	f04f 4080 	mov.w	r0, #1073741824	; 0x40000000
 8002958:	f002 f9a5 	bl	8004ca6 <timer_interrupt_flag_clear>
 800295c:	f3bf 8f5f 	dmb	sy
 8002960:	bdf8      	pop	{r3, r4, r5, r6, r7, pc}
 8002962:	0760      	lsls	r0, r4, #29
 8002964:	d509      	bpl.n	800297a <TIMER1_IRQHandler+0x5e>
 8002966:	05e9      	lsls	r1, r5, #23
 8002968:	d5f3      	bpl.n	8002952 <TIMER1_IRQHandler+0x36>
 800296a:	f44f 6380 	mov.w	r3, #1024	; 0x400
 800296e:	2203      	movs	r2, #3
 8002970:	2118      	movs	r1, #24
 8002972:	480e      	ldr	r0, [pc, #56]	; (80029ac <TIMER1_IRQHandler+0x90>)
 8002974:	f001 ff66 	bl	8004844 <gpio_init>
 8002978:	e7eb      	b.n	8002952 <TIMER1_IRQHandler+0x36>
 800297a:	0722      	lsls	r2, r4, #28
 800297c:	d5e9      	bpl.n	8002952 <TIMER1_IRQHandler+0x36>
 800297e:	05eb      	lsls	r3, r5, #23
 8002980:	d5e7      	bpl.n	8002952 <TIMER1_IRQHandler+0x36>
 8002982:	4b0b      	ldr	r3, [pc, #44]	; (80029b0 <TIMER1_IRQHandler+0x94>)
 8002984:	2180      	movs	r1, #128	; 0x80
 8002986:	69da      	ldr	r2, [r3, #28]
 8002988:	480a      	ldr	r0, [pc, #40]	; (80029b4 <TIMER1_IRQHandler+0x98>)
 800298a:	f022 0201 	bic.w	r2, r2, #1
 800298e:	61da      	str	r2, [r3, #28]
 8002990:	4a09      	ldr	r2, [pc, #36]	; (80029b8 <TIMER1_IRQHandler+0x9c>)
 8002992:	629a      	str	r2, [r3, #40]	; 0x28
 8002994:	f8b2 2202 	ldrh.w	r2, [r2, #514]	; 0x202
 8002998:	621a      	str	r2, [r3, #32]
 800299a:	69da      	ldr	r2, [r3, #28]
 800299c:	f042 0201 	orr.w	r2, r2, #1
 80029a0:	61da      	str	r2, [r3, #28]
 80029a2:	f002 fa1f 	bl	8004de4 <usart_dma_transmit_config>
 80029a6:	e7d4      	b.n	8002952 <TIMER1_IRQHandler+0x36>
 80029a8:	20000712 	andcs	r0, r0, r2, lsl r7
 80029ac:	40011000 	andmi	r1, r1, r0
 80029b0:	40020000 	andmi	r0, r2, r0
 80029b4:	40004800 	andmi	r4, r0, r0, lsl #16
 80029b8:	20000308 	andcs	r0, r0, r8, lsl #6

080029bc <TIMER2_IRQHandler>:
 80029bc:	b508      	push	{r3, lr}
 80029be:	f3bf 8f5f 	dmb	sy
 80029c2:	f04f 4380 	mov.w	r3, #1073741824	; 0x40000000
 80029c6:	f8d3 1410 	ldr.w	r1, [r3, #1040]	; 0x410
 80029ca:	078b      	lsls	r3, r1, #30
 80029cc:	d50d      	bpl.n	80029ea <TIMER2_IRQHandler+0x2e>
 80029ce:	4b0a      	ldr	r3, [pc, #40]	; (80029f8 <TIMER2_IRQHandler+0x3c>)
 80029d0:	f8d3 220c 	ldr.w	r2, [r3, #524]	; 0x20c
 80029d4:	2a04      	cmp	r2, #4
 80029d6:	d108      	bne.n	80029ea <TIMER2_IRQHandler+0x2e>
 80029d8:	2200      	movs	r2, #0
 80029da:	f8c3 220c 	str.w	r2, [r3, #524]	; 0x20c
 80029de:	f8d3 2204 	ldr.w	r2, [r3, #516]	; 0x204
 80029e2:	f442 4200 	orr.w	r2, r2, #32768	; 0x8000
 80029e6:	f8c3 2204 	str.w	r2, [r3, #516]	; 0x204
 80029ea:	4804      	ldr	r0, [pc, #16]	; (80029fc <TIMER2_IRQHandler+0x40>)
 80029ec:	f002 f95b 	bl	8004ca6 <timer_interrupt_flag_clear>
 80029f0:	f3bf 8f5f 	dmb	sy
 80029f4:	bd08      	pop	{r3, pc}
 80029f6:	bf00      	nop
 80029f8:	200000f8 	strdcs	r0, [r0], -r8
 80029fc:	40000400 	andmi	r0, r0, r0, lsl #8

08002a00 <TIMER3_IRQHandler>:
 8002a00:	b508      	push	{r3, lr}
 8002a02:	f3bf 8f5f 	dmb	sy
 8002a06:	f04f 4380 	mov.w	r3, #1073741824	; 0x40000000
 8002a0a:	4804      	ldr	r0, [pc, #16]	; (8002a1c <TIMER3_IRQHandler+0x1c>)
 8002a0c:	f8d3 1810 	ldr.w	r1, [r3, #2064]	; 0x810
 8002a10:	f002 f949 	bl	8004ca6 <timer_interrupt_flag_clear>
 8002a14:	f3bf 8f5f 	dmb	sy
 8002a18:	bd08      	pop	{r3, pc}
 8002a1a:	bf00      	nop
 8002a1c:	40000800 	andmi	r0, r0, r0, lsl #16

08002a20 <TIMER6_IRQHandler>:
 8002a20:	b508      	push	{r3, lr}
 8002a22:	f3bf 8f5f 	dmb	sy
 8002a26:	4b07      	ldr	r3, [pc, #28]	; (8002a44 <TIMER6_IRQHandler+0x24>)
 8002a28:	4807      	ldr	r0, [pc, #28]	; (8002a48 <TIMER6_IRQHandler+0x28>)
 8002a2a:	685a      	ldr	r2, [r3, #4]
 8002a2c:	6899      	ldr	r1, [r3, #8]
 8002a2e:	1a52      	subs	r2, r2, r1
 8002a30:	601a      	str	r2, [r3, #0]
 8002a32:	685a      	ldr	r2, [r3, #4]
 8002a34:	2101      	movs	r1, #1
 8002a36:	609a      	str	r2, [r3, #8]
 8002a38:	f002 f935 	bl	8004ca6 <timer_interrupt_flag_clear>
 8002a3c:	f3bf 8f5f 	dmb	sy
 8002a40:	bd08      	pop	{r3, pc}
 8002a42:	bf00      	nop
 8002a44:	20000714 	andcs	r0, r0, r4, lsl r7
 8002a48:	40001400 	andmi	r1, r0, r0, lsl #8

08002a4c <Dmx::ClearData(unsigned int)>:
 8002a4c:	f44f 7301 	mov.w	r3, #516	; 0x204
 8002a50:	b510      	push	{r4, lr}
 8002a52:	2400      	movs	r4, #0
 8002a54:	4a08      	ldr	r2, [pc, #32]	; (8002a78 <Dmx::ClearData(unsigned int)+0x2c>)
 8002a56:	fb03 2301 	mla	r3, r3, r1, r2
 8002a5a:	f203 2002 	addw	r0, r3, #514	; 0x202
 8002a5e:	f823 4b02 	strh.w	r4, [r3], #2
 8002a62:	4283      	cmp	r3, r0
 8002a64:	d1fb      	bne.n	8002a5e <Dmx::ClearData(unsigned int)+0x12>
 8002a66:	f44f 7301 	mov.w	r3, #516	; 0x204
 8002a6a:	fb03 2201 	mla	r2, r3, r1, r2
 8002a6e:	f240 2301 	movw	r3, #513	; 0x201
 8002a72:	f8a2 3202 	strh.w	r3, [r2, #514]	; 0x202
 8002a76:	bd10      	pop	{r4, pc}
 8002a78:	20000308 	andcs	r0, r0, r8, lsl #6

08002a7c <Dmx::StartData(unsigned int, unsigned int)>:
 8002a7c:	b5f0      	push	{r4, r5, r6, r7, lr}
 8002a7e:	eb00 0082 	add.w	r0, r0, r2, lsl #2
 8002a82:	6943      	ldr	r3, [r0, #20]
 8002a84:	460c      	mov	r4, r1
 8002a86:	4615      	mov	r5, r2
 8002a88:	b085      	sub	sp, #20
 8002a8a:	2b00      	cmp	r3, #0
 8002a8c:	d16a      	bne.n	8002b64 <Dmx::StartData(unsigned int, unsigned int)+0xe8>
 8002a8e:	4e48      	ldr	r6, [pc, #288]	; (8002bb0 <Dmx::StartData(unsigned int, unsigned int)+0x134>)
 8002a90:	8834      	ldrh	r4, [r6, #0]
 8002a92:	2c00      	cmp	r4, #0
 8002a94:	d15b      	bne.n	8002b4e <Dmx::StartData(unsigned int, unsigned int)+0xd2>
 8002a96:	f44f 60e0 	mov.w	r0, #1792	; 0x700
 8002a9a:	f001 ff67 	bl	800496c <rcu_periph_clock_enable>
 8002a9e:	f04f 4080 	mov.w	r0, #1073741824	; 0x40000000
 8002aa2:	f002 f809 	bl	8004ab8 <timer_deinit>
 8002aa6:	236b      	movs	r3, #107	; 0x6b
 8002aa8:	9300      	str	r3, [sp, #0]
 8002aaa:	4b42      	ldr	r3, [pc, #264]	; (8002bb4 <Dmx::StartData(unsigned int, unsigned int)+0x138>)
 8002aac:	4669      	mov	r1, sp
 8002aae:	681b      	ldr	r3, [r3, #0]
 8002ab0:	f04f 4080 	mov.w	r0, #1073741824	; 0x40000000
 8002ab4:	9302      	str	r3, [sp, #8]
 8002ab6:	f8ad 4004 	strh.w	r4, [sp, #4]
 8002aba:	f8ad 400c 	strh.w	r4, [sp, #12]
 8002abe:	f88d 400e 	strb.w	r4, [sp, #14]
 8002ac2:	f002 f85b 	bl	8004b7c <timer_init>
 8002ac6:	f04f 31ff 	mov.w	r1, #4294967295	; 0xffffffff
 8002aca:	f04f 4080 	mov.w	r0, #1073741824	; 0x40000000
 8002ace:	f002 f8ed 	bl	8004cac <timer_flag_clear>
 8002ad2:	f04f 31ff 	mov.w	r1, #4294967295	; 0xffffffff
 8002ad6:	f04f 4080 	mov.w	r0, #1073741824	; 0x40000000
 8002ada:	f002 f8e4 	bl	8004ca6 <timer_interrupt_flag_clear>
 8002ade:	2210      	movs	r2, #16
 8002ae0:	4621      	mov	r1, r4
 8002ae2:	f04f 4080 	mov.w	r0, #1073741824	; 0x40000000
 8002ae6:	f002 f8a6 	bl	8004c36 <timer_channel_output_mode_config>
 8002aea:	2210      	movs	r2, #16
 8002aec:	2101      	movs	r1, #1
 8002aee:	f04f 4080 	mov.w	r0, #1073741824	; 0x40000000
 8002af2:	f002 f8a0 	bl	8004c36 <timer_channel_output_mode_config>
 8002af6:	4f30      	ldr	r7, [pc, #192]	; (8002bb8 <Dmx::StartData(unsigned int, unsigned int)+0x13c>)
 8002af8:	2210      	movs	r2, #16
 8002afa:	2102      	movs	r1, #2
 8002afc:	f04f 4080 	mov.w	r0, #1073741824	; 0x40000000
 8002b00:	f002 f899 	bl	8004c36 <timer_channel_output_mode_config>
 8002b04:	4622      	mov	r2, r4
 8002b06:	4621      	mov	r1, r4
 8002b08:	f04f 4080 	mov.w	r0, #1073741824	; 0x40000000
 8002b0c:	f002 f8b9 	bl	8004c82 <timer_channel_output_pulse_value_config>
 8002b10:	2101      	movs	r1, #1
 8002b12:	f04f 4080 	mov.w	r0, #1073741824	; 0x40000000
 8002b16:	883a      	ldrh	r2, [r7, #0]
 8002b18:	f002 f8b3 	bl	8004c82 <timer_channel_output_pulse_value_config>
 8002b1c:	4b27      	ldr	r3, [pc, #156]	; (8002bbc <Dmx::StartData(unsigned int, unsigned int)+0x140>)
 8002b1e:	683a      	ldr	r2, [r7, #0]
 8002b20:	681b      	ldr	r3, [r3, #0]
 8002b22:	2102      	movs	r1, #2
 8002b24:	441a      	add	r2, r3
 8002b26:	b292      	uxth	r2, r2
 8002b28:	f04f 4080 	mov.w	r0, #1073741824	; 0x40000000
 8002b2c:	f002 f8a9 	bl	8004c82 <timer_channel_output_pulse_value_config>
 8002b30:	f04f 4080 	mov.w	r0, #1073741824	; 0x40000000
 8002b34:	210e      	movs	r1, #14
 8002b36:	f002 f8b2 	bl	8004c9e <timer_interrupt_enable>
 8002b3a:	f04f 5280 	mov.w	r2, #268435456	; 0x10000000
 8002b3e:	4b20      	ldr	r3, [pc, #128]	; (8002bc0 <Dmx::StartData(unsigned int, unsigned int)+0x144>)
 8002b40:	f04f 4080 	mov.w	r0, #1073741824	; 0x40000000
 8002b44:	f883 431c 	strb.w	r4, [r3, #796]	; 0x31c
 8002b48:	601a      	str	r2, [r3, #0]
 8002b4a:	f002 f86f 	bl	8004c2c <timer_enable>
 8002b4e:	2201      	movs	r2, #1
 8002b50:	8831      	ldrh	r1, [r6, #0]
 8002b52:	fa02 f305 	lsl.w	r3, r2, r5
 8002b56:	430b      	orrs	r3, r1
 8002b58:	8033      	strh	r3, [r6, #0]
 8002b5a:	4b1a      	ldr	r3, [pc, #104]	; (8002bc4 <Dmx::StartData(unsigned int, unsigned int)+0x148>)
 8002b5c:	f843 2025 	str.w	r2, [r3, r5, lsl #2]
 8002b60:	b005      	add	sp, #20
 8002b62:	bdf0      	pop	{r4, r5, r6, r7, pc}
 8002b64:	f44f 7204 	mov.w	r2, #528	; 0x210
 8002b68:	4b17      	ldr	r3, [pc, #92]	; (8002bc8 <Dmx::StartData(unsigned int, unsigned int)+0x14c>)
 8002b6a:	fb02 3305 	mla	r3, r2, r5, r3
 8002b6e:	2200      	movs	r2, #0
 8002b70:	f8c3 220c 	str.w	r2, [r3, #524]	; 0x20c
 8002b74:	2107      	movs	r1, #7
 8002b76:	4620      	mov	r0, r4
 8002b78:	f002 f93a 	bl	8004df0 <usart_flag_get>
 8002b7c:	2800      	cmp	r0, #0
 8002b7e:	d0f9      	beq.n	8002b74 <Dmx::StartData(unsigned int, unsigned int)+0xf8>
 8002b80:	f04f 31ff 	mov.w	r1, #4294967295	; 0xffffffff
 8002b84:	4620      	mov	r0, r4
 8002b86:	f002 f954 	bl	8004e32 <usart_interrupt_flag_clear>
 8002b8a:	f240 3105 	movw	r1, #773	; 0x305
 8002b8e:	4620      	mov	r0, r4
 8002b90:	f002 f936 	bl	8004e00 <usart_interrupt_enable>
 8002b94:	2202      	movs	r2, #2
 8002b96:	4b0b      	ldr	r3, [pc, #44]	; (8002bc4 <Dmx::StartData(unsigned int, unsigned int)+0x148>)
 8002b98:	f843 2025 	str.w	r2, [r3, r5, lsl #2]
 8002b9c:	f04f 4280 	mov.w	r2, #1073741824	; 0x40000000
 8002ba0:	f8d2 340c 	ldr.w	r3, [r2, #1036]	; 0x40c
 8002ba4:	f043 0302 	orr.w	r3, r3, #2
 8002ba8:	f8c2 340c 	str.w	r3, [r2, #1036]	; 0x40c
 8002bac:	e7d8      	b.n	8002b60 <Dmx::StartData(unsigned int, unsigned int)+0xe4>
 8002bae:	bf00      	nop
 8002bb0:	20000712 	andcs	r0, r0, r2, lsl r7
 8002bb4:	20000008 	andcs	r0, r0, r8
 8002bb8:	20000010 	andcs	r0, r0, r0, lsl r0
 8002bbc:	2000000c 	andcs	r0, r0, ip
 8002bc0:	e000e100 	and	lr, r0, r0, lsl #2
 8002bc4:	2000050c 	andcs	r0, r0, ip, lsl #10
 8002bc8:	200000f8 	strdcs	r0, [r0], -r8

08002bcc <Dmx::StopData(unsigned int, unsigned int)>:
 8002bcc:	b538      	push	{r3, r4, r5, lr}
 8002bce:	4d16      	ldr	r5, [pc, #88]	; (8002c28 <Dmx::StopData(unsigned int, unsigned int)+0x5c>)
 8002bd0:	4614      	mov	r4, r2
 8002bd2:	f855 2022 	ldr.w	r2, [r5, r2, lsl #2]
 8002bd6:	4603      	mov	r3, r0
 8002bd8:	4608      	mov	r0, r1
 8002bda:	b17a      	cbz	r2, 8002bfc <Dmx::StopData(unsigned int, unsigned int)+0x30>
 8002bdc:	695b      	ldr	r3, [r3, #20]
 8002bde:	b973      	cbnz	r3, 8002bfe <Dmx::StopData(unsigned int, unsigned int)+0x32>
 8002be0:	2201      	movs	r2, #1
 8002be2:	4912      	ldr	r1, [pc, #72]	; (8002c2c <Dmx::StopData(unsigned int, unsigned int)+0x60>)
 8002be4:	f104 0308 	add.w	r3, r4, #8
 8002be8:	fa02 f303 	lsl.w	r3, r2, r3
 8002bec:	40a2      	lsls	r2, r4
 8002bee:	4313      	orrs	r3, r2
 8002bf0:	880a      	ldrh	r2, [r1, #0]
 8002bf2:	4013      	ands	r3, r2
 8002bf4:	800b      	strh	r3, [r1, #0]
 8002bf6:	2300      	movs	r3, #0
 8002bf8:	f845 3024 	str.w	r3, [r5, r4, lsl #2]
 8002bfc:	bd38      	pop	{r3, r4, r5, pc}
 8002bfe:	f240 3105 	movw	r1, #773	; 0x305
 8002c02:	f002 f909 	bl	8004e18 <usart_interrupt_disable>
 8002c06:	f44f 7204 	mov.w	r2, #528	; 0x210
 8002c0a:	4b09      	ldr	r3, [pc, #36]	; (8002c30 <Dmx::StopData(unsigned int, unsigned int)+0x64>)
 8002c0c:	fb02 3304 	mla	r3, r2, r4, r3
 8002c10:	2200      	movs	r2, #0
 8002c12:	f8c3 220c 	str.w	r2, [r3, #524]	; 0x20c
 8002c16:	f04f 4280 	mov.w	r2, #1073741824	; 0x40000000
 8002c1a:	f8d2 340c 	ldr.w	r3, [r2, #1036]	; 0x40c
 8002c1e:	f023 0302 	bic.w	r3, r3, #2
 8002c22:	f8c2 340c 	str.w	r3, [r2, #1036]	; 0x40c
 8002c26:	e7e6      	b.n	8002bf6 <Dmx::StopData(unsigned int, unsigned int)+0x2a>
 8002c28:	2000050c 	andcs	r0, r0, ip, lsl #10
 8002c2c:	20000712 	andcs	r0, r0, r2, lsl r7
 8002c30:	200000f8 	strdcs	r0, [r0], -r8

08002c34 <Dmx::SetPortDirection(unsigned int, dmx::PortDirection, bool)>:
 8002c34:	b570      	push	{r4, r5, r6, lr}
 8002c36:	461d      	mov	r5, r3
 8002c38:	6943      	ldr	r3, [r0, #20]
 8002c3a:	4606      	mov	r6, r0
 8002c3c:	4293      	cmp	r3, r2
 8002c3e:	4614      	mov	r4, r2
 8002c40:	d014      	beq.n	8002c6c <Dmx::SetPortDirection(unsigned int, dmx::PortDirection, bool)+0x38>
 8002c42:	6142      	str	r2, [r0, #20]
 8002c44:	4910      	ldr	r1, [pc, #64]	; (8002c88 <Dmx::SetPortDirection(unsigned int, dmx::PortDirection, bool)+0x54>)
 8002c46:	2200      	movs	r2, #0
 8002c48:	f7ff ffc0 	bl	8002bcc <Dmx::StopData(unsigned int, unsigned int)>
 8002c4c:	b934      	cbnz	r4, 8002c5c <Dmx::SetPortDirection(unsigned int, dmx::PortDirection, bool)+0x28>
 8002c4e:	f44f 6280 	mov.w	r2, #1024	; 0x400
 8002c52:	4b0e      	ldr	r3, [pc, #56]	; (8002c8c <Dmx::SetPortDirection(unsigned int, dmx::PortDirection, bool)+0x58>)
 8002c54:	f8c3 2c10 	str.w	r2, [r3, #3088]	; 0xc10
 8002c58:	b94d      	cbnz	r5, 8002c6e <Dmx::SetPortDirection(unsigned int, dmx::PortDirection, bool)+0x3a>
 8002c5a:	bd70      	pop	{r4, r5, r6, pc}
 8002c5c:	2c01      	cmp	r4, #1
 8002c5e:	d1fb      	bne.n	8002c58 <Dmx::SetPortDirection(unsigned int, dmx::PortDirection, bool)+0x24>
 8002c60:	f44f 6280 	mov.w	r2, #1024	; 0x400
 8002c64:	4b09      	ldr	r3, [pc, #36]	; (8002c8c <Dmx::SetPortDirection(unsigned int, dmx::PortDirection, bool)+0x58>)
 8002c66:	f8c3 2c14 	str.w	r2, [r3, #3092]	; 0xc14
 8002c6a:	e7f5      	b.n	8002c58 <Dmx::SetPortDirection(unsigned int, dmx::PortDirection, bool)+0x24>
 8002c6c:	b135      	cbz	r5, 8002c7c <Dmx::SetPortDirection(unsigned int, dmx::PortDirection, bool)+0x48>
 8002c6e:	4630      	mov	r0, r6
 8002c70:	e8bd 4070 	ldmia.w	sp!, {r4, r5, r6, lr}
 8002c74:	2200      	movs	r2, #0
 8002c76:	4904      	ldr	r1, [pc, #16]	; (8002c88 <Dmx::SetPortDirection(unsigned int, dmx::PortDirection, bool)+0x54>)
 8002c78:	f7ff bf00 	b.w	8002a7c <Dmx::StartData(unsigned int, unsigned int)>
 8002c7c:	462a      	mov	r2, r5
 8002c7e:	e8bd 4070 	ldmia.w	sp!, {r4, r5, r6, lr}
 8002c82:	4901      	ldr	r1, [pc, #4]	; (8002c88 <Dmx::SetPortDirection(unsigned int, dmx::PortDirection, bool)+0x54>)
 8002c84:	f7ff bfa2 	b.w	8002bcc <Dmx::StopData(unsigned int, unsigned int)>
 8002c88:	40004800 	andmi	r4, r0, r0, lsl #16
 8002c8c:	40010000 	andmi	r0, r1, r0

08002c90 <Dmx::Dmx()>:
 8002c90:	225c      	movs	r2, #92	; 0x5c
 8002c92:	230c      	movs	r3, #12
 8002c94:	e92d 43f0 	stmdb	sp!, {r4, r5, r6, r7, r8, r9, lr}
 8002c98:	e9c0 2300 	strd	r2, r3, [r0]
 8002c9c:	f246 13a8 	movw	r3, #25000	; 0x61a8
 8002ca0:	e9c0 3302 	strd	r3, r3, [r0, #8]
 8002ca4:	f44f 7300 	mov.w	r3, #512	; 0x200
 8002ca8:	2400      	movs	r4, #0
 8002caa:	4605      	mov	r5, r0
 8002cac:	8203      	strh	r3, [r0, #16]
 8002cae:	4b5f      	ldr	r3, [pc, #380]	; (8002e2c <Dmx::Dmx()+0x19c>)
 8002cb0:	b08b      	sub	sp, #44	; 0x2c
 8002cb2:	6018      	str	r0, [r3, #0]
 8002cb4:	4b5e      	ldr	r3, [pc, #376]	; (8002e30 <Dmx::Dmx()+0x1a0>)
 8002cb6:	2203      	movs	r2, #3
 8002cb8:	801c      	strh	r4, [r3, #0]
 8002cba:	2110      	movs	r1, #16
 8002cbc:	f44f 6380 	mov.w	r3, #1024	; 0x400
 8002cc0:	485c      	ldr	r0, [pc, #368]	; (8002e34 <Dmx::Dmx()+0x1a4>)
 8002cc2:	f001 fdbf 	bl	8004844 <gpio_init>
 8002cc6:	4621      	mov	r1, r4
 8002cc8:	4628      	mov	r0, r5
 8002cca:	f7ff febf 	bl	8002a4c <Dmx::ClearData(unsigned int)>
 8002cce:	4b5a      	ldr	r3, [pc, #360]	; (8002e38 <Dmx::Dmx()+0x1a8>)
 8002cd0:	2201      	movs	r2, #1
 8002cd2:	4628      	mov	r0, r5
 8002cd4:	601c      	str	r4, [r3, #0]
 8002cd6:	4623      	mov	r3, r4
 8002cd8:	f7ff ffac 	bl	8002c34 <Dmx::SetPortDirection(unsigned int, dmx::PortDirection, bool)>
 8002cdc:	4b57      	ldr	r3, [pc, #348]	; (8002e3c <Dmx::Dmx()+0x1ac>)
 8002cde:	4e58      	ldr	r6, [pc, #352]	; (8002e40 <Dmx::Dmx()+0x1b0>)
 8002ce0:	f8c3 420c 	str.w	r4, [r3, #524]	; 0x20c
 8002ce4:	f44f 60a0 	mov.w	r0, #1280	; 0x500
 8002ce8:	f001 fe40 	bl	800496c <rcu_periph_clock_enable>
 8002cec:	f240 5001 	movw	r0, #1281	; 0x501
 8002cf0:	f001 fe3c 	bl	800496c <rcu_periph_clock_enable>
 8002cf4:	4630      	mov	r0, r6
 8002cf6:	2101      	movs	r1, #1
 8002cf8:	f001 fca0 	bl	800463c <dma_deinit>
 8002cfc:	4b51      	ldr	r3, [pc, #324]	; (8002e44 <Dmx::Dmx()+0x1b4>)
 8002cfe:	2701      	movs	r7, #1
 8002d00:	e9cd 3405 	strd	r3, r4, [sp, #20]
 8002d04:	f8b3 3202 	ldrh.w	r3, [r3, #514]	; 0x202
 8002d08:	aa03      	add	r2, sp, #12
 8002d0a:	9307      	str	r3, [sp, #28]
 8002d0c:	4b4e      	ldr	r3, [pc, #312]	; (8002e48 <Dmx::Dmx()+0x1b8>)
 8002d0e:	4639      	mov	r1, r7
 8002d10:	e9cd 3403 	strd	r3, r4, [sp, #12]
 8002d14:	f44f 5300 	mov.w	r3, #8192	; 0x2000
 8002d18:	9308      	str	r3, [sp, #32]
 8002d1a:	f44f 7380 	mov.w	r3, #256	; 0x100
 8002d1e:	4630      	mov	r0, r6
 8002d20:	f8ad 3024 	strh.w	r3, [sp, #36]	; 0x24
 8002d24:	f88d 7026 	strb.w	r7, [sp, #38]	; 0x26
 8002d28:	f001 fca4 	bl	8004674 <dma_init>
 8002d2c:	4639      	mov	r1, r7
 8002d2e:	4630      	mov	r0, r6
 8002d30:	f001 fcda 	bl	80046e8 <dma_circulation_disable>
 8002d34:	4639      	mov	r1, r7
 8002d36:	4630      	mov	r0, r6
 8002d38:	f001 fce6 	bl	8004708 <dma_memory_to_memory_disable>
 8002d3c:	f5a6 36fe 	sub.w	r6, r6, #130048	; 0x1fc00
 8002d40:	f240 7001 	movw	r0, #1793	; 0x701
 8002d44:	f001 fe12 	bl	800496c <rcu_periph_clock_enable>
 8002d48:	4630      	mov	r0, r6
 8002d4a:	f001 feb5 	bl	8004ab8 <timer_deinit>
 8002d4e:	f04f 39ff 	mov.w	r9, #4294967295	; 0xffffffff
 8002d52:	236b      	movs	r3, #107	; 0x6b
 8002d54:	4630      	mov	r0, r6
 8002d56:	a903      	add	r1, sp, #12
 8002d58:	9303      	str	r3, [sp, #12]
 8002d5a:	f8ad 4010 	strh.w	r4, [sp, #16]
 8002d5e:	f8cd 9014 	str.w	r9, [sp, #20]
 8002d62:	f8ad 4018 	strh.w	r4, [sp, #24]
 8002d66:	f88d 401a 	strb.w	r4, [sp, #26]
 8002d6a:	f001 ff07 	bl	8004b7c <timer_init>
 8002d6e:	4649      	mov	r1, r9
 8002d70:	4630      	mov	r0, r6
 8002d72:	f001 ff9b 	bl	8004cac <timer_flag_clear>
 8002d76:	4649      	mov	r1, r9
 8002d78:	4630      	mov	r0, r6
 8002d7a:	f001 ff94 	bl	8004ca6 <timer_interrupt_flag_clear>
 8002d7e:	4621      	mov	r1, r4
 8002d80:	4630      	mov	r0, r6
 8002d82:	2210      	movs	r2, #16
 8002d84:	f001 ff57 	bl	8004c36 <timer_channel_output_mode_config>
 8002d88:	4639      	mov	r1, r7
 8002d8a:	4630      	mov	r0, r6
 8002d8c:	2210      	movs	r2, #16
 8002d8e:	f001 ff52 	bl	8004c36 <timer_channel_output_mode_config>
 8002d92:	4630      	mov	r0, r6
 8002d94:	2210      	movs	r2, #16
 8002d96:	2102      	movs	r1, #2
 8002d98:	f001 ff4d 	bl	8004c36 <timer_channel_output_mode_config>
 8002d9c:	2210      	movs	r2, #16
 8002d9e:	2103      	movs	r1, #3
 8002da0:	4630      	mov	r0, r6
 8002da2:	f001 ff48 	bl	8004c36 <timer_channel_output_mode_config>
 8002da6:	f04f 5300 	mov.w	r3, #536870912	; 0x20000000
 8002daa:	f8df 80a0 	ldr.w	r8, [pc, #160]	; 8002e4c <Dmx::Dmx()+0x1bc>
 8002dae:	4630      	mov	r0, r6
 8002db0:	f888 431d 	strb.w	r4, [r8, #797]	; 0x31d
 8002db4:	f8c8 3000 	str.w	r3, [r8]
 8002db8:	f506 5680 	add.w	r6, r6, #4096	; 0x1000
 8002dbc:	f001 ff36 	bl	8004c2c <timer_enable>
 8002dc0:	f240 7005 	movw	r0, #1797	; 0x705
 8002dc4:	f001 fdd2 	bl	800496c <rcu_periph_clock_enable>
 8002dc8:	4630      	mov	r0, r6
 8002dca:	f001 fe75 	bl	8004ab8 <timer_deinit>
 8002dce:	f642 232f 	movw	r3, #10799	; 0x2a2f
 8002dd2:	f8ad 300c 	strh.w	r3, [sp, #12]
 8002dd6:	f242 7310 	movw	r3, #10000	; 0x2710
 8002dda:	4630      	mov	r0, r6
 8002ddc:	a903      	add	r1, sp, #12
 8002dde:	9305      	str	r3, [sp, #20]
 8002de0:	f001 fecc 	bl	8004b7c <timer_init>
 8002de4:	4649      	mov	r1, r9
 8002de6:	4630      	mov	r0, r6
 8002de8:	f001 ff60 	bl	8004cac <timer_flag_clear>
 8002dec:	4649      	mov	r1, r9
 8002dee:	4630      	mov	r0, r6
 8002df0:	f001 ff59 	bl	8004ca6 <timer_interrupt_flag_clear>
 8002df4:	4639      	mov	r1, r7
 8002df6:	4630      	mov	r0, r6
 8002df8:	f001 ff51 	bl	8004c9e <timer_interrupt_enable>
 8002dfc:	f44f 0300 	mov.w	r3, #8388608	; 0x800000
 8002e00:	4630      	mov	r0, r6
 8002e02:	f888 4337 	strb.w	r4, [r8, #823]	; 0x337
 8002e06:	f8c8 3004 	str.w	r3, [r8, #4]
 8002e0a:	f001 ff0f 	bl	8004c2c <timer_enable>
 8002e0e:	2302      	movs	r3, #2
 8002e10:	2208      	movs	r2, #8
 8002e12:	9300      	str	r3, [sp, #0]
 8002e14:	490e      	ldr	r1, [pc, #56]	; (8002e50 <Dmx::Dmx()+0x1c0>)
 8002e16:	4623      	mov	r3, r4
 8002e18:	480e      	ldr	r0, [pc, #56]	; (8002e54 <Dmx::Dmx()+0x1c4>)
 8002e1a:	f002 f9b3 	bl	8005184 <gd32_uart_begin>
 8002e1e:	2380      	movs	r3, #128	; 0x80
 8002e20:	4628      	mov	r0, r5
 8002e22:	f8c8 3004 	str.w	r3, [r8, #4]
 8002e26:	b00b      	add	sp, #44	; 0x2c
 8002e28:	e8bd 83f0 	ldmia.w	sp!, {r4, r5, r6, r7, r8, r9, pc}
 8002e2c:	20000724 	andcs	r0, r0, r4, lsr #14
 8002e30:	20000712 	andcs	r0, r0, r2, lsl r7
 8002e34:	40010c00 	andmi	r0, r1, r0, lsl #24
 8002e38:	2000050c 	andcs	r0, r0, ip, lsl #10
 8002e3c:	200000f8 	strdcs	r0, [r0], -r8
 8002e40:	40020000 	andmi	r0, r2, r0
 8002e44:	20000308 	andcs	r0, r0, r8, lsl #6
 8002e48:	40004804 	andmi	r4, r0, r4, lsl #16
 8002e4c:	e000e100 	and	lr, r0, r0, lsl #2
 8002e50:	0003d090 	muleq	r3, r0, r0
 8002e54:	40004800 	andmi	r4, r0, r0, lsl #16

08002e58 <Dmx::SetDmxPeriodTime(unsigned int)>:
 8002e58:	4b13      	ldr	r3, [pc, #76]	; (8002ea8 <Dmx::SetDmxPeriodTime(unsigned int)+0x50>)
 8002e5a:	b570      	push	{r4, r5, r6, lr}
 8002e5c:	60c1      	str	r1, [r0, #12]
 8002e5e:	f8b3 0202 	ldrh.w	r0, [r3, #514]	; 0x202
 8002e62:	232c      	movs	r3, #44	; 0x2c
 8002e64:	f64f 76d3 	movw	r6, #65491	; 0xffd3
 8002e68:	4d10      	ldr	r5, [pc, #64]	; (8002eac <Dmx::SetDmxPeriodTime(unsigned int)+0x54>)
 8002e6a:	4c11      	ldr	r4, [pc, #68]	; (8002eb0 <Dmx::SetDmxPeriodTime(unsigned int)+0x58>)
 8002e6c:	4358      	muls	r0, r3
 8002e6e:	682a      	ldr	r2, [r5, #0]
 8002e70:	6823      	ldr	r3, [r4, #0]
 8002e72:	4413      	add	r3, r2
 8002e74:	4403      	add	r3, r0
 8002e76:	42b3      	cmp	r3, r6
 8002e78:	d908      	bls.n	8002e8c <Dmx::SetDmxPeriodTime(unsigned int)+0x34>
 8002e7a:	2ab0      	cmp	r2, #176	; 0xb0
 8002e7c:	4613      	mov	r3, r2
 8002e7e:	bf28      	it	cs
 8002e80:	23b0      	movcs	r3, #176	; 0xb0
 8002e82:	220c      	movs	r2, #12
 8002e84:	602b      	str	r3, [r5, #0]
 8002e86:	4413      	add	r3, r2
 8002e88:	6022      	str	r2, [r4, #0]
 8002e8a:	4403      	add	r3, r0
 8002e8c:	4a09      	ldr	r2, [pc, #36]	; (8002eb4 <Dmx::SetDmxPeriodTime(unsigned int)+0x5c>)
 8002e8e:	b109      	cbz	r1, 8002e94 <Dmx::SetDmxPeriodTime(unsigned int)+0x3c>
 8002e90:	428b      	cmp	r3, r1
 8002e92:	d907      	bls.n	8002ea4 <Dmx::SetDmxPeriodTime(unsigned int)+0x4c>
 8002e94:	f240 41b4 	movw	r1, #1204	; 0x4b4
 8002e98:	332c      	adds	r3, #44	; 0x2c
 8002e9a:	428b      	cmp	r3, r1
 8002e9c:	bf2c      	ite	cs
 8002e9e:	6013      	strcs	r3, [r2, #0]
 8002ea0:	6011      	strcc	r1, [r2, #0]
 8002ea2:	e000      	b.n	8002ea6 <Dmx::SetDmxPeriodTime(unsigned int)+0x4e>
 8002ea4:	6011      	str	r1, [r2, #0]
 8002ea6:	bd70      	pop	{r4, r5, r6, pc}
 8002ea8:	20000308 	andcs	r0, r0, r8, lsl #6
 8002eac:	20000010 	andcs	r0, r0, r0, lsl r0
 8002eb0:	2000000c 	andcs	r0, r0, ip
 8002eb4:	20000008 	andcs	r0, r0, r8

08002eb8 <Dmx::SetDmxBreakTime(unsigned int)>:
 8002eb8:	295c      	cmp	r1, #92	; 0x5c
 8002eba:	bf38      	it	cc
 8002ebc:	215c      	movcc	r1, #92	; 0x5c
 8002ebe:	4b02      	ldr	r3, [pc, #8]	; (8002ec8 <Dmx::SetDmxBreakTime(unsigned int)+0x10>)
 8002ec0:	6019      	str	r1, [r3, #0]
 8002ec2:	68c1      	ldr	r1, [r0, #12]
 8002ec4:	f7ff bfc8 	b.w	8002e58 <Dmx::SetDmxPeriodTime(unsigned int)>
 8002ec8:	20000010 	andcs	r0, r0, r0, lsl r0

08002ecc <Dmx::SetDmxMabTime(unsigned int)>:
 8002ecc:	290c      	cmp	r1, #12
 8002ece:	bf38      	it	cc
 8002ed0:	210c      	movcc	r1, #12
 8002ed2:	4b02      	ldr	r3, [pc, #8]	; (8002edc <Dmx::SetDmxMabTime(unsigned int)+0x10>)
 8002ed4:	6019      	str	r1, [r3, #0]
 8002ed6:	68c1      	ldr	r1, [r0, #12]
 8002ed8:	f7ff bfbe 	b.w	8002e58 <Dmx::SetDmxPeriodTime(unsigned int)>
 8002edc:	2000000c 	andcs	r0, r0, ip

08002ee0 <Dmx::SetSendData(unsigned int, unsigned char const*, unsigned int)>:
 8002ee0:	b4f0      	push	{r4, r5, r6, r7}
 8002ee2:	8a04      	ldrh	r4, [r0, #16]
 8002ee4:	4d11      	ldr	r5, [pc, #68]	; (8002f2c <Dmx::SetSendData(unsigned int, unsigned char const*, unsigned int)+0x4c>)
 8002ee6:	42a3      	cmp	r3, r4
 8002ee8:	bf28      	it	cs
 8002eea:	4623      	movcs	r3, r4
 8002eec:	f44f 7401 	mov.w	r4, #516	; 0x204
 8002ef0:	434c      	muls	r4, r1
 8002ef2:	1c5f      	adds	r7, r3, #1
 8002ef4:	192e      	adds	r6, r5, r4
 8002ef6:	f892 f000 	pld	[r2]
 8002efa:	3c01      	subs	r4, #1
 8002efc:	f8a6 7202 	strh.w	r7, [r6, #514]	; 0x202
 8002f00:	442c      	add	r4, r5
 8002f02:	18d6      	adds	r6, r2, r3
 8002f04:	4296      	cmp	r6, r2
 8002f06:	d004      	beq.n	8002f12 <Dmx::SetSendData(unsigned int, unsigned char const*, unsigned int)+0x32>
 8002f08:	f812 5b01 	ldrb.w	r5, [r2], #1
 8002f0c:	f804 5f01 	strb.w	r5, [r4, #1]!
 8002f10:	e7f8      	b.n	8002f04 <Dmx::SetSendData(unsigned int, unsigned char const*, unsigned int)+0x24>
 8002f12:	eb00 0181 	add.w	r1, r0, r1, lsl #2
 8002f16:	698a      	ldr	r2, [r1, #24]
 8002f18:	429a      	cmp	r2, r3
 8002f1a:	d004      	beq.n	8002f26 <Dmx::SetSendData(unsigned int, unsigned char const*, unsigned int)+0x46>
 8002f1c:	bcf0      	pop	{r4, r5, r6, r7}
 8002f1e:	618b      	str	r3, [r1, #24]
 8002f20:	68c1      	ldr	r1, [r0, #12]
 8002f22:	f7ff bf99 	b.w	8002e58 <Dmx::SetDmxPeriodTime(unsigned int)>
 8002f26:	bcf0      	pop	{r4, r5, r6, r7}
 8002f28:	4770      	bx	lr
 8002f2a:	bf00      	nop
 8002f2c:	20000308 	andcs	r0, r0, r8, lsl #6

08002f30 <Dmx::GetDmxAvailable(unsigned int)>:
 8002f30:	f44f 7304 	mov.w	r3, #528	; 0x210
 8002f34:	4807      	ldr	r0, [pc, #28]	; (8002f54 <Dmx::GetDmxAvailable(unsigned int)+0x24>)
 8002f36:	fb03 0001 	mla	r0, r3, r1, r0
 8002f3a:	f8d0 3204 	ldr.w	r3, [r0, #516]	; 0x204
 8002f3e:	f413 4100 	ands.w	r1, r3, #32768	; 0x8000
 8002f42:	bf1b      	ittet	ne
 8002f44:	f423 4300 	bicne.w	r3, r3, #32768	; 0x8000
 8002f48:	f103 33ff 	addne.w	r3, r3, #4294967295	; 0xffffffff
 8002f4c:	4608      	moveq	r0, r1
 8002f4e:	f8c0 3204 	strne.w	r3, [r0, #516]	; 0x204
 8002f52:	4770      	bx	lr
 8002f54:	200000f8 	strdcs	r0, [r0], -r8

08002f58 <Dmx::GetDmxChanged(unsigned int)>:
 8002f58:	b570      	push	{r4, r5, r6, lr}
 8002f5a:	460a      	mov	r2, r1
 8002f5c:	f7ff ffe8 	bl	8002f30 <Dmx::GetDmxAvailable(unsigned int)>
 8002f60:	b1a0      	cbz	r0, 8002f8c <Dmx::GetDmxChanged(unsigned int)+0x34>
 8002f62:	f240 2102 	movw	r1, #514	; 0x202
 8002f66:	4b0a      	ldr	r3, [pc, #40]	; (8002f90 <Dmx::GetDmxChanged(unsigned int)+0x38>)
 8002f68:	1e84      	subs	r4, r0, #2
 8002f6a:	fb01 3102 	mla	r1, r1, r2, r3
 8002f6e:	2200      	movs	r2, #0
 8002f70:	1e8b      	subs	r3, r1, #2
 8002f72:	f501 7100 	add.w	r1, r1, #512	; 0x200
 8002f76:	f833 6f02 	ldrh.w	r6, [r3, #2]!
 8002f7a:	f834 5f02 	ldrh.w	r5, [r4, #2]!
 8002f7e:	42ae      	cmp	r6, r5
 8002f80:	bf1c      	itt	ne
 8002f82:	2201      	movne	r2, #1
 8002f84:	801d      	strhne	r5, [r3, #0]
 8002f86:	428b      	cmp	r3, r1
 8002f88:	d1f5      	bne.n	8002f76 <Dmx::GetDmxChanged(unsigned int)+0x1e>
 8002f8a:	b902      	cbnz	r2, 8002f8e <Dmx::GetDmxChanged(unsigned int)+0x36>
 8002f8c:	2000      	movs	r0, #0
 8002f8e:	bd70      	pop	{r4, r5, r6, pc}
 8002f90:	20000510 	andcs	r0, r0, r0, lsl r5

08002f94 <Dmx::RdmSendRaw(unsigned int, unsigned char const*, unsigned int)>:
 8002f94:	b5f8      	push	{r3, r4, r5, r6, r7, lr}
 8002f96:	4614      	mov	r4, r2
 8002f98:	461d      	mov	r5, r3
 8002f9a:	4e1f      	ldr	r6, [pc, #124]	; (8003018 <Dmx::RdmSendRaw(unsigned int, unsigned char const*, unsigned int)+0x84>)
 8002f9c:	2106      	movs	r1, #6
 8002f9e:	4630      	mov	r0, r6
 8002fa0:	f001 ff26 	bl	8004df0 <usart_flag_get>
 8002fa4:	2800      	cmp	r0, #0
 8002fa6:	d0f9      	beq.n	8002f9c <Dmx::RdmSendRaw(unsigned int, unsigned char const*, unsigned int)+0x8>
 8002fa8:	f44f 6780 	mov.w	r7, #1024	; 0x400
 8002fac:	4e1b      	ldr	r6, [pc, #108]	; (800301c <Dmx::RdmSendRaw(unsigned int, unsigned char const*, unsigned int)+0x88>)
 8002fae:	f44f 6380 	mov.w	r3, #1024	; 0x400
 8002fb2:	2203      	movs	r2, #3
 8002fb4:	4630      	mov	r0, r6
 8002fb6:	2110      	movs	r1, #16
 8002fb8:	f001 fc44 	bl	8004844 <gpio_init>
 8002fbc:	6177      	str	r7, [r6, #20]
 8002fbe:	2100      	movs	r1, #0
 8002fc0:	20b0      	movs	r0, #176	; 0xb0
 8002fc2:	f002 f9c3 	bl	800534c <udelay(unsigned int, unsigned int)>
 8002fc6:	463b      	mov	r3, r7
 8002fc8:	4630      	mov	r0, r6
 8002fca:	2203      	movs	r2, #3
 8002fcc:	2118      	movs	r1, #24
 8002fce:	f001 fc39 	bl	8004844 <gpio_init>
 8002fd2:	2100      	movs	r1, #0
 8002fd4:	200c      	movs	r0, #12
 8002fd6:	f002 f9b9 	bl	800534c <udelay(unsigned int, unsigned int)>
 8002fda:	f04f 2640 	mov.w	r6, #1073758208	; 0x40004000
 8002fde:	4f0e      	ldr	r7, [pc, #56]	; (8003018 <Dmx::RdmSendRaw(unsigned int, unsigned char const*, unsigned int)+0x84>)
 8002fe0:	4425      	add	r5, r4
 8002fe2:	42ac      	cmp	r4, r5
 8002fe4:	d10b      	bne.n	8002ffe <Dmx::RdmSendRaw(unsigned int, unsigned char const*, unsigned int)+0x6a>
 8002fe6:	f04f 2440 	mov.w	r4, #1073758208	; 0x40004000
 8002fea:	4d0b      	ldr	r5, [pc, #44]	; (8003018 <Dmx::RdmSendRaw(unsigned int, unsigned char const*, unsigned int)+0x84>)
 8002fec:	2106      	movs	r1, #6
 8002fee:	4628      	mov	r0, r5
 8002ff0:	f001 fefe 	bl	8004df0 <usart_flag_get>
 8002ff4:	2801      	cmp	r0, #1
 8002ff6:	d00d      	beq.n	8003014 <Dmx::RdmSendRaw(unsigned int, unsigned char const*, unsigned int)+0x80>
 8002ff8:	f8d4 3804 	ldr.w	r3, [r4, #2052]	; 0x804
 8002ffc:	e7f6      	b.n	8002fec <Dmx::RdmSendRaw(unsigned int, unsigned char const*, unsigned int)+0x58>
 8002ffe:	2107      	movs	r1, #7
 8003000:	4638      	mov	r0, r7
 8003002:	f001 fef5 	bl	8004df0 <usart_flag_get>
 8003006:	2800      	cmp	r0, #0
 8003008:	d0f9      	beq.n	8002ffe <Dmx::RdmSendRaw(unsigned int, unsigned char const*, unsigned int)+0x6a>
 800300a:	f814 3b01 	ldrb.w	r3, [r4], #1
 800300e:	f8c6 3804 	str.w	r3, [r6, #2052]	; 0x804
 8003012:	e7e6      	b.n	8002fe2 <Dmx::RdmSendRaw(unsigned int, unsigned char const*, unsigned int)+0x4e>
 8003014:	bdf8      	pop	{r3, r4, r5, r6, r7, pc}
 8003016:	bf00      	nop
 8003018:	40004800 	andmi	r4, r0, r0, lsl #16
 800301c:	40011000 	andmi	r1, r1, r0

08003020 <Dmx::RdmReceive(unsigned int)>:
 8003020:	f44f 7304 	mov.w	r3, #528	; 0x210
 8003024:	4806      	ldr	r0, [pc, #24]	; (8003040 <Dmx::RdmReceive(unsigned int)+0x20>)
 8003026:	fb03 0101 	mla	r1, r3, r1, r0
 800302a:	f8b1 3204 	ldrh.w	r3, [r1, #516]	; 0x204
 800302e:	f413 4080 	ands.w	r0, r3, #16384	; 0x4000
 8003032:	bf1e      	ittt	ne
 8003034:	2300      	movne	r3, #0
 8003036:	4608      	movne	r0, r1
 8003038:	f8c1 3204 	strne.w	r3, [r1, #516]	; 0x204
 800303c:	4770      	bx	lr
 800303e:	bf00      	nop
 8003040:	200000f8 	strdcs	r0, [r0], -r8

08003044 <usb_read_byte>:
 8003044:	b508      	push	{r3, lr}
 8003046:	f000 f8ef 	bl	8003228 <FT245RL_data_available>
 800304a:	2800      	cmp	r0, #0
 800304c:	d0fb      	beq.n	8003046 <usb_read_byte+0x2>
 800304e:	e8bd 4008 	ldmia.w	sp!, {r3, lr}
 8003052:	f000 b8a9 	b.w	80031a8 <FT245RL_read_data>

08003056 <usb_send_byte>:
 8003056:	b510      	push	{r4, lr}
 8003058:	4604      	mov	r4, r0
 800305a:	f000 f8f1 	bl	8003240 <FT245RL_can_write>
 800305e:	2800      	cmp	r0, #0
 8003060:	d0fb      	beq.n	800305a <usb_send_byte+0x4>
 8003062:	4620      	mov	r0, r4
 8003064:	e8bd 4010 	ldmia.w	sp!, {r4, lr}
 8003068:	f000 b856 	b.w	8003118 <FT245RL_write_data>

0800306c <data_gpio_fsel_input>:
 800306c:	b510      	push	{r4, lr}
 800306e:	f24c 0340 	movw	r3, #49216	; 0xc040
 8003072:	2203      	movs	r2, #3
 8003074:	2104      	movs	r1, #4
 8003076:	4805      	ldr	r0, [pc, #20]	; (800308c <data_gpio_fsel_input+0x20>)
 8003078:	f001 fbe4 	bl	8004844 <gpio_init>
 800307c:	e8bd 4010 	ldmia.w	sp!, {r4, lr}
 8003080:	23f8      	movs	r3, #248	; 0xf8
 8003082:	2203      	movs	r2, #3
 8003084:	2104      	movs	r1, #4
 8003086:	4802      	ldr	r0, [pc, #8]	; (8003090 <data_gpio_fsel_input+0x24>)
 8003088:	f001 bbdc 	b.w	8004844 <gpio_init>
 800308c:	40010800 	andmi	r0, r1, r0, lsl #16
 8003090:	40010c00 	andmi	r0, r1, r0, lsl #24

08003094 <FT245RL_init>:
 8003094:	b510      	push	{r4, lr}
 8003096:	f240 6002 	movw	r0, #1538	; 0x602
 800309a:	f001 fc67 	bl	800496c <rcu_periph_clock_enable>
 800309e:	f240 6003 	movw	r0, #1539	; 0x603
 80030a2:	f001 fc63 	bl	800496c <rcu_periph_clock_enable>
 80030a6:	4c19      	ldr	r4, [pc, #100]	; (800310c <FT245RL_init+0x78>)
 80030a8:	f44f 60c0 	mov.w	r0, #1536	; 0x600
 80030ac:	f001 fc5e 	bl	800496c <rcu_periph_clock_enable>
 80030b0:	2101      	movs	r1, #1
 80030b2:	4817      	ldr	r0, [pc, #92]	; (8003110 <FT245RL_init+0x7c>)
 80030b4:	f001 fc20 	bl	80048f8 <gpio_pin_remap_config>
 80030b8:	f7ff ffd8 	bl	800306c <data_gpio_fsel_input>
 80030bc:	4620      	mov	r0, r4
 80030be:	f44f 4300 	mov.w	r3, #32768	; 0x8000
 80030c2:	2203      	movs	r2, #3
 80030c4:	2110      	movs	r1, #16
 80030c6:	f001 fbbd 	bl	8004844 <gpio_init>
 80030ca:	4620      	mov	r0, r4
 80030cc:	f44f 4380 	mov.w	r3, #16384	; 0x4000
 80030d0:	2203      	movs	r2, #3
 80030d2:	2110      	movs	r1, #16
 80030d4:	f5a4 6480 	sub.w	r4, r4, #1024	; 0x400
 80030d8:	f001 fbb4 	bl	8004844 <gpio_init>
 80030dc:	f44f 5300 	mov.w	r3, #8192	; 0x2000
 80030e0:	2203      	movs	r2, #3
 80030e2:	2104      	movs	r1, #4
 80030e4:	4620      	mov	r0, r4
 80030e6:	f001 fbad 	bl	8004844 <gpio_init>
 80030ea:	f44f 6300 	mov.w	r3, #2048	; 0x800
 80030ee:	2203      	movs	r2, #3
 80030f0:	2104      	movs	r1, #4
 80030f2:	4620      	mov	r0, r4
 80030f4:	f001 fba6 	bl	8004844 <gpio_init>
 80030f8:	f44f 4200 	mov.w	r2, #32768	; 0x8000
 80030fc:	4b05      	ldr	r3, [pc, #20]	; (8003114 <FT245RL_init+0x80>)
 80030fe:	f8c3 2c10 	str.w	r2, [r3, #3088]	; 0xc10
 8003102:	f44f 4280 	mov.w	r2, #16384	; 0x4000
 8003106:	f8c3 2c14 	str.w	r2, [r3, #3092]	; 0xc14
 800310a:	bd10      	pop	{r4, pc}
 800310c:	40010c00 	andmi	r0, r1, r0, lsl #24
 8003110:	00300400 	eorseq	r0, r0, r0, lsl #8
 8003114:	40010000 	andmi	r0, r1, r0

08003118 <FT245RL_write_data>:
 8003118:	b538      	push	{r3, r4, r5, lr}
 800311a:	2203      	movs	r2, #3
 800311c:	4604      	mov	r4, r0
 800311e:	f24c 0340 	movw	r3, #49216	; 0xc040
 8003122:	2110      	movs	r1, #16
 8003124:	481d      	ldr	r0, [pc, #116]	; (800319c <FT245RL_write_data+0x84>)
 8003126:	f001 fb8d 	bl	8004844 <gpio_init>
 800312a:	23f8      	movs	r3, #248	; 0xf8
 800312c:	2203      	movs	r2, #3
 800312e:	2110      	movs	r1, #16
 8003130:	481b      	ldr	r0, [pc, #108]	; (80031a0 <FT245RL_write_data+0x88>)
 8003132:	f001 fb87 	bl	8004844 <gpio_init>
 8003136:	f44f 4080 	mov.w	r0, #16384	; 0x4000
 800313a:	491a      	ldr	r1, [pc, #104]	; (80031a4 <FT245RL_write_data+0x8c>)
 800313c:	f8c1 0c10 	str.w	r0, [r1, #3088]	; 0xc10
 8003140:	bf00      	nop
 8003142:	bf00      	nop
 8003144:	02e2      	lsls	r2, r4, #11
 8003146:	0123      	lsls	r3, r4, #4
 8003148:	ea02 0500 	and.w	r5, r2, r0
 800314c:	f003 0340 	and.w	r3, r3, #64	; 0x40
 8003150:	431d      	orrs	r5, r3
 8003152:	f402 4300 	and.w	r3, r2, #32768	; 0x8000
 8003156:	432b      	orrs	r3, r5
 8003158:	f8c1 3810 	str.w	r3, [r1, #2064]	; 0x810
 800315c:	f483 4340 	eor.w	r3, r3, #49152	; 0xc000
 8003160:	f083 0340 	eor.w	r3, r3, #64	; 0x40
 8003164:	f8c1 3814 	str.w	r3, [r1, #2068]	; 0x814
 8003168:	0162      	lsls	r2, r4, #5
 800316a:	01e3      	lsls	r3, r4, #7
 800316c:	b2db      	uxtb	r3, r3
 800316e:	f002 0240 	and.w	r2, r2, #64	; 0x40
 8003172:	431a      	orrs	r2, r3
 8003174:	1063      	asrs	r3, r4, #1
 8003176:	f003 0330 	and.w	r3, r3, #48	; 0x30
 800317a:	f344 1403 	sbfx	r4, r4, #4, #4
 800317e:	4313      	orrs	r3, r2
 8003180:	f004 0408 	and.w	r4, r4, #8
 8003184:	431c      	orrs	r4, r3
 8003186:	f8c1 4c10 	str.w	r4, [r1, #3088]	; 0xc10
 800318a:	f084 04f8 	eor.w	r4, r4, #248	; 0xf8
 800318e:	f8c1 4c14 	str.w	r4, [r1, #3092]	; 0xc14
 8003192:	bf00      	nop
 8003194:	bf00      	nop
 8003196:	f8c1 0c14 	str.w	r0, [r1, #3092]	; 0xc14
 800319a:	bd38      	pop	{r3, r4, r5, pc}
 800319c:	40010800 	andmi	r0, r1, r0, lsl #16
 80031a0:	40010c00 	andmi	r0, r1, r0, lsl #24
 80031a4:	40010000 	andmi	r0, r1, r0

080031a8 <FT245RL_read_data>:
 80031a8:	b510      	push	{r4, lr}
 80031aa:	f7ff ff5f 	bl	800306c <data_gpio_fsel_input>
 80031ae:	f44f 4300 	mov.w	r3, #32768	; 0x8000
 80031b2:	4c1b      	ldr	r4, [pc, #108]	; (8003220 <FT245RL_read_data+0x78>)
 80031b4:	f8c4 3c14 	str.w	r3, [r4, #3092]	; 0xc14
 80031b8:	2318      	movs	r3, #24
 80031ba:	bf00      	nop
 80031bc:	3b01      	subs	r3, #1
 80031be:	f013 03ff 	ands.w	r3, r3, #255	; 0xff
 80031c2:	d1fa      	bne.n	80031ba <FT245RL_read_data+0x12>
 80031c4:	f44f 4000 	mov.w	r0, #32768	; 0x8000
 80031c8:	f8d4 3808 	ldr.w	r3, [r4, #2056]	; 0x808
 80031cc:	f8d4 2c08 	ldr.w	r2, [r4, #3080]	; 0xc08
 80031d0:	f8c4 0c10 	str.w	r0, [r4, #3088]	; 0xc10
 80031d4:	f3c3 100b 	ubfx	r0, r3, #4, #12
 80031d8:	f3c3 24c4 	ubfx	r4, r3, #11, #5
 80031dc:	f004 0408 	and.w	r4, r4, #8
 80031e0:	f000 0004 	and.w	r0, r0, #4
 80031e4:	f343 23c4 	sbfx	r3, r3, #11, #5
 80031e8:	4320      	orrs	r0, r4
 80031ea:	f003 0310 	and.w	r3, r3, #16
 80031ee:	4318      	orrs	r0, r3
 80031f0:	f3c2 13c0 	ubfx	r3, r2, #7, #1
 80031f4:	f342 0106 	sbfx	r1, r2, #0, #7
 80031f8:	4318      	orrs	r0, r3
 80031fa:	f3c2 134a 	ubfx	r3, r2, #5, #11
 80031fe:	0049      	lsls	r1, r1, #1
 8003200:	f003 0302 	and.w	r3, r3, #2
 8003204:	4318      	orrs	r0, r3
 8003206:	f001 0320 	and.w	r3, r1, #32
 800320a:	4318      	orrs	r0, r3
 800320c:	4b05      	ldr	r3, [pc, #20]	; (8003224 <FT245RL_read_data+0x7c>)
 800320e:	f001 0140 	and.w	r1, r1, #64	; 0x40
 8003212:	0112      	lsls	r2, r2, #4
 8003214:	4308      	orrs	r0, r1
 8003216:	4013      	ands	r3, r2
 8003218:	4318      	orrs	r0, r3
 800321a:	b2c0      	uxtb	r0, r0
 800321c:	bd10      	pop	{r4, pc}
 800321e:	bf00      	nop
 8003220:	40010000 	andmi	r0, r1, r0
 8003224:	000fff80 	andeq	pc, pc, r0, lsl #31

08003228 <FT245RL_data_available>:
 8003228:	f44f 6100 	mov.w	r1, #2048	; 0x800
 800322c:	b508      	push	{r3, lr}
 800322e:	4803      	ldr	r0, [pc, #12]	; (800323c <FT245RL_data_available+0x14>)
 8003230:	f001 fb5c 	bl	80048ec <gpio_input_bit_get>
 8003234:	fab0 f080 	clz	r0, r0
 8003238:	0940      	lsrs	r0, r0, #5
 800323a:	bd08      	pop	{r3, pc}
 800323c:	40010800 	andmi	r0, r1, r0, lsl #16

08003240 <FT245RL_can_write>:
 8003240:	f44f 5100 	mov.w	r1, #8192	; 0x2000
 8003244:	b508      	push	{r3, lr}
 8003246:	4803      	ldr	r0, [pc, #12]	; (8003254 <FT245RL_can_write+0x14>)
 8003248:	f001 fb50 	bl	80048ec <gpio_input_bit_get>
 800324c:	fab0 f080 	clz	r0, r0
 8003250:	0940      	lsrs	r0, r0, #5
 8003252:	bd08      	pop	{r3, pc}
 8003254:	40010800 	andmi	r0, r1, r0, lsl #16

08003258 <RDMDevice::RDMDevice()>:
 8003258:	b5f7      	push	{r0, r1, r2, r4, r5, r6, r7, lr}
 800325a:	4b35      	ldr	r3, [pc, #212]	; (8003330 <RDMDevice::RDMDevice()+0xd8>)
 800325c:	4a35      	ldr	r2, [pc, #212]	; (8003334 <RDMDevice::RDMDevice()+0xdc>)
 800325e:	7859      	ldrb	r1, [r3, #1]
 8003260:	4604      	mov	r4, r0
 8003262:	f880 1050 	strb.w	r1, [r0, #80]	; 0x50
 8003266:	7818      	ldrb	r0, [r3, #0]
 8003268:	2300      	movs	r3, #0
 800326a:	4615      	mov	r5, r2
 800326c:	f884 0051 	strb.w	r0, [r4, #81]	; 0x51
 8003270:	f884 3052 	strb.w	r3, [r4, #82]	; 0x52
 8003274:	f884 3073 	strb.w	r3, [r4, #115]	; 0x73
 8003278:	f8a4 3074 	strh.w	r3, [r4, #116]	; 0x74
 800327c:	67a3      	str	r3, [r4, #120]	; 0x78
 800327e:	4613      	mov	r3, r2
 8003280:	781e      	ldrb	r6, [r3, #0]
 8003282:	3201      	adds	r2, #1
 8003284:	2e00      	cmp	r6, #0
 8003286:	d1fa      	bne.n	800327e <RDMDevice::RDMDevice()+0x26>
 8003288:	1b5b      	subs	r3, r3, r5
 800328a:	2b20      	cmp	r3, #32
 800328c:	bf28      	it	cs
 800328e:	2320      	movcs	r3, #32
 8003290:	f104 052b 	add.w	r5, r4, #43	; 0x2b
 8003294:	462e      	mov	r6, r5
 8003296:	461a      	mov	r2, r3
 8003298:	4f26      	ldr	r7, [pc, #152]	; (8003334 <RDMDevice::RDMDevice()+0xdc>)
 800329a:	3a01      	subs	r2, #1
 800329c:	d304      	bcc.n	80032a8 <RDMDevice::RDMDevice()+0x50>
 800329e:	f817 cb01 	ldrb.w	ip, [r7], #1
 80032a2:	f806 cb01 	strb.w	ip, [r6], #1
 80032a6:	e7f8      	b.n	800329a <RDMDevice::RDMDevice()+0x42>
 80032a8:	f884 304b 	strb.w	r3, [r4, #75]	; 0x4b
 80032ac:	4b22      	ldr	r3, [pc, #136]	; (8003338 <RDMDevice::RDMDevice()+0xe0>)
 80032ae:	7020      	strb	r0, [r4, #0]
 80032b0:	7061      	strb	r1, [r4, #1]
 80032b2:	6818      	ldr	r0, [r3, #0]
 80032b4:	4669      	mov	r1, sp
 80032b6:	f000 fc61 	bl	8003b7c <Network::MacAddressCopyTo(unsigned char*)>
 80032ba:	f89d 3002 	ldrb.w	r3, [sp, #2]
 80032be:	f89d 2003 	ldrb.w	r2, [sp, #3]
 80032c2:	70a3      	strb	r3, [r4, #2]
 80032c4:	7263      	strb	r3, [r4, #9]
 80032c6:	4b1d      	ldr	r3, [pc, #116]	; (800333c <RDMDevice::RDMDevice()+0xe4>)
 80032c8:	70e2      	strb	r2, [r4, #3]
 80032ca:	7222      	strb	r2, [r4, #8]
 80032cc:	461a      	mov	r2, r3
 80032ce:	f89d 1004 	ldrb.w	r1, [sp, #4]
 80032d2:	f89d 0005 	ldrb.w	r0, [sp, #5]
 80032d6:	7121      	strb	r1, [r4, #4]
 80032d8:	7160      	strb	r0, [r4, #5]
 80032da:	71a0      	strb	r0, [r4, #6]
 80032dc:	71e1      	strb	r1, [r4, #7]
 80032de:	f813 1f01 	ldrb.w	r1, [r3, #1]!
 80032e2:	2900      	cmp	r1, #0
 80032e4:	d1fb      	bne.n	80032de <RDMDevice::RDMDevice()+0x86>
 80032e6:	1a9b      	subs	r3, r3, r2
 80032e8:	2b20      	cmp	r3, #32
 80032ea:	bf28      	it	cs
 80032ec:	2320      	movcs	r3, #32
 80032ee:	461a      	mov	r2, r3
 80032f0:	4912      	ldr	r1, [pc, #72]	; (800333c <RDMDevice::RDMDevice()+0xe4>)
 80032f2:	3a01      	subs	r2, #1
 80032f4:	d304      	bcc.n	8003300 <RDMDevice::RDMDevice()+0xa8>
 80032f6:	f811 0b01 	ldrb.w	r0, [r1], #1
 80032fa:	f805 0b01 	strb.w	r0, [r5], #1
 80032fe:	e7f8      	b.n	80032f2 <RDMDevice::RDMDevice()+0x9a>
 8003300:	f884 304b 	strb.w	r3, [r4, #75]	; 0x4b
 8003304:	f06f 2380 	mvn.w	r3, #2147516416	; 0x80008000
 8003308:	64e3      	str	r3, [r4, #76]	; 0x4c
 800330a:	2314      	movs	r3, #20
 800330c:	4a0c      	ldr	r2, [pc, #48]	; (8003340 <RDMDevice::RDMDevice()+0xe8>)
 800330e:	f884 3073 	strb.w	r3, [r4, #115]	; 0x73
 8003312:	f104 0067 	add.w	r0, r4, #103	; 0x67
 8003316:	f104 0353 	add.w	r3, r4, #83	; 0x53
 800331a:	4298      	cmp	r0, r3
 800331c:	d004      	beq.n	8003328 <RDMDevice::RDMDevice()+0xd0>
 800331e:	f812 1b01 	ldrb.w	r1, [r2], #1
 8003322:	f803 1b01 	strb.w	r1, [r3], #1
 8003326:	e7f8      	b.n	800331a <RDMDevice::RDMDevice()+0xc2>
 8003328:	4620      	mov	r0, r4
 800332a:	b003      	add	sp, #12
 800332c:	bdf0      	pop	{r4, r5, r6, r7, pc}
 800332e:	bf00      	nop
 8003330:	08005a47 	stmdaeq	r0, {r0, r1, r2, r6, r9, fp, ip, lr}
 8003334:	08005a49 	stmdaeq	r0, {r0, r3, r6, r9, fp, ip, lr}
 8003338:	2000176c 	andcs	r1, r0, ip, ror #14
 800333c:	08005a1e 	stmdaeq	r0, {r1, r2, r3, r4, r9, fp, ip, lr}
 8003340:	08005a32 	stmdaeq	r0, {r1, r4, r5, r9, fp, ip, lr}

08003344 <memcpy.isra.0>:
 8003344:	f000 bfd2 	b.w	80042ec <memcpy>

08003348 <RDMDeviceParams::RDMDeviceParams(RDMDeviceParamsStore*)>:
 8003348:	b510      	push	{r4, lr}
 800334a:	6001      	str	r1, [r0, #0]
 800334c:	2100      	movs	r1, #0
 800334e:	4604      	mov	r4, r0
 8003350:	6041      	str	r1, [r0, #4]
 8003352:	2220      	movs	r2, #32
 8003354:	3008      	adds	r0, #8
 8003356:	f000 ffd4 	bl	8004302 <memset>
 800335a:	4b03      	ldr	r3, [pc, #12]	; (8003368 <RDMDeviceParams::RDMDeviceParams(RDMDeviceParamsStore*)+0x20>)
 800335c:	4620      	mov	r0, r4
 800335e:	62a3      	str	r3, [r4, #40]	; 0x28
 8003360:	237f      	movs	r3, #127	; 0x7f
 8003362:	f884 302c 	strb.w	r3, [r4, #44]	; 0x2c
 8003366:	bd10      	pop	{r4, pc}
 8003368:	ff7fff00 			; <UNDEFINED> instruction: 0xff7fff00

0800336c <RDMDeviceParams::Load()>:
 800336c:	4601      	mov	r1, r0
 800336e:	6800      	ldr	r0, [r0, #0]
 8003370:	b130      	cbz	r0, 8003380 <RDMDeviceParams::Load()+0x14>
 8003372:	b508      	push	{r3, lr}
 8003374:	6803      	ldr	r3, [r0, #0]
 8003376:	3104      	adds	r1, #4
 8003378:	68db      	ldr	r3, [r3, #12]
 800337a:	4798      	blx	r3
 800337c:	2001      	movs	r0, #1
 800337e:	bd08      	pop	{r3, pc}
 8003380:	4770      	bx	lr

08003382 <RDMDeviceParams::Set(RDMDevice*)>:
 8003382:	b5f8      	push	{r3, r4, r5, r6, r7, lr}
 8003384:	6843      	ldr	r3, [r0, #4]
 8003386:	460c      	mov	r4, r1
 8003388:	07d9      	lsls	r1, r3, #31
 800338a:	4605      	mov	r5, r0
 800338c:	d518      	bpl.n	80033c0 <RDMDeviceParams::Set(RDMDevice*)+0x3e>
 800338e:	f890 6028 	ldrb.w	r6, [r0, #40]	; 0x28
 8003392:	f894 3052 	ldrb.w	r3, [r4, #82]	; 0x52
 8003396:	2e20      	cmp	r6, #32
 8003398:	bf28      	it	cs
 800339a:	2620      	movcs	r6, #32
 800339c:	f100 0108 	add.w	r1, r0, #8
 80033a0:	b1e3      	cbz	r3, 80033dc <RDMDeviceParams::Set(RDMDevice*)+0x5a>
 80033a2:	f104 070a 	add.w	r7, r4, #10
 80033a6:	4638      	mov	r0, r7
 80033a8:	4632      	mov	r2, r6
 80033aa:	f7ff ffcb 	bl	8003344 <memcpy.isra.0>
 80033ae:	6fa0      	ldr	r0, [r4, #120]	; 0x78
 80033b0:	f884 602a 	strb.w	r6, [r4, #42]	; 0x2a
 80033b4:	b120      	cbz	r0, 80033c0 <RDMDeviceParams::Set(RDMDevice*)+0x3e>
 80033b6:	6803      	ldr	r3, [r0, #0]
 80033b8:	4632      	mov	r2, r6
 80033ba:	4639      	mov	r1, r7
 80033bc:	689b      	ldr	r3, [r3, #8]
 80033be:	4798      	blx	r3
 80033c0:	686b      	ldr	r3, [r5, #4]
 80033c2:	079a      	lsls	r2, r3, #30
 80033c4:	bf44      	itt	mi
 80033c6:	f8b5 2029 	ldrhmi.w	r2, [r5, #41]	; 0x29
 80033ca:	f8a4 204c 	strhmi.w	r2, [r4, #76]	; 0x4c
 80033ce:	075b      	lsls	r3, r3, #29
 80033d0:	bf44      	itt	mi
 80033d2:	f8b5 302b 	ldrhmi.w	r3, [r5, #43]	; 0x2b
 80033d6:	f8a4 304e 	strhmi.w	r3, [r4, #78]	; 0x4e
 80033da:	bdf8      	pop	{r3, r4, r5, r6, r7, pc}
 80033dc:	4632      	mov	r2, r6
 80033de:	f104 0053 	add.w	r0, r4, #83	; 0x53
 80033e2:	f7ff ffaf 	bl	8003344 <memcpy.isra.0>
 80033e6:	f884 6073 	strb.w	r6, [r4, #115]	; 0x73
 80033ea:	e7e9      	b.n	80033c0 <RDMDeviceParams::Set(RDMDevice*)+0x3e>

080033ec <RDMDeviceParams::Dump()>:
 80033ec:	4770      	bx	lr
	...

080033f0 <SpiFlashStore::GetStoreOffset(spiflashstore::Store)>:
 80033f0:	2300      	movs	r3, #0
 80033f2:	2020      	movs	r0, #32
 80033f4:	b510      	push	{r4, lr}
 80033f6:	4a04      	ldr	r2, [pc, #16]	; (8003408 <SpiFlashStore::GetStoreOffset(spiflashstore::Store)+0x18>)
 80033f8:	428b      	cmp	r3, r1
 80033fa:	d004      	beq.n	8003406 <SpiFlashStore::GetStoreOffset(spiflashstore::Store)+0x16>
 80033fc:	f852 4b04 	ldr.w	r4, [r2], #4
 8003400:	3301      	adds	r3, #1
 8003402:	4420      	add	r0, r4
 8003404:	e7f8      	b.n	80033f8 <SpiFlashStore::GetStoreOffset(spiflashstore::Store)+0x8>
 8003406:	bd10      	pop	{r4, pc}
 8003408:	08005a68 	stmdaeq	r0, {r3, r5, r6, r9, fp, ip, lr}

0800340c <SpiFlashStore::Init()>:
 800340c:	e92d 4ff0 	stmdb	sp!, {r4, r5, r6, r7, r8, r9, sl, fp, lr}
 8003410:	f8df 8120 	ldr.w	r8, [pc, #288]	; 8003534 <SpiFlashStore::Init()+0x128>
 8003414:	4607      	mov	r7, r0
 8003416:	b085      	sub	sp, #20
 8003418:	f8d8 0000 	ldr.w	r0, [r8]
 800341c:	f000 fa46 	bl	80038ac <FlashRom::GetSectorSize()>
 8003420:	f5b0 5f80 	cmp.w	r0, #4096	; 0x1000
 8003424:	4605      	mov	r5, r0
 8003426:	f040 8083 	bne.w	8003530 <SpiFlashStore::Init()+0x124>
 800342a:	f8d8 0000 	ldr.w	r0, [r8]
 800342e:	f000 fa35 	bl	800389c <FlashRom::GetSize()>
 8003432:	4b41      	ldr	r3, [pc, #260]	; (8003538 <SpiFlashStore::Init()+0x12c>)
 8003434:	f5a0 5180 	sub.w	r1, r0, #4096	; 0x1000
 8003438:	f3c1 060b 	ubfx	r6, r1, #0, #12
 800343c:	6019      	str	r1, [r3, #0]
 800343e:	2e00      	cmp	r6, #0
 8003440:	d176      	bne.n	8003530 <SpiFlashStore::Init()+0x124>
 8003442:	4c3e      	ldr	r4, [pc, #248]	; (800353c <SpiFlashStore::Init()+0x130>)
 8003444:	ab03      	add	r3, sp, #12
 8003446:	9300      	str	r3, [sp, #0]
 8003448:	462a      	mov	r2, r5
 800344a:	4623      	mov	r3, r4
 800344c:	f8d8 0000 	ldr.w	r0, [r8]
 8003450:	f000 fa2f 	bl	80038b2 <FlashRom::Read(unsigned int, unsigned int, unsigned char*, flashrom::result&)>
 8003454:	7823      	ldrb	r3, [r4, #0]
 8003456:	2b41      	cmp	r3, #65	; 0x41
 8003458:	bf1c      	itt	ne
 800345a:	2341      	movne	r3, #65	; 0x41
 800345c:	7023      	strbne	r3, [r4, #0]
 800345e:	7863      	ldrb	r3, [r4, #1]
 8003460:	bf14      	ite	ne
 8003462:	4635      	movne	r5, r6
 8003464:	2501      	moveq	r5, #1
 8003466:	2b76      	cmp	r3, #118	; 0x76
 8003468:	bf1c      	itt	ne
 800346a:	2376      	movne	r3, #118	; 0x76
 800346c:	7063      	strbne	r3, [r4, #1]
 800346e:	78a3      	ldrb	r3, [r4, #2]
 8003470:	bf18      	it	ne
 8003472:	2500      	movne	r5, #0
 8003474:	2b56      	cmp	r3, #86	; 0x56
 8003476:	bf1c      	itt	ne
 8003478:	2356      	movne	r3, #86	; 0x56
 800347a:	70a3      	strbne	r3, [r4, #2]
 800347c:	78e3      	ldrb	r3, [r4, #3]
 800347e:	bf18      	it	ne
 8003480:	2500      	movne	r5, #0
 8003482:	2b10      	cmp	r3, #16
 8003484:	d01c      	beq.n	80034c0 <SpiFlashStore::Init()+0xb4>
 8003486:	2310      	movs	r3, #16
 8003488:	70e3      	strb	r3, [r4, #3]
 800348a:	2201      	movs	r2, #1
 800348c:	2500      	movs	r5, #0
 800348e:	f04f 09ff 	mov.w	r9, #255	; 0xff
 8003492:	4b2b      	ldr	r3, [pc, #172]	; (8003540 <SpiFlashStore::Init()+0x134>)
 8003494:	f8df 80ac 	ldr.w	r8, [pc, #172]	; 8003544 <SpiFlashStore::Init()+0x138>
 8003498:	701a      	strb	r2, [r3, #0]
 800349a:	4631      	mov	r1, r6
 800349c:	4638      	mov	r0, r7
 800349e:	f7ff ffa7 	bl	80033f0 <SpiFlashStore::GetStoreOffset(spiflashstore::Store)>
 80034a2:	1823      	adds	r3, r4, r0
 80034a4:	5425      	strb	r5, [r4, r0]
 80034a6:	705d      	strb	r5, [r3, #1]
 80034a8:	709d      	strb	r5, [r3, #2]
 80034aa:	70dd      	strb	r5, [r3, #3]
 80034ac:	f858 3b04 	ldr.w	r3, [r8], #4
 80034b0:	1d02      	adds	r2, r0, #4
 80034b2:	4403      	add	r3, r0
 80034b4:	4293      	cmp	r3, r2
 80034b6:	d931      	bls.n	800351c <SpiFlashStore::Init()+0x110>
 80034b8:	f804 9002 	strb.w	r9, [r4, r2]
 80034bc:	3201      	adds	r2, #1
 80034be:	e7f9      	b.n	80034b4 <SpiFlashStore::Init()+0xa8>
 80034c0:	2d00      	cmp	r5, #0
 80034c2:	d0e2      	beq.n	800348a <SpiFlashStore::Init()+0x7e>
 80034c4:	f04f 0900 	mov.w	r9, #0
 80034c8:	46c8      	mov	r8, r9
 80034ca:	f8df a07c 	ldr.w	sl, [pc, #124]	; 8003548 <SpiFlashStore::Init()+0x13c>
 80034ce:	f8da b000 	ldr.w	fp, [sl]
 80034d2:	4631      	mov	r1, r6
 80034d4:	4638      	mov	r0, r7
 80034d6:	f7ff ff8b 	bl	80033f0 <SpiFlashStore::GetStoreOffset(spiflashstore::Store)>
 80034da:	5c23      	ldrb	r3, [r4, r0]
 80034dc:	2bff      	cmp	r3, #255	; 0xff
 80034de:	d114      	bne.n	800350a <SpiFlashStore::Init()+0xfe>
 80034e0:	1823      	adds	r3, r4, r0
 80034e2:	785a      	ldrb	r2, [r3, #1]
 80034e4:	2aff      	cmp	r2, #255	; 0xff
 80034e6:	d110      	bne.n	800350a <SpiFlashStore::Init()+0xfe>
 80034e8:	789a      	ldrb	r2, [r3, #2]
 80034ea:	2aff      	cmp	r2, #255	; 0xff
 80034ec:	d10d      	bne.n	800350a <SpiFlashStore::Init()+0xfe>
 80034ee:	78da      	ldrb	r2, [r3, #3]
 80034f0:	2aff      	cmp	r2, #255	; 0xff
 80034f2:	d10a      	bne.n	800350a <SpiFlashStore::Init()+0xfe>
 80034f4:	46a9      	mov	r9, r5
 80034f6:	f04f 0b01 	mov.w	fp, #1
 80034fa:	f804 8000 	strb.w	r8, [r4, r0]
 80034fe:	f883 8001 	strb.w	r8, [r3, #1]
 8003502:	f883 8002 	strb.w	r8, [r3, #2]
 8003506:	f883 8003 	strb.w	r8, [r3, #3]
 800350a:	3601      	adds	r6, #1
 800350c:	2e1c      	cmp	r6, #28
 800350e:	d1e0      	bne.n	80034d2 <SpiFlashStore::Init()+0xc6>
 8003510:	f1b9 0f00 	cmp.w	r9, #0
 8003514:	d008      	beq.n	8003528 <SpiFlashStore::Init()+0x11c>
 8003516:	f8ca b000 	str.w	fp, [sl]
 800351a:	e005      	b.n	8003528 <SpiFlashStore::Init()+0x11c>
 800351c:	3601      	adds	r6, #1
 800351e:	2e1c      	cmp	r6, #28
 8003520:	d1bb      	bne.n	800349a <SpiFlashStore::Init()+0x8e>
 8003522:	2501      	movs	r5, #1
 8003524:	4b08      	ldr	r3, [pc, #32]	; (8003548 <SpiFlashStore::Init()+0x13c>)
 8003526:	601d      	str	r5, [r3, #0]
 8003528:	4628      	mov	r0, r5
 800352a:	b005      	add	sp, #20
 800352c:	e8bd 8ff0 	ldmia.w	sp!, {r4, r5, r6, r7, r8, r9, sl, fp, pc}
 8003530:	2500      	movs	r5, #0
 8003532:	e7f9      	b.n	8003528 <SpiFlashStore::Init()+0x11c>
 8003534:	20001750 	andcs	r1, r0, r0, asr r7
 8003538:	20001730 	andcs	r1, r0, r0, lsr r7
 800353c:	20000730 	andcs	r0, r0, r0, lsr r7
 8003540:	20001744 	andcs	r1, r0, r4, asr #14
 8003544:	08005a68 	stmdaeq	r0, {r3, r5, r6, r9, fp, ip, lr}
 8003548:	2000173c 	andcs	r1, r0, ip, lsr r7

0800354c <SpiFlashStore::SpiFlashStore()>:
 800354c:	b538      	push	{r3, r4, r5, lr}
 800354e:	4b0d      	ldr	r3, [pc, #52]	; (8003584 <SpiFlashStore::SpiFlashStore()+0x38>)
 8003550:	4604      	mov	r4, r0
 8003552:	6018      	str	r0, [r3, #0]
 8003554:	4b0c      	ldr	r3, [pc, #48]	; (8003588 <SpiFlashStore::SpiFlashStore()+0x3c>)
 8003556:	4d0d      	ldr	r5, [pc, #52]	; (800358c <SpiFlashStore::SpiFlashStore()+0x40>)
 8003558:	681b      	ldr	r3, [r3, #0]
 800355a:	781b      	ldrb	r3, [r3, #0]
 800355c:	b113      	cbz	r3, 8003564 <SpiFlashStore::SpiFlashStore()+0x18>
 800355e:	f7ff ff55 	bl	800340c <SpiFlashStore::Init()>
 8003562:	7028      	strb	r0, [r5, #0]
 8003564:	782b      	ldrb	r3, [r5, #0]
 8003566:	b153      	cbz	r3, 800357e <SpiFlashStore::SpiFlashStore()+0x32>
 8003568:	2320      	movs	r3, #32
 800356a:	2200      	movs	r2, #0
 800356c:	4908      	ldr	r1, [pc, #32]	; (8003590 <SpiFlashStore::SpiFlashStore()+0x44>)
 800356e:	f851 0b04 	ldr.w	r0, [r1], #4
 8003572:	3201      	adds	r2, #1
 8003574:	2a1c      	cmp	r2, #28
 8003576:	4403      	add	r3, r0
 8003578:	d1f9      	bne.n	800356e <SpiFlashStore::SpiFlashStore()+0x22>
 800357a:	4a06      	ldr	r2, [pc, #24]	; (8003594 <SpiFlashStore::SpiFlashStore()+0x48>)
 800357c:	6013      	str	r3, [r2, #0]
 800357e:	4620      	mov	r0, r4
 8003580:	bd38      	pop	{r3, r4, r5, pc}
 8003582:	bf00      	nop
 8003584:	20001740 	andcs	r1, r0, r0, asr #14
 8003588:	20001750 	andcs	r1, r0, r0, asr r7
 800358c:	20001734 	andcs	r1, r0, r4, lsr r7
 8003590:	08005a68 	stmdaeq	r0, {r3, r5, r6, r9, fp, ip, lr}
 8003594:	20001738 	andcs	r1, r0, r8, lsr r7

08003598 <SpiFlashStore::Update(spiflashstore::Store, unsigned int, void const*, unsigned int, unsigned int, unsigned int)>:
 8003598:	e92d 41f0 	stmdb	sp!, {r4, r5, r6, r7, r8, lr}
 800359c:	461c      	mov	r4, r3
 800359e:	4b19      	ldr	r3, [pc, #100]	; (8003604 <SpiFlashStore::Update(spiflashstore::Store, unsigned int, void const*, unsigned int, unsigned int, unsigned int)+0x6c>)
 80035a0:	4615      	mov	r5, r2
 80035a2:	781f      	ldrb	r7, [r3, #0]
 80035a4:	9e07      	ldr	r6, [sp, #28]
 80035a6:	b35f      	cbz	r7, 8003600 <SpiFlashStore::Update(spiflashstore::Store, unsigned int, void const*, unsigned int, unsigned int, unsigned int)+0x68>
 80035a8:	f7ff ff22 	bl	80033f0 <SpiFlashStore::GetStoreOffset(spiflashstore::Store)>
 80035ac:	f04f 0c00 	mov.w	ip, #0
 80035b0:	4a15      	ldr	r2, [pc, #84]	; (8003608 <SpiFlashStore::Update(spiflashstore::Store, unsigned int, void const*, unsigned int, unsigned int, unsigned int)+0x70>)
 80035b2:	1941      	adds	r1, r0, r5
 80035b4:	1e63      	subs	r3, r4, #1
 80035b6:	9c06      	ldr	r4, [sp, #24]
 80035b8:	4411      	add	r1, r2
 80035ba:	440c      	add	r4, r1
 80035bc:	42a1      	cmp	r1, r4
 80035be:	d00a      	beq.n	80035d6 <SpiFlashStore::Update(spiflashstore::Store, unsigned int, void const*, unsigned int, unsigned int, unsigned int)+0x3e>
 80035c0:	f891 8000 	ldrb.w	r8, [r1]
 80035c4:	f813 ef01 	ldrb.w	lr, [r3, #1]!
 80035c8:	3101      	adds	r1, #1
 80035ca:	45f0      	cmp	r8, lr
 80035cc:	bf1c      	itt	ne
 80035ce:	f801 ec01 	strbne.w	lr, [r1, #-1]
 80035d2:	46bc      	movne	ip, r7
 80035d4:	e7f2      	b.n	80035bc <SpiFlashStore::Update(spiflashstore::Store, unsigned int, void const*, unsigned int, unsigned int, unsigned int)+0x24>
 80035d6:	f1bc 0f00 	cmp.w	ip, #0
 80035da:	d011      	beq.n	8003600 <SpiFlashStore::Update(spiflashstore::Store, unsigned int, void const*, unsigned int, unsigned int, unsigned int)+0x68>
 80035dc:	4b0b      	ldr	r3, [pc, #44]	; (800360c <SpiFlashStore::Update(spiflashstore::Store, unsigned int, void const*, unsigned int, unsigned int, unsigned int)+0x74>)
 80035de:	6819      	ldr	r1, [r3, #0]
 80035e0:	b109      	cbz	r1, 80035e6 <SpiFlashStore::Update(spiflashstore::Store, unsigned int, void const*, unsigned int, unsigned int, unsigned int)+0x4e>
 80035e2:	2906      	cmp	r1, #6
 80035e4:	d101      	bne.n	80035ea <SpiFlashStore::Update(spiflashstore::Store, unsigned int, void const*, unsigned int, unsigned int, unsigned int)+0x52>
 80035e6:	2101      	movs	r1, #1
 80035e8:	6019      	str	r1, [r3, #0]
 80035ea:	4b09      	ldr	r3, [pc, #36]	; (8003610 <SpiFlashStore::Update(spiflashstore::Store, unsigned int, void const*, unsigned int, unsigned int, unsigned int)+0x78>)
 80035ec:	6819      	ldr	r1, [r3, #0]
 80035ee:	4b09      	ldr	r3, [pc, #36]	; (8003614 <SpiFlashStore::Update(spiflashstore::Store, unsigned int, void const*, unsigned int, unsigned int, unsigned int)+0x7c>)
 80035f0:	6019      	str	r1, [r3, #0]
 80035f2:	b12d      	cbz	r5, 8003600 <SpiFlashStore::Update(spiflashstore::Store, unsigned int, void const*, unsigned int, unsigned int, unsigned int)+0x68>
 80035f4:	b126      	cbz	r6, 8003600 <SpiFlashStore::Update(spiflashstore::Store, unsigned int, void const*, unsigned int, unsigned int, unsigned int)+0x68>
 80035f6:	9b08      	ldr	r3, [sp, #32]
 80035f8:	4418      	add	r0, r3
 80035fa:	5813      	ldr	r3, [r2, r0]
 80035fc:	4333      	orrs	r3, r6
 80035fe:	5013      	str	r3, [r2, r0]
 8003600:	e8bd 81f0 	ldmia.w	sp!, {r4, r5, r6, r7, r8, pc}
 8003604:	20001734 	andcs	r1, r0, r4, lsr r7
 8003608:	20000730 	andcs	r0, r0, r0, lsr r7
 800360c:	2000173c 	andcs	r1, r0, ip, lsr r7
 8003610:	2000181c 	andcs	r1, r0, ip, lsl r8
 8003614:	2000072c 	andcs	r0, r0, ip, lsr #14

08003618 <SpiFlashStore::Copy(spiflashstore::Store, void*, unsigned int, unsigned int)>:
 8003618:	e92d 43f0 	stmdb	sp!, {r4, r5, r6, r7, r8, r9, lr}
 800361c:	461d      	mov	r5, r3
 800361e:	4b15      	ldr	r3, [pc, #84]	; (8003674 <SpiFlashStore::Copy(spiflashstore::Store, void*, unsigned int, unsigned int)+0x5c>)
 8003620:	b085      	sub	sp, #20
 8003622:	781b      	ldrb	r3, [r3, #0]
 8003624:	4607      	mov	r7, r0
 8003626:	4688      	mov	r8, r1
 8003628:	4614      	mov	r4, r2
 800362a:	f8dd 9030 	ldr.w	r9, [sp, #48]	; 0x30
 800362e:	b1eb      	cbz	r3, 800366c <SpiFlashStore::Copy(spiflashstore::Store, void*, unsigned int, unsigned int)+0x54>
 8003630:	f7ff fede 	bl	80033f0 <SpiFlashStore::GetStoreOffset(spiflashstore::Store)>
 8003634:	4910      	ldr	r1, [pc, #64]	; (8003678 <SpiFlashStore::Copy(spiflashstore::Store, void*, unsigned int, unsigned int)+0x60>)
 8003636:	4a11      	ldr	r2, [pc, #68]	; (800367c <SpiFlashStore::Copy(spiflashstore::Store, void*, unsigned int, unsigned int)+0x64>)
 8003638:	7809      	ldrb	r1, [r1, #0]
 800363a:	eb00 0309 	add.w	r3, r0, r9
 800363e:	189e      	adds	r6, r3, r2
 8003640:	b951      	cbnz	r1, 8003658 <SpiFlashStore::Copy(spiflashstore::Store, void*, unsigned int, unsigned int)+0x40>
 8003642:	589b      	ldr	r3, [r3, r2]
 8003644:	b143      	cbz	r3, 8003658 <SpiFlashStore::Copy(spiflashstore::Store, void*, unsigned int, unsigned int)+0x40>
 8003646:	3c01      	subs	r4, #1
 8003648:	4435      	add	r5, r6
 800364a:	42b5      	cmp	r5, r6
 800364c:	d00e      	beq.n	800366c <SpiFlashStore::Copy(spiflashstore::Store, void*, unsigned int, unsigned int)+0x54>
 800364e:	f816 3b01 	ldrb.w	r3, [r6], #1
 8003652:	f804 3f01 	strb.w	r3, [r4, #1]!
 8003656:	e7f8      	b.n	800364a <SpiFlashStore::Copy(spiflashstore::Store, void*, unsigned int, unsigned int)+0x32>
 8003658:	2300      	movs	r3, #0
 800365a:	464a      	mov	r2, r9
 800365c:	e9cd 3301 	strd	r3, r3, [sp, #4]
 8003660:	4641      	mov	r1, r8
 8003662:	4623      	mov	r3, r4
 8003664:	4638      	mov	r0, r7
 8003666:	9500      	str	r5, [sp, #0]
 8003668:	f7ff ff96 	bl	8003598 <SpiFlashStore::Update(spiflashstore::Store, unsigned int, void const*, unsigned int, unsigned int, unsigned int)>
 800366c:	b005      	add	sp, #20
 800366e:	e8bd 83f0 	ldmia.w	sp!, {r4, r5, r6, r7, r8, r9, pc}
 8003672:	bf00      	nop
 8003674:	20001734 	andcs	r1, r0, r4, lsr r7
 8003678:	20001744 	andcs	r1, r0, r4, asr #14
 800367c:	20000730 	andcs	r0, r0, r0, lsr r7

08003680 <SpiFlashStore::Flash()>:
 8003680:	b51f      	push	{r0, r1, r2, r3, r4, lr}
 8003682:	4c25      	ldr	r4, [pc, #148]	; (8003718 <SpiFlashStore::Flash()+0x98>)
 8003684:	6820      	ldr	r0, [r4, #0]
 8003686:	2800      	cmp	r0, #0
 8003688:	d043      	beq.n	8003712 <SpiFlashStore::Flash()+0x92>
 800368a:	3801      	subs	r0, #1
 800368c:	2805      	cmp	r0, #5
 800368e:	d831      	bhi.n	80036f4 <SpiFlashStore::Flash()+0x74>
 8003690:	e8df f000 	tbb	[pc, r0]
 8003694:	2e140b03 	vnmlscs.f64	d0, d4, d3
 8003698:	4b203025 	blmi	880f734 <__exidx_end+0x8097bc>
 800369c:	681a      	ldr	r2, [r3, #0]
 800369e:	4b20      	ldr	r3, [pc, #128]	; (8003720 <SpiFlashStore::Flash()+0xa0>)
 80036a0:	601a      	str	r2, [r3, #0]
 80036a2:	2302      	movs	r3, #2
 80036a4:	6023      	str	r3, [r4, #0]
 80036a6:	2001      	movs	r0, #1
 80036a8:	e033      	b.n	8003712 <SpiFlashStore::Flash()+0x92>
 80036aa:	4b1c      	ldr	r3, [pc, #112]	; (800371c <SpiFlashStore::Flash()+0x9c>)
 80036ac:	4a1c      	ldr	r2, [pc, #112]	; (8003720 <SpiFlashStore::Flash()+0xa0>)
 80036ae:	681b      	ldr	r3, [r3, #0]
 80036b0:	6812      	ldr	r2, [r2, #0]
 80036b2:	1a9b      	subs	r3, r3, r2
 80036b4:	2b63      	cmp	r3, #99	; 0x63
 80036b6:	d9f6      	bls.n	80036a6 <SpiFlashStore::Flash()+0x26>
 80036b8:	2303      	movs	r3, #3
 80036ba:	e7f3      	b.n	80036a4 <SpiFlashStore::Flash()+0x24>
 80036bc:	4919      	ldr	r1, [pc, #100]	; (8003724 <SpiFlashStore::Flash()+0xa4>)
 80036be:	481a      	ldr	r0, [pc, #104]	; (8003728 <SpiFlashStore::Flash()+0xa8>)
 80036c0:	f44f 5280 	mov.w	r2, #4096	; 0x1000
 80036c4:	6809      	ldr	r1, [r1, #0]
 80036c6:	6800      	ldr	r0, [r0, #0]
 80036c8:	ab03      	add	r3, sp, #12
 80036ca:	f000 f901 	bl	80038d0 <FlashRom::Erase(unsigned int, unsigned int, flashrom::result&)>
 80036ce:	2800      	cmp	r0, #0
 80036d0:	d0e9      	beq.n	80036a6 <SpiFlashStore::Flash()+0x26>
 80036d2:	4b12      	ldr	r3, [pc, #72]	; (800371c <SpiFlashStore::Flash()+0x9c>)
 80036d4:	681a      	ldr	r2, [r3, #0]
 80036d6:	4b12      	ldr	r3, [pc, #72]	; (8003720 <SpiFlashStore::Flash()+0xa0>)
 80036d8:	601a      	str	r2, [r3, #0]
 80036da:	2305      	movs	r3, #5
 80036dc:	e7e2      	b.n	80036a4 <SpiFlashStore::Flash()+0x24>
 80036de:	4b0f      	ldr	r3, [pc, #60]	; (800371c <SpiFlashStore::Flash()+0x9c>)
 80036e0:	4a0f      	ldr	r2, [pc, #60]	; (8003720 <SpiFlashStore::Flash()+0xa0>)
 80036e2:	681b      	ldr	r3, [r3, #0]
 80036e4:	6812      	ldr	r2, [r2, #0]
 80036e6:	1a9b      	subs	r3, r3, r2
 80036e8:	2b63      	cmp	r3, #99	; 0x63
 80036ea:	d9dc      	bls.n	80036a6 <SpiFlashStore::Flash()+0x26>
 80036ec:	2304      	movs	r3, #4
 80036ee:	e7d9      	b.n	80036a4 <SpiFlashStore::Flash()+0x24>
 80036f0:	2306      	movs	r3, #6
 80036f2:	e7d7      	b.n	80036a4 <SpiFlashStore::Flash()+0x24>
 80036f4:	ab03      	add	r3, sp, #12
 80036f6:	4a0d      	ldr	r2, [pc, #52]	; (800372c <SpiFlashStore::Flash()+0xac>)
 80036f8:	490a      	ldr	r1, [pc, #40]	; (8003724 <SpiFlashStore::Flash()+0xa4>)
 80036fa:	480b      	ldr	r0, [pc, #44]	; (8003728 <SpiFlashStore::Flash()+0xa8>)
 80036fc:	9300      	str	r3, [sp, #0]
 80036fe:	6812      	ldr	r2, [r2, #0]
 8003700:	4b0b      	ldr	r3, [pc, #44]	; (8003730 <SpiFlashStore::Flash()+0xb0>)
 8003702:	6809      	ldr	r1, [r1, #0]
 8003704:	6800      	ldr	r0, [r0, #0]
 8003706:	f000 f983 	bl	8003a10 <FlashRom::Write(unsigned int, unsigned int, unsigned char const*, flashrom::result&)>
 800370a:	2800      	cmp	r0, #0
 800370c:	d0cb      	beq.n	80036a6 <SpiFlashStore::Flash()+0x26>
 800370e:	2000      	movs	r0, #0
 8003710:	6020      	str	r0, [r4, #0]
 8003712:	b004      	add	sp, #16
 8003714:	bd10      	pop	{r4, pc}
 8003716:	bf00      	nop
 8003718:	2000173c 	andcs	r1, r0, ip, lsr r7
 800371c:	2000181c 	andcs	r1, r0, ip, lsl r8
 8003720:	2000072c 	andcs	r0, r0, ip, lsr #14
 8003724:	20001730 	andcs	r1, r0, r0, lsr r7
 8003728:	20001750 	andcs	r1, r0, r0, asr r7
 800372c:	20001738 	andcs	r1, r0, r8, lsr r7
 8003730:	20000730 	andcs	r0, r0, r0, lsr r7

08003734 <StoreRDMDevice::~StoreRDMDevice()>:
 8003734:	4770      	bx	lr

08003736 <non-virtual thunk to StoreRDMDevice::~StoreRDMDevice()>:
 8003736:	3804      	subs	r0, #4
 8003738:	4770      	bx	lr
	...

0800373c <StoreRDMDevice::Update(TRDMDeviceParams const*)>:
 800373c:	b51f      	push	{r0, r1, r2, r3, r4, lr}
 800373e:	2200      	movs	r2, #0
 8003740:	460b      	mov	r3, r1
 8003742:	2129      	movs	r1, #41	; 0x29
 8003744:	e9cd 2201 	strd	r2, r2, [sp, #4]
 8003748:	4804      	ldr	r0, [pc, #16]	; (800375c <StoreRDMDevice::Update(TRDMDeviceParams const*)+0x20>)
 800374a:	9100      	str	r1, [sp, #0]
 800374c:	6800      	ldr	r0, [r0, #0]
 800374e:	210b      	movs	r1, #11
 8003750:	f7ff ff22 	bl	8003598 <SpiFlashStore::Update(spiflashstore::Store, unsigned int, void const*, unsigned int, unsigned int, unsigned int)>
 8003754:	b005      	add	sp, #20
 8003756:	f85d fb04 	ldr.w	pc, [sp], #4
 800375a:	bf00      	nop
 800375c:	20001740 	andcs	r1, r0, r0, asr #14

08003760 <StoreRDMDevice::SaveLabel(char const*, unsigned char)>:
 8003760:	b570      	push	{r4, r5, r6, lr}
 8003762:	2401      	movs	r4, #1
 8003764:	2600      	movs	r6, #0
 8003766:	4d0c      	ldr	r5, [pc, #48]	; (8003798 <StoreRDMDevice::SaveLabel(char const*, unsigned char)+0x38>)
 8003768:	b086      	sub	sp, #24
 800376a:	460b      	mov	r3, r1
 800376c:	6828      	ldr	r0, [r5, #0]
 800376e:	f88d 2017 	strb.w	r2, [sp, #23]
 8003772:	9200      	str	r2, [sp, #0]
 8003774:	210b      	movs	r1, #11
 8003776:	2204      	movs	r2, #4
 8003778:	e9cd 4601 	strd	r4, r6, [sp, #4]
 800377c:	f7ff ff0c 	bl	8003598 <SpiFlashStore::Update(spiflashstore::Store, unsigned int, void const*, unsigned int, unsigned int, unsigned int)>
 8003780:	2224      	movs	r2, #36	; 0x24
 8003782:	210b      	movs	r1, #11
 8003784:	e9cd 4601 	strd	r4, r6, [sp, #4]
 8003788:	6828      	ldr	r0, [r5, #0]
 800378a:	9400      	str	r4, [sp, #0]
 800378c:	f10d 0317 	add.w	r3, sp, #23
 8003790:	f7ff ff02 	bl	8003598 <SpiFlashStore::Update(spiflashstore::Store, unsigned int, void const*, unsigned int, unsigned int, unsigned int)>
 8003794:	b006      	add	sp, #24
 8003796:	bd70      	pop	{r4, r5, r6, pc}
 8003798:	20001740 	andcs	r1, r0, r0, asr #14

0800379c <non-virtual thunk to StoreRDMDevice::SaveLabel(char const*, unsigned char)>:
 800379c:	f1a0 0004 	sub.w	r0, r0, #4
 80037a0:	e7de      	b.n	8003760 <StoreRDMDevice::SaveLabel(char const*, unsigned char)>
 80037a2:	bf00      	nop

080037a4 <StoreRDMDevice::~StoreRDMDevice()>:
 80037a4:	b510      	push	{r4, lr}
 80037a6:	4604      	mov	r4, r0
 80037a8:	f000 fd2c 	bl	8004204 <operator delete(void*)>
 80037ac:	4620      	mov	r0, r4
 80037ae:	bd10      	pop	{r4, pc}

080037b0 <non-virtual thunk to StoreRDMDevice::~StoreRDMDevice()>:
 80037b0:	f1a0 0004 	sub.w	r0, r0, #4
 80037b4:	e7f6      	b.n	80037a4 <StoreRDMDevice::~StoreRDMDevice()>
	...

080037b8 <StoreRDMDevice::Copy(TRDMDeviceParams*)>:
 80037b8:	2300      	movs	r3, #0
 80037ba:	b507      	push	{r0, r1, r2, lr}
 80037bc:	4805      	ldr	r0, [pc, #20]	; (80037d4 <StoreRDMDevice::Copy(TRDMDeviceParams*)+0x1c>)
 80037be:	9300      	str	r3, [sp, #0]
 80037c0:	460a      	mov	r2, r1
 80037c2:	2329      	movs	r3, #41	; 0x29
 80037c4:	210b      	movs	r1, #11
 80037c6:	6800      	ldr	r0, [r0, #0]
 80037c8:	f7ff ff26 	bl	8003618 <SpiFlashStore::Copy(spiflashstore::Store, void*, unsigned int, unsigned int)>
 80037cc:	b003      	add	sp, #12
 80037ce:	f85d fb04 	ldr.w	pc, [sp], #4
 80037d2:	bf00      	nop
 80037d4:	20001740 	andcs	r1, r0, r0, asr #14

080037d8 <StoreRDMDevice::StoreRDMDevice()>:
 80037d8:	4a03      	ldr	r2, [pc, #12]	; (80037e8 <StoreRDMDevice::StoreRDMDevice()+0x10>)
 80037da:	6002      	str	r2, [r0, #0]
 80037dc:	321c      	adds	r2, #28
 80037de:	6042      	str	r2, [r0, #4]
 80037e0:	4a02      	ldr	r2, [pc, #8]	; (80037ec <StoreRDMDevice::StoreRDMDevice()+0x14>)
 80037e2:	6010      	str	r0, [r2, #0]
 80037e4:	4770      	bx	lr
 80037e6:	bf00      	nop
 80037e8:	08005ae0 	stmdaeq	r0, {r5, r6, r7, r9, fp, ip, lr}
 80037ec:	20001748 	andcs	r1, r0, r8, asr #14

080037f0 <StoreWidget::~StoreWidget()>:
 80037f0:	4770      	bx	lr

080037f2 <non-virtual thunk to StoreWidget::~StoreWidget()>:
 80037f2:	3804      	subs	r0, #4
 80037f4:	4770      	bx	lr
	...

080037f8 <StoreWidget::Update(TWidgetParams const*)>:
 80037f8:	b51f      	push	{r0, r1, r2, r3, r4, lr}
 80037fa:	2200      	movs	r2, #0
 80037fc:	460b      	mov	r3, r1
 80037fe:	210c      	movs	r1, #12
 8003800:	e9cd 2201 	strd	r2, r2, [sp, #4]
 8003804:	4804      	ldr	r0, [pc, #16]	; (8003818 <StoreWidget::Update(TWidgetParams const*)+0x20>)
 8003806:	9100      	str	r1, [sp, #0]
 8003808:	6800      	ldr	r0, [r0, #0]
 800380a:	210a      	movs	r1, #10
 800380c:	f7ff fec4 	bl	8003598 <SpiFlashStore::Update(spiflashstore::Store, unsigned int, void const*, unsigned int, unsigned int, unsigned int)>
 8003810:	b005      	add	sp, #20
 8003812:	f85d fb04 	ldr.w	pc, [sp], #4
 8003816:	bf00      	nop
 8003818:	20001740 	andcs	r1, r0, r0, asr #14

0800381c <StoreWidget::~StoreWidget()>:
 800381c:	b510      	push	{r4, lr}
 800381e:	4604      	mov	r4, r0
 8003820:	f000 fcf0 	bl	8004204 <operator delete(void*)>
 8003824:	4620      	mov	r0, r4
 8003826:	bd10      	pop	{r4, pc}

08003828 <non-virtual thunk to StoreWidget::~StoreWidget()>:
 8003828:	f1a0 0004 	sub.w	r0, r0, #4
 800382c:	e7f6      	b.n	800381c <StoreWidget::~StoreWidget()>
	...

08003830 <StoreWidget::Copy(TWidgetParams*)>:
 8003830:	2300      	movs	r3, #0
 8003832:	b507      	push	{r0, r1, r2, lr}
 8003834:	4805      	ldr	r0, [pc, #20]	; (800384c <StoreWidget::Copy(TWidgetParams*)+0x1c>)
 8003836:	9300      	str	r3, [sp, #0]
 8003838:	460a      	mov	r2, r1
 800383a:	230c      	movs	r3, #12
 800383c:	210a      	movs	r1, #10
 800383e:	6800      	ldr	r0, [r0, #0]
 8003840:	f7ff feea 	bl	8003618 <SpiFlashStore::Copy(spiflashstore::Store, void*, unsigned int, unsigned int)>
 8003844:	b003      	add	sp, #12
 8003846:	f85d fb04 	ldr.w	pc, [sp], #4
 800384a:	bf00      	nop
 800384c:	20001740 	andcs	r1, r0, r0, asr #14

08003850 <StoreWidget::StoreWidget()>:
 8003850:	4a03      	ldr	r2, [pc, #12]	; (8003860 <StoreWidget::StoreWidget()+0x10>)
 8003852:	6002      	str	r2, [r0, #0]
 8003854:	3224      	adds	r2, #36	; 0x24
 8003856:	6042      	str	r2, [r0, #4]
 8003858:	4a02      	ldr	r2, [pc, #8]	; (8003864 <StoreWidget::StoreWidget()+0x14>)
 800385a:	6010      	str	r0, [r2, #0]
 800385c:	4770      	bx	lr
 800385e:	bf00      	nop
 8003860:	08005b10 	stmdaeq	r0, {r4, r8, r9, fp, ip, lr}
 8003864:	2000174c 	andcs	r1, r0, ip, asr #14

08003868 <FlashRom::FlashRom()>:
 8003868:	4b08      	ldr	r3, [pc, #32]	; (800388c <FlashRom::FlashRom()+0x24>)
 800386a:	b510      	push	{r4, lr}
 800386c:	6018      	str	r0, [r3, #0]
 800386e:	2301      	movs	r3, #1
 8003870:	4604      	mov	r4, r0
 8003872:	7003      	strb	r3, [r0, #0]
 8003874:	4b06      	ldr	r3, [pc, #24]	; (8003890 <FlashRom::FlashRom()+0x28>)
 8003876:	f44f 5280 	mov.w	r2, #4096	; 0x1000
 800387a:	f8b3 30e0 	ldrh.w	r3, [r3, #224]	; 0xe0
 800387e:	4905      	ldr	r1, [pc, #20]	; (8003894 <FlashRom::FlashRom()+0x2c>)
 8003880:	029b      	lsls	r3, r3, #10
 8003882:	4805      	ldr	r0, [pc, #20]	; (8003898 <FlashRom::FlashRom()+0x30>)
 8003884:	f7fe f8dc 	bl	8001a40 <printf>
 8003888:	4620      	mov	r0, r4
 800388a:	bd10      	pop	{r4, pc}
 800388c:	20001750 	andcs	r1, r0, r0, asr r7
 8003890:	1ffff700 	svcne	0x00fff700
 8003894:	08005b48 	stmdaeq	r0, {r3, r6, r8, r9, fp, ip, lr}
 8003898:	08005b4d 	stmdaeq	r0, {r0, r2, r3, r6, r8, r9, fp, ip, lr}

0800389c <FlashRom::GetSize()>:
 800389c:	4b02      	ldr	r3, [pc, #8]	; (80038a8 <FlashRom::GetSize()+0xc>)
 800389e:	f8b3 00e0 	ldrh.w	r0, [r3, #224]	; 0xe0
 80038a2:	0280      	lsls	r0, r0, #10
 80038a4:	4770      	bx	lr
 80038a6:	bf00      	nop
 80038a8:	1ffff700 	svcne	0x00fff700

080038ac <FlashRom::GetSectorSize()>:
 80038ac:	f44f 5080 	mov.w	r0, #4096	; 0x1000
 80038b0:	4770      	bx	lr

080038b2 <FlashRom::Read(unsigned int, unsigned int, unsigned char*, flashrom::result&)>:
 80038b2:	f101 6100 	add.w	r1, r1, #134217728	; 0x8000000
 80038b6:	441a      	add	r2, r3
 80038b8:	4293      	cmp	r3, r2
 80038ba:	d004      	beq.n	80038c6 <FlashRom::Read(unsigned int, unsigned int, unsigned char*, flashrom::result&)+0x14>
 80038bc:	f851 0b04 	ldr.w	r0, [r1], #4
 80038c0:	f843 0b04 	str.w	r0, [r3], #4
 80038c4:	e7f8      	b.n	80038b8 <FlashRom::Read(unsigned int, unsigned int, unsigned char*, flashrom::result&)+0x6>
 80038c6:	2200      	movs	r2, #0
 80038c8:	9b00      	ldr	r3, [sp, #0]
 80038ca:	2001      	movs	r0, #1
 80038cc:	601a      	str	r2, [r3, #0]
 80038ce:	4770      	bx	lr

080038d0 <FlashRom::Erase(unsigned int, unsigned int, flashrom::result&)>:
 80038d0:	2000      	movs	r0, #0
 80038d2:	b538      	push	{r3, r4, r5, lr}
 80038d4:	4c47      	ldr	r4, [pc, #284]	; (80039f4 <FlashRom::Erase(unsigned int, unsigned int, flashrom::result&)+0x124>)
 80038d6:	6018      	str	r0, [r3, #0]
 80038d8:	6823      	ldr	r3, [r4, #0]
 80038da:	2b04      	cmp	r3, #4
 80038dc:	f200 8082 	bhi.w	80039e4 <FlashRom::Erase(unsigned int, unsigned int, flashrom::result&)+0x114>
 80038e0:	e8df f003 	tbb	[pc, r3]
 80038e4:	78452003 	stmdavc	r5, {r0, r1, sp}^
 80038e8:	4b430080 	blmi	90c3af0 <__exidx_end+0x10bdb78>
 80038ec:	f101 6100 	add.w	r1, r1, #134217728	; 0x8000000
 80038f0:	6019      	str	r1, [r3, #0]
 80038f2:	4b42      	ldr	r3, [pc, #264]	; (80039fc <FlashRom::Erase(unsigned int, unsigned int, flashrom::result&)+0x12c>)
 80038f4:	601a      	str	r2, [r3, #0]
 80038f6:	4b42      	ldr	r3, [pc, #264]	; (8003a00 <FlashRom::Erase(unsigned int, unsigned int, flashrom::result&)+0x130>)
 80038f8:	f8b3 30e0 	ldrh.w	r3, [r3, #224]	; 0xe0
 80038fc:	f5b3 7f00 	cmp.w	r3, #512	; 0x200
 8003900:	4b40      	ldr	r3, [pc, #256]	; (8003a04 <FlashRom::Erase(unsigned int, unsigned int, flashrom::result&)+0x134>)
 8003902:	d807      	bhi.n	8003914 <FlashRom::Erase(unsigned int, unsigned int, flashrom::result&)+0x44>
 8003904:	2201      	movs	r2, #1
 8003906:	701a      	strb	r2, [r3, #0]
 8003908:	f000 ff0e 	bl	8004728 <fmc_bank0_unlock>
 800390c:	2301      	movs	r3, #1
 800390e:	6023      	str	r3, [r4, #0]
 8003910:	2000      	movs	r0, #0
 8003912:	e026      	b.n	8003962 <FlashRom::Erase(unsigned int, unsigned int, flashrom::result&)+0x92>
 8003914:	4a3c      	ldr	r2, [pc, #240]	; (8003a08 <FlashRom::Erase(unsigned int, unsigned int, flashrom::result&)+0x138>)
 8003916:	4291      	cmp	r1, r2
 8003918:	d3f4      	bcc.n	8003904 <FlashRom::Erase(unsigned int, unsigned int, flashrom::result&)+0x34>
 800391a:	2200      	movs	r2, #0
 800391c:	701a      	strb	r2, [r3, #0]
 800391e:	f000 ff11 	bl	8004744 <fmc_bank1_unlock>
 8003922:	e7f3      	b.n	800390c <FlashRom::Erase(unsigned int, unsigned int, flashrom::result&)+0x3c>
 8003924:	4d37      	ldr	r5, [pc, #220]	; (8003a04 <FlashRom::Erase(unsigned int, unsigned int, flashrom::result&)+0x134>)
 8003926:	782b      	ldrb	r3, [r5, #0]
 8003928:	b15b      	cbz	r3, 8003942 <FlashRom::Erase(unsigned int, unsigned int, flashrom::result&)+0x72>
 800392a:	f000 ff29 	bl	8004780 <fmc_bank0_state_get>
 800392e:	2801      	cmp	r0, #1
 8003930:	d0ee      	beq.n	8003910 <FlashRom::Erase(unsigned int, unsigned int, flashrom::result&)+0x40>
 8003932:	7829      	ldrb	r1, [r5, #0]
 8003934:	4b35      	ldr	r3, [pc, #212]	; (8003a0c <FlashRom::Erase(unsigned int, unsigned int, flashrom::result&)+0x13c>)
 8003936:	b939      	cbnz	r1, 8003948 <FlashRom::Erase(unsigned int, unsigned int, flashrom::result&)+0x78>
 8003938:	6d1a      	ldr	r2, [r3, #80]	; 0x50
 800393a:	f022 0202 	bic.w	r2, r2, #2
 800393e:	651a      	str	r2, [r3, #80]	; 0x50
 8003940:	e006      	b.n	8003950 <FlashRom::Erase(unsigned int, unsigned int, flashrom::result&)+0x80>
 8003942:	f000 ff31 	bl	80047a8 <fmc_bank1_state_get>
 8003946:	e7f2      	b.n	800392e <FlashRom::Erase(unsigned int, unsigned int, flashrom::result&)+0x5e>
 8003948:	691a      	ldr	r2, [r3, #16]
 800394a:	f022 0202 	bic.w	r2, r2, #2
 800394e:	611a      	str	r2, [r3, #16]
 8003950:	4b2a      	ldr	r3, [pc, #168]	; (80039fc <FlashRom::Erase(unsigned int, unsigned int, flashrom::result&)+0x12c>)
 8003952:	681b      	ldr	r3, [r3, #0]
 8003954:	b94b      	cbnz	r3, 800396a <FlashRom::Erase(unsigned int, unsigned int, flashrom::result&)+0x9a>
 8003956:	b129      	cbz	r1, 8003964 <FlashRom::Erase(unsigned int, unsigned int, flashrom::result&)+0x94>
 8003958:	f000 ff02 	bl	8004760 <fmc_bank0_lock>
 800395c:	2300      	movs	r3, #0
 800395e:	2001      	movs	r0, #1
 8003960:	6023      	str	r3, [r4, #0]
 8003962:	bd38      	pop	{r3, r4, r5, pc}
 8003964:	f000 ff04 	bl	8004770 <fmc_bank1_lock>
 8003968:	e7f8      	b.n	800395c <FlashRom::Erase(unsigned int, unsigned int, flashrom::result&)+0x8c>
 800396a:	2302      	movs	r3, #2
 800396c:	e7cf      	b.n	800390e <FlashRom::Erase(unsigned int, unsigned int, flashrom::result&)+0x3e>
 800396e:	4923      	ldr	r1, [pc, #140]	; (80039fc <FlashRom::Erase(unsigned int, unsigned int, flashrom::result&)+0x12c>)
 8003970:	680b      	ldr	r3, [r1, #0]
 8003972:	2b00      	cmp	r3, #0
 8003974:	d0ca      	beq.n	800390c <FlashRom::Erase(unsigned int, unsigned int, flashrom::result&)+0x3c>
 8003976:	4b23      	ldr	r3, [pc, #140]	; (8003a04 <FlashRom::Erase(unsigned int, unsigned int, flashrom::result&)+0x134>)
 8003978:	4a1f      	ldr	r2, [pc, #124]	; (80039f8 <FlashRom::Erase(unsigned int, unsigned int, flashrom::result&)+0x128>)
 800397a:	7818      	ldrb	r0, [r3, #0]
 800397c:	4b23      	ldr	r3, [pc, #140]	; (8003a0c <FlashRom::Erase(unsigned int, unsigned int, flashrom::result&)+0x13c>)
 800397e:	b190      	cbz	r0, 80039a6 <FlashRom::Erase(unsigned int, unsigned int, flashrom::result&)+0xd6>
 8003980:	6918      	ldr	r0, [r3, #16]
 8003982:	f040 0002 	orr.w	r0, r0, #2
 8003986:	6118      	str	r0, [r3, #16]
 8003988:	6810      	ldr	r0, [r2, #0]
 800398a:	6158      	str	r0, [r3, #20]
 800398c:	6918      	ldr	r0, [r3, #16]
 800398e:	f040 0040 	orr.w	r0, r0, #64	; 0x40
 8003992:	6118      	str	r0, [r3, #16]
 8003994:	680b      	ldr	r3, [r1, #0]
 8003996:	f5a3 6300 	sub.w	r3, r3, #2048	; 0x800
 800399a:	600b      	str	r3, [r1, #0]
 800399c:	6813      	ldr	r3, [r2, #0]
 800399e:	f503 6300 	add.w	r3, r3, #2048	; 0x800
 80039a2:	6013      	str	r3, [r2, #0]
 80039a4:	e7b2      	b.n	800390c <FlashRom::Erase(unsigned int, unsigned int, flashrom::result&)+0x3c>
 80039a6:	6d18      	ldr	r0, [r3, #80]	; 0x50
 80039a8:	f040 0002 	orr.w	r0, r0, #2
 80039ac:	6518      	str	r0, [r3, #80]	; 0x50
 80039ae:	6810      	ldr	r0, [r2, #0]
 80039b0:	6558      	str	r0, [r3, #84]	; 0x54
 80039b2:	69dd      	ldr	r5, [r3, #28]
 80039b4:	07ad      	lsls	r5, r5, #30
 80039b6:	bf48      	it	mi
 80039b8:	6158      	strmi	r0, [r3, #20]
 80039ba:	4814      	ldr	r0, [pc, #80]	; (8003a0c <FlashRom::Erase(unsigned int, unsigned int, flashrom::result&)+0x13c>)
 80039bc:	6d03      	ldr	r3, [r0, #80]	; 0x50
 80039be:	f043 0340 	orr.w	r3, r3, #64	; 0x40
 80039c2:	6503      	str	r3, [r0, #80]	; 0x50
 80039c4:	680b      	ldr	r3, [r1, #0]
 80039c6:	f5a3 5380 	sub.w	r3, r3, #4096	; 0x1000
 80039ca:	600b      	str	r3, [r1, #0]
 80039cc:	6813      	ldr	r3, [r2, #0]
 80039ce:	f503 5380 	add.w	r3, r3, #4096	; 0x1000
 80039d2:	e7e6      	b.n	80039a2 <FlashRom::Erase(unsigned int, unsigned int, flashrom::result&)+0xd2>
 80039d4:	4b0b      	ldr	r3, [pc, #44]	; (8003a04 <FlashRom::Erase(unsigned int, unsigned int, flashrom::result&)+0x134>)
 80039d6:	781a      	ldrb	r2, [r3, #0]
 80039d8:	4b0c      	ldr	r3, [pc, #48]	; (8003a0c <FlashRom::Erase(unsigned int, unsigned int, flashrom::result&)+0x13c>)
 80039da:	b132      	cbz	r2, 80039ea <FlashRom::Erase(unsigned int, unsigned int, flashrom::result&)+0x11a>
 80039dc:	691a      	ldr	r2, [r3, #16]
 80039de:	f022 0201 	bic.w	r2, r2, #1
 80039e2:	611a      	str	r2, [r3, #16]
 80039e4:	2000      	movs	r0, #0
 80039e6:	6020      	str	r0, [r4, #0]
 80039e8:	e7bb      	b.n	8003962 <FlashRom::Erase(unsigned int, unsigned int, flashrom::result&)+0x92>
 80039ea:	6d1a      	ldr	r2, [r3, #80]	; 0x50
 80039ec:	f022 0201 	bic.w	r2, r2, #1
 80039f0:	651a      	str	r2, [r3, #80]	; 0x50
 80039f2:	e7f7      	b.n	80039e4 <FlashRom::Erase(unsigned int, unsigned int, flashrom::result&)+0x114>
 80039f4:	20001758 	andcs	r1, r0, r8, asr r7
 80039f8:	2000175c 	andcs	r1, r0, ip, asr r7
 80039fc:	20001768 	andcs	r1, r0, r8, ror #14
 8003a00:	1ffff700 	svcne	0x00fff700
 8003a04:	20001764 	andcs	r1, r0, r4, ror #14
 8003a08:	0807ffff 	stmdaeq	r7, {r0, r1, r2, r3, r4, r5, r6, r7, r8, r9, sl, fp, ip, sp, lr, pc}
 8003a0c:	40022000 	andmi	r2, r2, r0

08003a10 <FlashRom::Write(unsigned int, unsigned int, unsigned char const*, flashrom::result&)>:
 8003a10:	b570      	push	{r4, r5, r6, lr}
 8003a12:	2400      	movs	r4, #0
 8003a14:	9804      	ldr	r0, [sp, #16]
 8003a16:	6004      	str	r4, [r0, #0]
 8003a18:	4c48      	ldr	r4, [pc, #288]	; (8003b3c <FlashRom::Write(unsigned int, unsigned int, unsigned char const*, flashrom::result&)+0x12c>)
 8003a1a:	6820      	ldr	r0, [r4, #0]
 8003a1c:	2804      	cmp	r0, #4
 8003a1e:	d848      	bhi.n	8003ab2 <FlashRom::Write(unsigned int, unsigned int, unsigned char const*, flashrom::result&)+0xa2>
 8003a20:	e8df f000 	tbb	[pc, r0]
 8003a24:	22847c03 	addcs	r7, r4, #768	; 0x300
 8003a28:	48450047 	stmdami	r5, {r0, r1, r2, r6}^
 8003a2c:	f101 6100 	add.w	r1, r1, #134217728	; 0x8000000
 8003a30:	6001      	str	r1, [r0, #0]
 8003a32:	4844      	ldr	r0, [pc, #272]	; (8003b44 <FlashRom::Write(unsigned int, unsigned int, unsigned char const*, flashrom::result&)+0x134>)
 8003a34:	6003      	str	r3, [r0, #0]
 8003a36:	4b44      	ldr	r3, [pc, #272]	; (8003b48 <FlashRom::Write(unsigned int, unsigned int, unsigned char const*, flashrom::result&)+0x138>)
 8003a38:	601a      	str	r2, [r3, #0]
 8003a3a:	4b44      	ldr	r3, [pc, #272]	; (8003b4c <FlashRom::Write(unsigned int, unsigned int, unsigned char const*, flashrom::result&)+0x13c>)
 8003a3c:	f8b3 30e0 	ldrh.w	r3, [r3, #224]	; 0xe0
 8003a40:	f5b3 7f00 	cmp.w	r3, #512	; 0x200
 8003a44:	4b42      	ldr	r3, [pc, #264]	; (8003b50 <FlashRom::Write(unsigned int, unsigned int, unsigned char const*, flashrom::result&)+0x140>)
 8003a46:	d807      	bhi.n	8003a58 <FlashRom::Write(unsigned int, unsigned int, unsigned char const*, flashrom::result&)+0x48>
 8003a48:	2201      	movs	r2, #1
 8003a4a:	701a      	strb	r2, [r3, #0]
 8003a4c:	f000 fe6c 	bl	8004728 <fmc_bank0_unlock>
 8003a50:	2303      	movs	r3, #3
 8003a52:	6023      	str	r3, [r4, #0]
 8003a54:	2000      	movs	r0, #0
 8003a56:	e026      	b.n	8003aa6 <FlashRom::Write(unsigned int, unsigned int, unsigned char const*, flashrom::result&)+0x96>
 8003a58:	4a3e      	ldr	r2, [pc, #248]	; (8003b54 <FlashRom::Write(unsigned int, unsigned int, unsigned char const*, flashrom::result&)+0x144>)
 8003a5a:	4291      	cmp	r1, r2
 8003a5c:	d3f4      	bcc.n	8003a48 <FlashRom::Write(unsigned int, unsigned int, unsigned char const*, flashrom::result&)+0x38>
 8003a5e:	2200      	movs	r2, #0
 8003a60:	701a      	strb	r2, [r3, #0]
 8003a62:	f000 fe6f 	bl	8004744 <fmc_bank1_unlock>
 8003a66:	e7f3      	b.n	8003a50 <FlashRom::Write(unsigned int, unsigned int, unsigned char const*, flashrom::result&)+0x40>
 8003a68:	4d39      	ldr	r5, [pc, #228]	; (8003b50 <FlashRom::Write(unsigned int, unsigned int, unsigned char const*, flashrom::result&)+0x140>)
 8003a6a:	782b      	ldrb	r3, [r5, #0]
 8003a6c:	b15b      	cbz	r3, 8003a86 <FlashRom::Write(unsigned int, unsigned int, unsigned char const*, flashrom::result&)+0x76>
 8003a6e:	f000 fe87 	bl	8004780 <fmc_bank0_state_get>
 8003a72:	2801      	cmp	r0, #1
 8003a74:	d0ee      	beq.n	8003a54 <FlashRom::Write(unsigned int, unsigned int, unsigned char const*, flashrom::result&)+0x44>
 8003a76:	7829      	ldrb	r1, [r5, #0]
 8003a78:	4b37      	ldr	r3, [pc, #220]	; (8003b58 <FlashRom::Write(unsigned int, unsigned int, unsigned char const*, flashrom::result&)+0x148>)
 8003a7a:	b939      	cbnz	r1, 8003a8c <FlashRom::Write(unsigned int, unsigned int, unsigned char const*, flashrom::result&)+0x7c>
 8003a7c:	6d1a      	ldr	r2, [r3, #80]	; 0x50
 8003a7e:	f022 0201 	bic.w	r2, r2, #1
 8003a82:	651a      	str	r2, [r3, #80]	; 0x50
 8003a84:	e006      	b.n	8003a94 <FlashRom::Write(unsigned int, unsigned int, unsigned char const*, flashrom::result&)+0x84>
 8003a86:	f000 fe8f 	bl	80047a8 <fmc_bank1_state_get>
 8003a8a:	e7f2      	b.n	8003a72 <FlashRom::Write(unsigned int, unsigned int, unsigned char const*, flashrom::result&)+0x62>
 8003a8c:	691a      	ldr	r2, [r3, #16]
 8003a8e:	f022 0201 	bic.w	r2, r2, #1
 8003a92:	611a      	str	r2, [r3, #16]
 8003a94:	4b2c      	ldr	r3, [pc, #176]	; (8003b48 <FlashRom::Write(unsigned int, unsigned int, unsigned char const*, flashrom::result&)+0x138>)
 8003a96:	681b      	ldr	r3, [r3, #0]
 8003a98:	b94b      	cbnz	r3, 8003aae <FlashRom::Write(unsigned int, unsigned int, unsigned char const*, flashrom::result&)+0x9e>
 8003a9a:	b129      	cbz	r1, 8003aa8 <FlashRom::Write(unsigned int, unsigned int, unsigned char const*, flashrom::result&)+0x98>
 8003a9c:	f000 fe60 	bl	8004760 <fmc_bank0_lock>
 8003aa0:	2300      	movs	r3, #0
 8003aa2:	2001      	movs	r0, #1
 8003aa4:	6023      	str	r3, [r4, #0]
 8003aa6:	bd70      	pop	{r4, r5, r6, pc}
 8003aa8:	f000 fe62 	bl	8004770 <fmc_bank1_lock>
 8003aac:	e7f8      	b.n	8003aa0 <FlashRom::Write(unsigned int, unsigned int, unsigned char const*, flashrom::result&)+0x90>
 8003aae:	2304      	movs	r3, #4
 8003ab0:	e7cf      	b.n	8003a52 <FlashRom::Write(unsigned int, unsigned int, unsigned char const*, flashrom::result&)+0x42>
 8003ab2:	4a25      	ldr	r2, [pc, #148]	; (8003b48 <FlashRom::Write(unsigned int, unsigned int, unsigned char const*, flashrom::result&)+0x138>)
 8003ab4:	6813      	ldr	r3, [r2, #0]
 8003ab6:	2b03      	cmp	r3, #3
 8003ab8:	d91a      	bls.n	8003af0 <FlashRom::Write(unsigned int, unsigned int, unsigned char const*, flashrom::result&)+0xe0>
 8003aba:	4b25      	ldr	r3, [pc, #148]	; (8003b50 <FlashRom::Write(unsigned int, unsigned int, unsigned char const*, flashrom::result&)+0x140>)
 8003abc:	7819      	ldrb	r1, [r3, #0]
 8003abe:	4b26      	ldr	r3, [pc, #152]	; (8003b58 <FlashRom::Write(unsigned int, unsigned int, unsigned char const*, flashrom::result&)+0x148>)
 8003ac0:	b189      	cbz	r1, 8003ae6 <FlashRom::Write(unsigned int, unsigned int, unsigned char const*, flashrom::result&)+0xd6>
 8003ac2:	6919      	ldr	r1, [r3, #16]
 8003ac4:	f041 0101 	orr.w	r1, r1, #1
 8003ac8:	6119      	str	r1, [r3, #16]
 8003aca:	4d1e      	ldr	r5, [pc, #120]	; (8003b44 <FlashRom::Write(unsigned int, unsigned int, unsigned char const*, flashrom::result&)+0x134>)
 8003acc:	481c      	ldr	r0, [pc, #112]	; (8003b40 <FlashRom::Write(unsigned int, unsigned int, unsigned char const*, flashrom::result&)+0x130>)
 8003ace:	6829      	ldr	r1, [r5, #0]
 8003ad0:	6803      	ldr	r3, [r0, #0]
 8003ad2:	f851 6b04 	ldr.w	r6, [r1], #4
 8003ad6:	f843 6b04 	str.w	r6, [r3], #4
 8003ada:	6003      	str	r3, [r0, #0]
 8003adc:	6813      	ldr	r3, [r2, #0]
 8003ade:	6029      	str	r1, [r5, #0]
 8003ae0:	3b04      	subs	r3, #4
 8003ae2:	6013      	str	r3, [r2, #0]
 8003ae4:	e7b4      	b.n	8003a50 <FlashRom::Write(unsigned int, unsigned int, unsigned char const*, flashrom::result&)+0x40>
 8003ae6:	6d19      	ldr	r1, [r3, #80]	; 0x50
 8003ae8:	f041 0101 	orr.w	r1, r1, #1
 8003aec:	6519      	str	r1, [r3, #80]	; 0x50
 8003aee:	e7ec      	b.n	8003aca <FlashRom::Write(unsigned int, unsigned int, unsigned char const*, flashrom::result&)+0xba>
 8003af0:	2b00      	cmp	r3, #0
 8003af2:	d0ad      	beq.n	8003a50 <FlashRom::Write(unsigned int, unsigned int, unsigned char const*, flashrom::result&)+0x40>
 8003af4:	4b16      	ldr	r3, [pc, #88]	; (8003b50 <FlashRom::Write(unsigned int, unsigned int, unsigned char const*, flashrom::result&)+0x140>)
 8003af6:	781a      	ldrb	r2, [r3, #0]
 8003af8:	4b17      	ldr	r3, [pc, #92]	; (8003b58 <FlashRom::Write(unsigned int, unsigned int, unsigned char const*, flashrom::result&)+0x148>)
 8003afa:	b152      	cbz	r2, 8003b12 <FlashRom::Write(unsigned int, unsigned int, unsigned char const*, flashrom::result&)+0x102>
 8003afc:	691a      	ldr	r2, [r3, #16]
 8003afe:	f042 0201 	orr.w	r2, r2, #1
 8003b02:	611a      	str	r2, [r3, #16]
 8003b04:	4a0f      	ldr	r2, [pc, #60]	; (8003b44 <FlashRom::Write(unsigned int, unsigned int, unsigned char const*, flashrom::result&)+0x134>)
 8003b06:	4b0e      	ldr	r3, [pc, #56]	; (8003b40 <FlashRom::Write(unsigned int, unsigned int, unsigned char const*, flashrom::result&)+0x130>)
 8003b08:	6812      	ldr	r2, [r2, #0]
 8003b0a:	681b      	ldr	r3, [r3, #0]
 8003b0c:	6812      	ldr	r2, [r2, #0]
 8003b0e:	601a      	str	r2, [r3, #0]
 8003b10:	e79e      	b.n	8003a50 <FlashRom::Write(unsigned int, unsigned int, unsigned char const*, flashrom::result&)+0x40>
 8003b12:	6d1a      	ldr	r2, [r3, #80]	; 0x50
 8003b14:	f042 0201 	orr.w	r2, r2, #1
 8003b18:	651a      	str	r2, [r3, #80]	; 0x50
 8003b1a:	e7f3      	b.n	8003b04 <FlashRom::Write(unsigned int, unsigned int, unsigned char const*, flashrom::result&)+0xf4>
 8003b1c:	4b0c      	ldr	r3, [pc, #48]	; (8003b50 <FlashRom::Write(unsigned int, unsigned int, unsigned char const*, flashrom::result&)+0x140>)
 8003b1e:	781a      	ldrb	r2, [r3, #0]
 8003b20:	4b0d      	ldr	r3, [pc, #52]	; (8003b58 <FlashRom::Write(unsigned int, unsigned int, unsigned char const*, flashrom::result&)+0x148>)
 8003b22:	b132      	cbz	r2, 8003b32 <FlashRom::Write(unsigned int, unsigned int, unsigned char const*, flashrom::result&)+0x122>
 8003b24:	691a      	ldr	r2, [r3, #16]
 8003b26:	f022 0202 	bic.w	r2, r2, #2
 8003b2a:	611a      	str	r2, [r3, #16]
 8003b2c:	2000      	movs	r0, #0
 8003b2e:	6020      	str	r0, [r4, #0]
 8003b30:	e7b9      	b.n	8003aa6 <FlashRom::Write(unsigned int, unsigned int, unsigned char const*, flashrom::result&)+0x96>
 8003b32:	6d1a      	ldr	r2, [r3, #80]	; 0x50
 8003b34:	f022 0202 	bic.w	r2, r2, #2
 8003b38:	651a      	str	r2, [r3, #80]	; 0x50
 8003b3a:	e7f7      	b.n	8003b2c <FlashRom::Write(unsigned int, unsigned int, unsigned char const*, flashrom::result&)+0x11c>
 8003b3c:	20001758 	andcs	r1, r0, r8, asr r7
 8003b40:	20001754 	andcs	r1, r0, r4, asr r7
 8003b44:	20001760 	andcs	r1, r0, r0, ror #14
 8003b48:	20001768 	andcs	r1, r0, r8, ror #14
 8003b4c:	1ffff700 	svcne	0x00fff700
 8003b50:	20001764 	andcs	r1, r0, r4, ror #14
 8003b54:	0807ffff 	stmdaeq	r7, {r0, r1, r2, r3, r4, r5, r6, r7, r8, r9, sl, fp, ip, sp, lr, pc}
 8003b58:	40022000 	andmi	r2, r2, r0

08003b5c <Network::Network()>:
 8003b5c:	4b05      	ldr	r3, [pc, #20]	; (8003b74 <Network::Network()+0x18>)
 8003b5e:	4906      	ldr	r1, [pc, #24]	; (8003b78 <Network::Network()+0x1c>)
 8003b60:	6018      	str	r0, [r3, #0]
 8003b62:	1e42      	subs	r2, r0, #1
 8003b64:	f811 3b01 	ldrb.w	r3, [r1], #1
 8003b68:	f802 3f01 	strb.w	r3, [r2, #1]!
 8003b6c:	2b00      	cmp	r3, #0
 8003b6e:	d1f9      	bne.n	8003b64 <Network::Network()+0x8>
 8003b70:	4770      	bx	lr
 8003b72:	bf00      	nop
 8003b74:	2000176c 	andcs	r1, r0, ip, ror #14
 8003b78:	08005b7d 	stmdaeq	r0, {r0, r2, r3, r4, r5, r6, r8, r9, fp, ip, lr}

08003b7c <Network::MacAddressCopyTo(unsigned char*)>:
 8003b7c:	4608      	mov	r0, r1
 8003b7e:	f000 bcb7 	b.w	80044f0 <mac_address_get>

08003b82 <ReadConfigFile::ReadConfigFile(void (*)(void*, char const*), void*)>:
 8003b82:	e9c0 1200 	strd	r1, r2, [r0]
 8003b86:	4770      	bx	lr

08003b88 <ReadConfigFile::~ReadConfigFile()>:
 8003b88:	4770      	bx	lr

08003b8a <Sscan::Uint8(char const*, char const*, unsigned char&)>:
 8003b8a:	b538      	push	{r3, r4, r5, lr}
 8003b8c:	4615      	mov	r5, r2
 8003b8e:	f000 f819 	bl	8003bc4 <Sscan::checkName(char const*, char const*)>
 8003b92:	b198      	cbz	r0, 8003bbc <Sscan::Uint8(char const*, char const*, unsigned char&)+0x32>
 8003b94:	4604      	mov	r4, r0
 8003b96:	2100      	movs	r1, #0
 8003b98:	220a      	movs	r2, #10
 8003b9a:	7823      	ldrb	r3, [r4, #0]
 8003b9c:	f1a3 0030 	sub.w	r0, r3, #48	; 0x30
 8003ba0:	2809      	cmp	r0, #9
 8003ba2:	d80d      	bhi.n	8003bc0 <Sscan::Uint8(char const*, char const*, unsigned char&)+0x36>
 8003ba4:	fb02 3101 	mla	r1, r2, r1, r3
 8003ba8:	f814 3f01 	ldrb.w	r3, [r4, #1]!
 8003bac:	3930      	subs	r1, #48	; 0x30
 8003bae:	f013 00df 	ands.w	r0, r3, #223	; 0xdf
 8003bb2:	d1f2      	bne.n	8003b9a <Sscan::Uint8(char const*, char const*, unsigned char&)+0x10>
 8003bb4:	29ff      	cmp	r1, #255	; 0xff
 8003bb6:	d803      	bhi.n	8003bc0 <Sscan::Uint8(char const*, char const*, unsigned char&)+0x36>
 8003bb8:	7029      	strb	r1, [r5, #0]
 8003bba:	bd38      	pop	{r3, r4, r5, pc}
 8003bbc:	2001      	movs	r0, #1
 8003bbe:	e7fc      	b.n	8003bba <Sscan::Uint8(char const*, char const*, unsigned char&)+0x30>
 8003bc0:	2002      	movs	r0, #2
 8003bc2:	e7fa      	b.n	8003bba <Sscan::Uint8(char const*, char const*, unsigned char&)+0x30>

08003bc4 <Sscan::checkName(char const*, char const*)>:
 8003bc4:	4603      	mov	r3, r0
 8003bc6:	b510      	push	{r4, lr}
 8003bc8:	3901      	subs	r1, #1
 8003bca:	f811 0f01 	ldrb.w	r0, [r1, #1]!
 8003bce:	461c      	mov	r4, r3
 8003bd0:	f813 2b01 	ldrb.w	r2, [r3], #1
 8003bd4:	b120      	cbz	r0, 8003be0 <Sscan::checkName(char const*, char const*)+0x1c>
 8003bd6:	b10a      	cbz	r2, 8003bdc <Sscan::checkName(char const*, char const*)+0x18>
 8003bd8:	4290      	cmp	r0, r2
 8003bda:	d0f6      	beq.n	8003bca <Sscan::checkName(char const*, char const*)+0x6>
 8003bdc:	2000      	movs	r0, #0
 8003bde:	e006      	b.n	8003bee <Sscan::checkName(char const*, char const*)+0x2a>
 8003be0:	2a3d      	cmp	r2, #61	; 0x3d
 8003be2:	d104      	bne.n	8003bee <Sscan::checkName(char const*, char const*)+0x2a>
 8003be4:	7860      	ldrb	r0, [r4, #1]
 8003be6:	f010 00df 	ands.w	r0, r0, #223	; 0xdf
 8003bea:	d000      	beq.n	8003bee <Sscan::checkName(char const*, char const*)+0x2a>
 8003bec:	1c60      	adds	r0, r4, #1
 8003bee:	bd10      	pop	{r4, pc}

08003bf0 <Display::Detect(DisplayType)>:
 8003bf0:	2902      	cmp	r1, #2
 8003bf2:	b538      	push	{r3, r4, r5, lr}
 8003bf4:	4604      	mov	r4, r0
 8003bf6:	d014      	beq.n	8003c22 <Display::Detect(DisplayType)+0x32>
 8003bf8:	2904      	cmp	r1, #4
 8003bfa:	d01b      	beq.n	8003c34 <Display::Detect(DisplayType)+0x44>
 8003bfc:	6860      	ldr	r0, [r4, #4]
 8003bfe:	b168      	cbz	r0, 8003c1c <Display::Detect(DisplayType)+0x2c>
 8003c00:	6803      	ldr	r3, [r0, #0]
 8003c02:	689b      	ldr	r3, [r3, #8]
 8003c04:	4798      	blx	r3
 8003c06:	4603      	mov	r3, r0
 8003c08:	6860      	ldr	r0, [r4, #4]
 8003c0a:	b9ab      	cbnz	r3, 8003c38 <Display::Detect(DisplayType)+0x48>
 8003c0c:	b110      	cbz	r0, 8003c14 <Display::Detect(DisplayType)+0x24>
 8003c0e:	6803      	ldr	r3, [r0, #0]
 8003c10:	685b      	ldr	r3, [r3, #4]
 8003c12:	4798      	blx	r3
 8003c14:	2304      	movs	r3, #4
 8003c16:	2200      	movs	r2, #0
 8003c18:	e9c4 3200 	strd	r3, r2, [r4]
 8003c1c:	2300      	movs	r3, #0
 8003c1e:	6123      	str	r3, [r4, #16]
 8003c20:	e010      	b.n	8003c44 <Display::Detect(DisplayType)+0x54>
 8003c22:	2018      	movs	r0, #24
 8003c24:	f000 faf0 	bl	8004208 <operator new(unsigned int)>
 8003c28:	4605      	mov	r5, r0
 8003c2a:	2100      	movs	r1, #0
 8003c2c:	f000 f8ea 	bl	8003e04 <Ssd1306::Ssd1306(TOledPanel)>
 8003c30:	6065      	str	r5, [r4, #4]
 8003c32:	e7e3      	b.n	8003bfc <Display::Detect(DisplayType)+0xc>
 8003c34:	6001      	str	r1, [r0, #0]
 8003c36:	e7e1      	b.n	8003bfc <Display::Detect(DisplayType)+0xc>
 8003c38:	6803      	ldr	r3, [r0, #0]
 8003c3a:	68db      	ldr	r3, [r3, #12]
 8003c3c:	4798      	blx	r3
 8003c3e:	6863      	ldr	r3, [r4, #4]
 8003c40:	2b00      	cmp	r3, #0
 8003c42:	d0eb      	beq.n	8003c1c <Display::Detect(DisplayType)+0x2c>
 8003c44:	bd38      	pop	{r3, r4, r5, pc}
	...

08003c48 <Display::PrintInfo()>:
 8003c48:	6840      	ldr	r0, [r0, #4]
 8003c4a:	b910      	cbnz	r0, 8003c52 <Display::PrintInfo()+0xa>
 8003c4c:	4802      	ldr	r0, [pc, #8]	; (8003c58 <Display::PrintInfo()+0x10>)
 8003c4e:	f000 bb7d 	b.w	800434c <puts>
 8003c52:	6803      	ldr	r3, [r0, #0]
 8003c54:	6b5b      	ldr	r3, [r3, #52]	; 0x34
 8003c56:	4718      	bx	r3
 8003c58:	08005b80 	stmdaeq	r0, {r7, r8, r9, fp, ip, lr}

08003c5c <Display::Display()>:
 8003c5c:	2300      	movs	r3, #0
 8003c5e:	2204      	movs	r2, #4
 8003c60:	b510      	push	{r4, lr}
 8003c62:	4604      	mov	r4, r0
 8003c64:	e9c0 2300 	strd	r2, r3, [r0]
 8003c68:	7203      	strb	r3, [r0, #8]
 8003c6a:	4b0b      	ldr	r3, [pc, #44]	; (8003c98 <Display::Display()+0x3c>)
 8003c6c:	3014      	adds	r0, #20
 8003c6e:	681b      	ldr	r3, [r3, #0]
 8003c70:	f840 3c08 	str.w	r3, [r0, #-8]
 8003c74:	4b09      	ldr	r3, [pc, #36]	; (8003c9c <Display::Display()+0x40>)
 8003c76:	f840 3c04 	str.w	r3, [r0, #-4]
 8003c7a:	f000 f831 	bl	8003ce0 <Display7Segment::Display7Segment()>
 8003c7e:	4b08      	ldr	r3, [pc, #32]	; (8003ca0 <Display::Display()+0x44>)
 8003c80:	601c      	str	r4, [r3, #0]
 8003c82:	6863      	ldr	r3, [r4, #4]
 8003c84:	b91b      	cbnz	r3, 8003c8e <Display::Display()+0x32>
 8003c86:	2102      	movs	r1, #2
 8003c88:	4620      	mov	r0, r4
 8003c8a:	f7ff ffb1 	bl	8003bf0 <Display::Detect(DisplayType)>
 8003c8e:	4620      	mov	r0, r4
 8003c90:	f7ff ffda 	bl	8003c48 <Display::PrintInfo()>
 8003c94:	4620      	mov	r0, r4
 8003c96:	bd10      	pop	{r4, pc}
 8003c98:	2000181c 	andcs	r1, r0, ip, lsl r8
 8003c9c:	000493e0 	andeq	r9, r4, r0, ror #7
 8003ca0:	20001770 	andcs	r1, r0, r0, ror r7

08003ca4 <HAL_I2C::WriteRegister(unsigned char, unsigned short)>:
 8003ca4:	b513      	push	{r0, r1, r4, lr}
 8003ca6:	4604      	mov	r4, r0
 8003ca8:	0a13      	lsrs	r3, r2, #8
 8003caa:	7800      	ldrb	r0, [r0, #0]
 8003cac:	f88d 1004 	strb.w	r1, [sp, #4]
 8003cb0:	f88d 3005 	strb.w	r3, [sp, #5]
 8003cb4:	f88d 2006 	strb.w	r2, [sp, #6]
 8003cb8:	f001 f958 	bl	8004f6c <gd32_i2c_set_address(unsigned char)>
 8003cbc:	6860      	ldr	r0, [r4, #4]
 8003cbe:	f001 f94d 	bl	8004f5c <gd32_i2c_set_baudrate(unsigned int)>
 8003cc2:	2103      	movs	r1, #3
 8003cc4:	a801      	add	r0, sp, #4
 8003cc6:	f001 f957 	bl	8004f78 <gd32_i2c_write(char const*, unsigned int)>
 8003cca:	b002      	add	sp, #8
 8003ccc:	bd10      	pop	{r4, pc}

08003cce <Display7Segment::Status(Display7SegmentMessage)>:
 8003cce:	b508      	push	{r3, lr}
 8003cd0:	7a03      	ldrb	r3, [r0, #8]
 8003cd2:	b123      	cbz	r3, 8003cde <Display7Segment::Status(Display7SegmentMessage)+0x10>
 8003cd4:	43c9      	mvns	r1, r1
 8003cd6:	b28a      	uxth	r2, r1
 8003cd8:	2112      	movs	r1, #18
 8003cda:	f7ff ffe3 	bl	8003ca4 <HAL_I2C::WriteRegister(unsigned char, unsigned short)>
 8003cde:	bd08      	pop	{r3, pc}

08003ce0 <Display7Segment::Display7Segment()>:
 8003ce0:	b570      	push	{r4, r5, r6, lr}
 8003ce2:	4604      	mov	r4, r0
 8003ce4:	2500      	movs	r5, #0
 8003ce6:	2021      	movs	r0, #33	; 0x21
 8003ce8:	4e0f      	ldr	r6, [pc, #60]	; (8003d28 <Display7Segment::Display7Segment()+0x48>)
 8003cea:	4b10      	ldr	r3, [pc, #64]	; (8003d2c <Display7Segment::Display7Segment()+0x4c>)
 8003cec:	7020      	strb	r0, [r4, #0]
 8003cee:	6066      	str	r6, [r4, #4]
 8003cf0:	7225      	strb	r5, [r4, #8]
 8003cf2:	601c      	str	r4, [r3, #0]
 8003cf4:	f001 f93a 	bl	8004f6c <gd32_i2c_set_address(unsigned char)>
 8003cf8:	4630      	mov	r0, r6
 8003cfa:	f001 f92f 	bl	8004f5c <gd32_i2c_set_baudrate(unsigned int)>
 8003cfe:	4629      	mov	r1, r5
 8003d00:	4628      	mov	r0, r5
 8003d02:	f001 f939 	bl	8004f78 <gd32_i2c_write(char const*, unsigned int)>
 8003d06:	1e02      	subs	r2, r0, #0
 8003d08:	bf0c      	ite	eq
 8003d0a:	2301      	moveq	r3, #1
 8003d0c:	462b      	movne	r3, r5
 8003d0e:	7223      	strb	r3, [r4, #8]
 8003d10:	d108      	bne.n	8003d24 <Display7Segment::Display7Segment()+0x44>
 8003d12:	4611      	mov	r1, r2
 8003d14:	4620      	mov	r0, r4
 8003d16:	f7ff ffc5 	bl	8003ca4 <HAL_I2C::WriteRegister(unsigned char, unsigned short)>
 8003d1a:	f44f 517c 	mov.w	r1, #16128	; 0x3f00
 8003d1e:	4620      	mov	r0, r4
 8003d20:	f7ff ffd5 	bl	8003cce <Display7Segment::Status(Display7SegmentMessage)>
 8003d24:	4620      	mov	r0, r4
 8003d26:	bd70      	pop	{r4, r5, r6, pc}
 8003d28:	00061a80 	andeq	r1, r6, r0, lsl #21
 8003d2c:	20001774 	andcs	r1, r0, r4, ror r7

08003d30 <Ssd1306::~Ssd1306()>:
 8003d30:	4770      	bx	lr

08003d32 <Ssd1306::SetCursor(unsigned int)>:
 8003d32:	4770      	bx	lr

08003d34 <Ssd1306::PrintInfo()>:
 8003d34:	b410      	push	{r4}
 8003d36:	4906      	ldr	r1, [pc, #24]	; (8003d50 <Ssd1306::PrintInfo()+0x1c>)
 8003d38:	7c44      	ldrb	r4, [r0, #17]
 8003d3a:	7903      	ldrb	r3, [r0, #4]
 8003d3c:	7942      	ldrb	r2, [r0, #5]
 8003d3e:	4805      	ldr	r0, [pc, #20]	; (8003d54 <Ssd1306::PrintInfo()+0x20>)
 8003d40:	2c00      	cmp	r4, #0
 8003d42:	bf08      	it	eq
 8003d44:	4601      	moveq	r1, r0
 8003d46:	4804      	ldr	r0, [pc, #16]	; (8003d58 <Ssd1306::PrintInfo()+0x24>)
 8003d48:	bc10      	pop	{r4}
 8003d4a:	f7fd be79 	b.w	8001a40 <printf>
 8003d4e:	bf00      	nop
 8003d50:	08005b91 	stmdaeq	r0, {r0, r4, r7, r8, r9, fp, ip, lr}
 8003d54:	08005b98 	stmdaeq	r0, {r3, r4, r7, r8, r9, fp, ip, lr}
 8003d58:	08005ba0 	stmdaeq	r0, {r5, r7, r8, r9, fp, ip, lr}

08003d5c <Ssd1306::~Ssd1306()>:
 8003d5c:	b510      	push	{r4, lr}
 8003d5e:	4604      	mov	r4, r0
 8003d60:	f000 fa50 	bl	8004204 <operator delete(void*)>
 8003d64:	4620      	mov	r0, r4
 8003d66:	bd10      	pop	{r4, pc}

08003d68 <HAL_I2C::Setup()>:
 8003d68:	b510      	push	{r4, lr}
 8003d6a:	4604      	mov	r4, r0
 8003d6c:	7800      	ldrb	r0, [r0, #0]
 8003d6e:	f001 f8fd 	bl	8004f6c <gd32_i2c_set_address(unsigned char)>
 8003d72:	6860      	ldr	r0, [r4, #4]
 8003d74:	e8bd 4010 	ldmia.w	sp!, {r4, lr}
 8003d78:	f001 b8f0 	b.w	8004f5c <gd32_i2c_set_baudrate(unsigned int)>

08003d7c <Ssd1306::PutChar(int)>:
 8003d7c:	b510      	push	{r4, lr}
 8003d7e:	f1a1 0420 	sub.w	r4, r1, #32
 8003d82:	2c5f      	cmp	r4, #95	; 0x5f
 8003d84:	bf88      	it	hi
 8003d86:	2400      	movhi	r4, #0
 8003d88:	3008      	adds	r0, #8
 8003d8a:	f7ff ffed 	bl	8003d68 <HAL_I2C::Setup()>
 8003d8e:	4804      	ldr	r0, [pc, #16]	; (8003da0 <Ssd1306::PutChar(int)+0x24>)
 8003d90:	ebc4 04c4 	rsb	r4, r4, r4, lsl #3
 8003d94:	4420      	add	r0, r4
 8003d96:	2107      	movs	r1, #7
 8003d98:	e8bd 4010 	ldmia.w	sp!, {r4, lr}
 8003d9c:	f001 b8ec 	b.w	8004f78 <gd32_i2c_write(char const*, unsigned int)>
 8003da0:	08005bb4 	stmdaeq	r0, {r2, r4, r5, r7, r8, r9, fp, ip, lr}

08003da4 <Ssd1306::PutString(char const*)>:
 8003da4:	b538      	push	{r3, r4, r5, lr}
 8003da6:	4605      	mov	r5, r0
 8003da8:	1e4c      	subs	r4, r1, #1
 8003daa:	f814 1f01 	ldrb.w	r1, [r4, #1]!
 8003dae:	b119      	cbz	r1, 8003db8 <Ssd1306::PutString(char const*)+0x14>
 8003db0:	4628      	mov	r0, r5
 8003db2:	f7ff ffe3 	bl	8003d7c <Ssd1306::PutChar(int)>
 8003db6:	e7f8      	b.n	8003daa <Ssd1306::PutString(char const*)+0x6>
 8003db8:	bd38      	pop	{r3, r4, r5, pc}

08003dba <Ssd1306::Text(char const*, unsigned int)>:
 8003dba:	b570      	push	{r4, r5, r6, lr}
 8003dbc:	7903      	ldrb	r3, [r0, #4]
 8003dbe:	4605      	mov	r5, r0
 8003dc0:	460c      	mov	r4, r1
 8003dc2:	4293      	cmp	r3, r2
 8003dc4:	bf94      	ite	ls
 8003dc6:	18ce      	addls	r6, r1, r3
 8003dc8:	188e      	addhi	r6, r1, r2
 8003dca:	42b4      	cmp	r4, r6
 8003dcc:	d005      	beq.n	8003dda <Ssd1306::Text(char const*, unsigned int)+0x20>
 8003dce:	4628      	mov	r0, r5
 8003dd0:	f814 1b01 	ldrb.w	r1, [r4], #1
 8003dd4:	f7ff ffd2 	bl	8003d7c <Ssd1306::PutChar(int)>
 8003dd8:	e7f7      	b.n	8003dca <Ssd1306::Text(char const*, unsigned int)+0x10>
 8003dda:	bd70      	pop	{r4, r5, r6, pc}

08003ddc <Ssd1306::InitMembers()>:
 8003ddc:	7c03      	ldrb	r3, [r0, #16]
 8003dde:	b12b      	cbz	r3, 8003dec <Ssd1306::InitMembers()+0x10>
 8003de0:	3b01      	subs	r3, #1
 8003de2:	2b01      	cmp	r3, #1
 8003de4:	d908      	bls.n	8003df8 <Ssd1306::InitMembers()+0x1c>
 8003de6:	f640 0315 	movw	r3, #2069	; 0x815
 8003dea:	e007      	b.n	8003dfc <Ssd1306::InitMembers()+0x20>
 8003dec:	f640 0315 	movw	r3, #2069	; 0x815
 8003df0:	8083      	strh	r3, [r0, #4]
 8003df2:	2308      	movs	r3, #8
 8003df4:	6143      	str	r3, [r0, #20]
 8003df6:	4770      	bx	lr
 8003df8:	f240 4315 	movw	r3, #1045	; 0x415
 8003dfc:	8083      	strh	r3, [r0, #4]
 8003dfe:	2304      	movs	r3, #4
 8003e00:	e7f8      	b.n	8003df4 <Ssd1306::InitMembers()+0x18>
	...

08003e04 <Ssd1306::Ssd1306(TOledPanel)>:
 8003e04:	4a08      	ldr	r2, [pc, #32]	; (8003e28 <Ssd1306::Ssd1306(TOledPanel)+0x24>)
 8003e06:	b508      	push	{r3, lr}
 8003e08:	6002      	str	r2, [r0, #0]
 8003e0a:	227f      	movs	r2, #127	; 0x7f
 8003e0c:	80c2      	strh	r2, [r0, #6]
 8003e0e:	223c      	movs	r2, #60	; 0x3c
 8003e10:	7202      	strb	r2, [r0, #8]
 8003e12:	4a06      	ldr	r2, [pc, #24]	; (8003e2c <Ssd1306::Ssd1306(TOledPanel)+0x28>)
 8003e14:	7401      	strb	r1, [r0, #16]
 8003e16:	60c2      	str	r2, [r0, #12]
 8003e18:	2200      	movs	r2, #0
 8003e1a:	7442      	strb	r2, [r0, #17]
 8003e1c:	4a04      	ldr	r2, [pc, #16]	; (8003e30 <Ssd1306::Ssd1306(TOledPanel)+0x2c>)
 8003e1e:	6010      	str	r0, [r2, #0]
 8003e20:	f7ff ffdc 	bl	8003ddc <Ssd1306::InitMembers()>
 8003e24:	bd08      	pop	{r3, pc}
 8003e26:	bf00      	nop
 8003e28:	08005e8c 	stmdaeq	r0, {r2, r3, r7, r9, sl, fp, ip, lr}
 8003e2c:	00061a80 	andeq	r1, r6, r0, lsl #21
 8003e30:	20001800 	andcs	r1, r0, r0, lsl #16

08003e34 <Ssd1306::SendCommand(unsigned char)>:
 8003e34:	2300      	movs	r3, #0
 8003e36:	b507      	push	{r0, r1, r2, lr}
 8003e38:	3008      	adds	r0, #8
 8003e3a:	f88d 3004 	strb.w	r3, [sp, #4]
 8003e3e:	f88d 1005 	strb.w	r1, [sp, #5]
 8003e42:	f7ff ff91 	bl	8003d68 <HAL_I2C::Setup()>
 8003e46:	2102      	movs	r1, #2
 8003e48:	a801      	add	r0, sp, #4
 8003e4a:	f001 f895 	bl	8004f78 <gd32_i2c_write(char const*, unsigned int)>
 8003e4e:	b003      	add	sp, #12
 8003e50:	f85d fb04 	ldr.w	pc, [sp], #4

08003e54 <Ssd1306::SetCursorPos(unsigned char, unsigned char)>:
 8003e54:	2914      	cmp	r1, #20
 8003e56:	b570      	push	{r4, r5, r6, lr}
 8003e58:	4605      	mov	r5, r0
 8003e5a:	4616      	mov	r6, r2
 8003e5c:	d81c      	bhi.n	8003e98 <Ssd1306::SetCursorPos(unsigned char, unsigned char)+0x44>
 8003e5e:	7943      	ldrb	r3, [r0, #5]
 8003e60:	4293      	cmp	r3, r2
 8003e62:	d919      	bls.n	8003e98 <Ssd1306::SetCursorPos(unsigned char, unsigned char)+0x44>
 8003e64:	eb01 0141 	add.w	r1, r1, r1, lsl #1
 8003e68:	7c43      	ldrb	r3, [r0, #17]
 8003e6a:	004c      	lsls	r4, r1, #1
 8003e6c:	b2e4      	uxtb	r4, r4
 8003e6e:	b10b      	cbz	r3, 8003e74 <Ssd1306::SetCursorPos(unsigned char, unsigned char)+0x20>
 8003e70:	3404      	adds	r4, #4
 8003e72:	b2e4      	uxtb	r4, r4
 8003e74:	4628      	mov	r0, r5
 8003e76:	f004 010e 	and.w	r1, r4, #14
 8003e7a:	f7ff ffdb 	bl	8003e34 <Ssd1306::SendCommand(unsigned char)>
 8003e7e:	0921      	lsrs	r1, r4, #4
 8003e80:	4628      	mov	r0, r5
 8003e82:	f041 0110 	orr.w	r1, r1, #16
 8003e86:	f7ff ffd5 	bl	8003e34 <Ssd1306::SendCommand(unsigned char)>
 8003e8a:	4628      	mov	r0, r5
 8003e8c:	f046 01b0 	orr.w	r1, r6, #176	; 0xb0
 8003e90:	e8bd 4070 	ldmia.w	sp!, {r4, r5, r6, lr}
 8003e94:	f7ff bfce 	b.w	8003e34 <Ssd1306::SendCommand(unsigned char)>
 8003e98:	bd70      	pop	{r4, r5, r6, pc}

08003e9a <Ssd1306::TextLine(unsigned char, char const*, unsigned int)>:
 8003e9a:	b570      	push	{r4, r5, r6, lr}
 8003e9c:	4604      	mov	r4, r0
 8003e9e:	4615      	mov	r5, r2
 8003ea0:	461e      	mov	r6, r3
 8003ea2:	b171      	cbz	r1, 8003ec2 <Ssd1306::TextLine(unsigned char, char const*, unsigned int)+0x28>
 8003ea4:	7943      	ldrb	r3, [r0, #5]
 8003ea6:	428b      	cmp	r3, r1
 8003ea8:	d30b      	bcc.n	8003ec2 <Ssd1306::TextLine(unsigned char, char const*, unsigned int)+0x28>
 8003eaa:	3901      	subs	r1, #1
 8003eac:	b2ca      	uxtb	r2, r1
 8003eae:	2100      	movs	r1, #0
 8003eb0:	f7ff ffd0 	bl	8003e54 <Ssd1306::SetCursorPos(unsigned char, unsigned char)>
 8003eb4:	4632      	mov	r2, r6
 8003eb6:	4629      	mov	r1, r5
 8003eb8:	4620      	mov	r0, r4
 8003eba:	e8bd 4070 	ldmia.w	sp!, {r4, r5, r6, lr}
 8003ebe:	f7ff bf7c 	b.w	8003dba <Ssd1306::Text(char const*, unsigned int)>
 8003ec2:	bd70      	pop	{r4, r5, r6, pc}

08003ec4 <Ssd1306::ClearLine(unsigned char)>:
 8003ec4:	b538      	push	{r3, r4, r5, lr}
 8003ec6:	4605      	mov	r5, r0
 8003ec8:	b1b9      	cbz	r1, 8003efa <Ssd1306::ClearLine(unsigned char)+0x36>
 8003eca:	7943      	ldrb	r3, [r0, #5]
 8003ecc:	428b      	cmp	r3, r1
 8003ece:	d314      	bcc.n	8003efa <Ssd1306::ClearLine(unsigned char)+0x36>
 8003ed0:	3901      	subs	r1, #1
 8003ed2:	b2cc      	uxtb	r4, r1
 8003ed4:	4622      	mov	r2, r4
 8003ed6:	2100      	movs	r1, #0
 8003ed8:	f7ff ffbc 	bl	8003e54 <Ssd1306::SetCursorPos(unsigned char, unsigned char)>
 8003edc:	f105 0008 	add.w	r0, r5, #8
 8003ee0:	f7ff ff42 	bl	8003d68 <HAL_I2C::Setup()>
 8003ee4:	2181      	movs	r1, #129	; 0x81
 8003ee6:	4805      	ldr	r0, [pc, #20]	; (8003efc <Ssd1306::ClearLine(unsigned char)+0x38>)
 8003ee8:	f001 f846 	bl	8004f78 <gd32_i2c_write(char const*, unsigned int)>
 8003eec:	4622      	mov	r2, r4
 8003eee:	4628      	mov	r0, r5
 8003ef0:	e8bd 4038 	ldmia.w	sp!, {r3, r4, r5, lr}
 8003ef4:	2100      	movs	r1, #0
 8003ef6:	f7ff bfad 	b.w	8003e54 <Ssd1306::SetCursorPos(unsigned char, unsigned char)>
 8003efa:	bd38      	pop	{r3, r4, r5, pc}
 8003efc:	20001778 	andcs	r1, r0, r8, ror r7

08003f00 <Ssd1306::SetSleep(bool)>:
 8003f00:	b111      	cbz	r1, 8003f08 <Ssd1306::SetSleep(bool)+0x8>
 8003f02:	21ae      	movs	r1, #174	; 0xae
 8003f04:	f7ff bf96 	b.w	8003e34 <Ssd1306::SendCommand(unsigned char)>
 8003f08:	21af      	movs	r1, #175	; 0xaf
 8003f0a:	e7fb      	b.n	8003f04 <Ssd1306::SetSleep(bool)+0x4>

08003f0c <Ssd1306::SetContrast(unsigned char)>:
 8003f0c:	b538      	push	{r3, r4, r5, lr}
 8003f0e:	4604      	mov	r4, r0
 8003f10:	460d      	mov	r5, r1
 8003f12:	7181      	strb	r1, [r0, #6]
 8003f14:	2181      	movs	r1, #129	; 0x81
 8003f16:	f7ff ff8d 	bl	8003e34 <Ssd1306::SendCommand(unsigned char)>
 8003f1a:	4629      	mov	r1, r5
 8003f1c:	4620      	mov	r0, r4
 8003f1e:	e8bd 4038 	ldmia.w	sp!, {r3, r4, r5, lr}
 8003f22:	f7ff bf87 	b.w	8003e34 <Ssd1306::SendCommand(unsigned char)>

08003f26 <Ssd1306::SetFlipVertically(bool)>:
 8003f26:	b510      	push	{r4, lr}
 8003f28:	4604      	mov	r4, r0
 8003f2a:	71c1      	strb	r1, [r0, #7]
 8003f2c:	b141      	cbz	r1, 8003f40 <Ssd1306::SetFlipVertically(bool)+0x1a>
 8003f2e:	21c0      	movs	r1, #192	; 0xc0
 8003f30:	f7ff ff80 	bl	8003e34 <Ssd1306::SendCommand(unsigned char)>
 8003f34:	21a0      	movs	r1, #160	; 0xa0
 8003f36:	4620      	mov	r0, r4
 8003f38:	e8bd 4010 	ldmia.w	sp!, {r4, lr}
 8003f3c:	f7ff bf7a 	b.w	8003e34 <Ssd1306::SendCommand(unsigned char)>
 8003f40:	21c8      	movs	r1, #200	; 0xc8
 8003f42:	f7ff ff77 	bl	8003e34 <Ssd1306::SendCommand(unsigned char)>
 8003f46:	21a1      	movs	r1, #161	; 0xa1
 8003f48:	e7f5      	b.n	8003f36 <Ssd1306::SetFlipVertically(bool)+0x10>
	...

08003f4c <Ssd1306::CheckSH1106()>:
 8003f4c:	b570      	push	{r4, r5, r6, lr}
 8003f4e:	4604      	mov	r4, r0
 8003f50:	b086      	sub	sp, #24
 8003f52:	2100      	movs	r1, #0
 8003f54:	f7ff ff6e 	bl	8003e34 <Ssd1306::SendCommand(unsigned char)>
 8003f58:	2190      	movs	r1, #144	; 0x90
 8003f5a:	4620      	mov	r0, r4
 8003f5c:	f7ff ff6a 	bl	8003e34 <Ssd1306::SendCommand(unsigned char)>
 8003f60:	21b0      	movs	r1, #176	; 0xb0
 8003f62:	4620      	mov	r0, r4
 8003f64:	f7ff ff66 	bl	8003e34 <Ssd1306::SendCommand(unsigned char)>
 8003f68:	4b22      	ldr	r3, [pc, #136]	; (8003ff4 <Ssd1306::CheckSH1106()+0xa8>)
 8003f6a:	f104 0608 	add.w	r6, r4, #8
 8003f6e:	6818      	ldr	r0, [r3, #0]
 8003f70:	791b      	ldrb	r3, [r3, #4]
 8003f72:	ad02      	add	r5, sp, #8
 8003f74:	9002      	str	r0, [sp, #8]
 8003f76:	4630      	mov	r0, r6
 8003f78:	712b      	strb	r3, [r5, #4]
 8003f7a:	f7ff fef5 	bl	8003d68 <HAL_I2C::Setup()>
 8003f7e:	2105      	movs	r1, #5
 8003f80:	4628      	mov	r0, r5
 8003f82:	f000 fff9 	bl	8004f78 <gd32_i2c_write(char const*, unsigned int)>
 8003f86:	2100      	movs	r1, #0
 8003f88:	4620      	mov	r0, r4
 8003f8a:	f7ff ff53 	bl	8003e34 <Ssd1306::SendCommand(unsigned char)>
 8003f8e:	2190      	movs	r1, #144	; 0x90
 8003f90:	4620      	mov	r0, r4
 8003f92:	f7ff ff4f 	bl	8003e34 <Ssd1306::SendCommand(unsigned char)>
 8003f96:	21b0      	movs	r1, #176	; 0xb0
 8003f98:	4620      	mov	r0, r4
 8003f9a:	f7ff ff4b 	bl	8003e34 <Ssd1306::SendCommand(unsigned char)>
 8003f9e:	2300      	movs	r3, #0
 8003fa0:	9304      	str	r3, [sp, #16]
 8003fa2:	f88d 3014 	strb.w	r3, [sp, #20]
 8003fa6:	2340      	movs	r3, #64	; 0x40
 8003fa8:	4630      	mov	r0, r6
 8003faa:	f88d 3007 	strb.w	r3, [sp, #7]
 8003fae:	f7ff fedb 	bl	8003d68 <HAL_I2C::Setup()>
 8003fb2:	2101      	movs	r1, #1
 8003fb4:	f10d 0007 	add.w	r0, sp, #7
 8003fb8:	f000 ffde 	bl	8004f78 <gd32_i2c_write(char const*, unsigned int)>
 8003fbc:	4630      	mov	r0, r6
 8003fbe:	f7ff fed3 	bl	8003d68 <HAL_I2C::Setup()>
 8003fc2:	2105      	movs	r1, #5
 8003fc4:	a804      	add	r0, sp, #16
 8003fc6:	f001 f83d 	bl	8005044 <gd32_i2c_read(char*, unsigned int)>
 8003fca:	2201      	movs	r2, #1
 8003fcc:	5cab      	ldrb	r3, [r5, r2]
 8003fce:	a904      	add	r1, sp, #16
 8003fd0:	3201      	adds	r2, #1
 8003fd2:	4411      	add	r1, r2
 8003fd4:	f811 1c01 	ldrb.w	r1, [r1, #-1]
 8003fd8:	428b      	cmp	r3, r1
 8003fda:	d006      	beq.n	8003fea <Ssd1306::CheckSH1106()+0x9e>
 8003fdc:	1a5b      	subs	r3, r3, r1
 8003fde:	fab3 f383 	clz	r3, r3
 8003fe2:	095b      	lsrs	r3, r3, #5
 8003fe4:	7463      	strb	r3, [r4, #17]
 8003fe6:	b006      	add	sp, #24
 8003fe8:	bd70      	pop	{r4, r5, r6, pc}
 8003fea:	2a05      	cmp	r2, #5
 8003fec:	d1ee      	bne.n	8003fcc <Ssd1306::CheckSH1106()+0x80>
 8003fee:	2300      	movs	r3, #0
 8003ff0:	e7f5      	b.n	8003fde <Ssd1306::CheckSH1106()+0x92>
 8003ff2:	bf00      	nop
 8003ff4:	08005bac 	stmdaeq	r0, {r2, r3, r5, r7, r8, r9, fp, ip, lr}

08003ff8 <Ssd1306::Cls()>:
 8003ff8:	7c43      	ldrb	r3, [r0, #17]
 8003ffa:	e92d 41f0 	stmdb	sp!, {r4, r5, r6, r7, r8, lr}
 8003ffe:	2b00      	cmp	r3, #0
 8004000:	bf0c      	ite	eq
 8004002:	2500      	moveq	r5, #0
 8004004:	2504      	movne	r5, #4
 8004006:	4604      	mov	r4, r0
 8004008:	2600      	movs	r6, #0
 800400a:	f1a5 077f 	sub.w	r7, r5, #127	; 0x7f
 800400e:	f045 0810 	orr.w	r8, r5, #16
 8004012:	b2ff      	uxtb	r7, r7
 8004014:	6963      	ldr	r3, [r4, #20]
 8004016:	4629      	mov	r1, r5
 8004018:	42b3      	cmp	r3, r6
 800401a:	4620      	mov	r0, r4
 800401c:	d91b      	bls.n	8004056 <Ssd1306::Cls()+0x5e>
 800401e:	f7ff ff09 	bl	8003e34 <Ssd1306::SendCommand(unsigned char)>
 8004022:	4641      	mov	r1, r8
 8004024:	4620      	mov	r0, r4
 8004026:	f7ff ff05 	bl	8003e34 <Ssd1306::SendCommand(unsigned char)>
 800402a:	f066 014f 	orn	r1, r6, #79	; 0x4f
 800402e:	4620      	mov	r0, r4
 8004030:	b2c9      	uxtb	r1, r1
 8004032:	f7ff feff 	bl	8003e34 <Ssd1306::SendCommand(unsigned char)>
 8004036:	7c23      	ldrb	r3, [r4, #16]
 8004038:	b123      	cbz	r3, 8004044 <Ssd1306::Cls()+0x4c>
 800403a:	3b01      	subs	r3, #1
 800403c:	2b01      	cmp	r3, #1
 800403e:	d901      	bls.n	8004044 <Ssd1306::Cls()+0x4c>
 8004040:	3601      	adds	r6, #1
 8004042:	e7e7      	b.n	8004014 <Ssd1306::Cls()+0x1c>
 8004044:	f104 0008 	add.w	r0, r4, #8
 8004048:	f7ff fe8e 	bl	8003d68 <HAL_I2C::Setup()>
 800404c:	4639      	mov	r1, r7
 800404e:	4808      	ldr	r0, [pc, #32]	; (8004070 <Ssd1306::Cls()+0x78>)
 8004050:	f000 ff92 	bl	8004f78 <gd32_i2c_write(char const*, unsigned int)>
 8004054:	e7f4      	b.n	8004040 <Ssd1306::Cls()+0x48>
 8004056:	f7ff feed 	bl	8003e34 <Ssd1306::SendCommand(unsigned char)>
 800405a:	4641      	mov	r1, r8
 800405c:	4620      	mov	r0, r4
 800405e:	f7ff fee9 	bl	8003e34 <Ssd1306::SendCommand(unsigned char)>
 8004062:	4620      	mov	r0, r4
 8004064:	e8bd 41f0 	ldmia.w	sp!, {r4, r5, r6, r7, r8, lr}
 8004068:	21b0      	movs	r1, #176	; 0xb0
 800406a:	f7ff bee3 	b.w	8003e34 <Ssd1306::SendCommand(unsigned char)>
 800406e:	bf00      	nop
 8004070:	20001778 	andcs	r1, r0, r8, ror r7

08004074 <Ssd1306::Start()>:
 8004074:	b5f7      	push	{r0, r1, r2, r4, r5, r6, r7, lr}
 8004076:	7a04      	ldrb	r4, [r0, #8]
 8004078:	68c6      	ldr	r6, [r0, #12]
 800407a:	4605      	mov	r5, r0
 800407c:	4620      	mov	r0, r4
 800407e:	f000 ff75 	bl	8004f6c <gd32_i2c_set_address(unsigned char)>
 8004082:	4630      	mov	r0, r6
 8004084:	f000 ff6a 	bl	8004f5c <gd32_i2c_set_baudrate(unsigned int)>
 8004088:	f1a4 0330 	sub.w	r3, r4, #48	; 0x30
 800408c:	2b07      	cmp	r3, #7
 800408e:	d902      	bls.n	8004096 <Ssd1306::Start()+0x22>
 8004090:	3c50      	subs	r4, #80	; 0x50
 8004092:	2c0f      	cmp	r4, #15
 8004094:	d80f      	bhi.n	80040b6 <Ssd1306::Start()+0x42>
 8004096:	2101      	movs	r1, #1
 8004098:	f10d 0007 	add.w	r0, sp, #7
 800409c:	f000 ffd2 	bl	8005044 <gd32_i2c_read(char*, unsigned int)>
 80040a0:	fab0 f480 	clz	r4, r0
 80040a4:	0964      	lsrs	r4, r4, #5
 80040a6:	b35c      	cbz	r4, 8004100 <Ssd1306::Start()+0x8c>
 80040a8:	7c2e      	ldrb	r6, [r5, #16]
 80040aa:	b14e      	cbz	r6, 80040c0 <Ssd1306::Start()+0x4c>
 80040ac:	3e01      	subs	r6, #1
 80040ae:	2e01      	cmp	r6, #1
 80040b0:	d929      	bls.n	8004106 <Ssd1306::Start()+0x92>
 80040b2:	2400      	movs	r4, #0
 80040b4:	e024      	b.n	8004100 <Ssd1306::Start()+0x8c>
 80040b6:	2100      	movs	r1, #0
 80040b8:	4608      	mov	r0, r1
 80040ba:	f000 ff5d 	bl	8004f78 <gd32_i2c_write(char const*, unsigned int)>
 80040be:	e7ef      	b.n	80040a0 <Ssd1306::Start()+0x2c>
 80040c0:	4f16      	ldr	r7, [pc, #88]	; (800411c <Ssd1306::Start()+0xa8>)
 80040c2:	4628      	mov	r0, r5
 80040c4:	f817 1b01 	ldrb.w	r1, [r7], #1
 80040c8:	3601      	adds	r6, #1
 80040ca:	f7ff feb3 	bl	8003e34 <Ssd1306::SendCommand(unsigned char)>
 80040ce:	2e18      	cmp	r6, #24
 80040d0:	d1f7      	bne.n	80040c2 <Ssd1306::Start()+0x4e>
 80040d2:	2300      	movs	r3, #0
 80040d4:	4a12      	ldr	r2, [pc, #72]	; (8004120 <Ssd1306::Start()+0xac>)
 80040d6:	4618      	mov	r0, r3
 80040d8:	4611      	mov	r1, r2
 80040da:	3301      	adds	r3, #1
 80040dc:	2b86      	cmp	r3, #134	; 0x86
 80040de:	f802 0b01 	strb.w	r0, [r2], #1
 80040e2:	d1fa      	bne.n	80040da <Ssd1306::Start()+0x66>
 80040e4:	2340      	movs	r3, #64	; 0x40
 80040e6:	4628      	mov	r0, r5
 80040e8:	700b      	strb	r3, [r1, #0]
 80040ea:	f7ff ff2f 	bl	8003f4c <Ssd1306::CheckSH1106()>
 80040ee:	4628      	mov	r0, r5
 80040f0:	f7ff ff82 	bl	8003ff8 <Ssd1306::Cls()>
 80040f4:	21af      	movs	r1, #175	; 0xaf
 80040f6:	4628      	mov	r0, r5
 80040f8:	f7ff fe9c 	bl	8003e34 <Ssd1306::SendCommand(unsigned char)>
 80040fc:	2301      	movs	r3, #1
 80040fe:	71eb      	strb	r3, [r5, #7]
 8004100:	4620      	mov	r0, r4
 8004102:	b003      	add	sp, #12
 8004104:	bdf0      	pop	{r4, r5, r6, r7, pc}
 8004106:	2600      	movs	r6, #0
 8004108:	4f06      	ldr	r7, [pc, #24]	; (8004124 <Ssd1306::Start()+0xb0>)
 800410a:	4628      	mov	r0, r5
 800410c:	f817 1b01 	ldrb.w	r1, [r7], #1
 8004110:	3601      	adds	r6, #1
 8004112:	f7ff fe8f 	bl	8003e34 <Ssd1306::SendCommand(unsigned char)>
 8004116:	2e18      	cmp	r6, #24
 8004118:	d1f7      	bne.n	800410a <Ssd1306::Start()+0x96>
 800411a:	e7da      	b.n	80040d2 <Ssd1306::Start()+0x5e>
 800411c:	08005e6c 	stmdaeq	r0, {r2, r3, r5, r6, r9, sl, fp, ip, lr}
 8004120:	20001778 	andcs	r1, r0, r8, ror r7
 8004124:	08005e54 	stmdaeq	r0, {r2, r4, r6, r9, sl, fp, ip, lr}

08004128 <console_putc>:
 8004128:	280a      	cmp	r0, #10
 800412a:	b510      	push	{r4, lr}
 800412c:	4604      	mov	r4, r0
 800412e:	d102      	bne.n	8004136 <console_putc+0xe>
 8004130:	200d      	movs	r0, #13
 8004132:	f000 f9ad 	bl	8004490 <uart0_putc>
 8004136:	4620      	mov	r0, r4
 8004138:	e8bd 4010 	ldmia.w	sp!, {r4, lr}
 800413c:	f000 b9a8 	b.w	8004490 <uart0_putc>

08004140 <console_puts>:
 8004140:	f000 b9c6 	b.w	80044d0 <uart0_puts>

08004144 <LedBlink::LedBlink()>:
 8004144:	2200      	movs	r2, #0
 8004146:	2105      	movs	r1, #5
 8004148:	e9c0 2100 	strd	r2, r1, [r0]
 800414c:	f44f 71fa 	mov.w	r1, #500	; 0x1f4
 8004150:	6082      	str	r2, [r0, #8]
 8004152:	e9c0 1203 	strd	r1, r2, [r0, #12]
 8004156:	6142      	str	r2, [r0, #20]
 8004158:	4a01      	ldr	r2, [pc, #4]	; (8004160 <LedBlink::LedBlink()+0x1c>)
 800415a:	6010      	str	r0, [r2, #0]
 800415c:	4770      	bx	lr
 800415e:	bf00      	nop
 8004160:	20001804 	andcs	r1, r0, r4, lsl #16

08004164 <Hardware::Hardware()>:
 8004164:	b570      	push	{r4, r5, r6, lr}
 8004166:	2400      	movs	r4, #0
 8004168:	4b24      	ldr	r3, [pc, #144]	; (80041fc <Hardware::Hardware()+0x98>)
 800416a:	4e25      	ldr	r6, [pc, #148]	; (8004200 <Hardware::Hardware()+0x9c>)
 800416c:	b090      	sub	sp, #64	; 0x40
 800416e:	4605      	mov	r5, r0
 8004170:	6004      	str	r4, [r0, #0]
 8004172:	7104      	strb	r4, [r0, #4]
 8004174:	6018      	str	r0, [r3, #0]
 8004176:	f240 6004 	movw	r0, #1540	; 0x604
 800417a:	f000 fbf7 	bl	800496c <rcu_periph_clock_enable>
 800417e:	2203      	movs	r2, #3
 8004180:	2110      	movs	r1, #16
 8004182:	4630      	mov	r0, r6
 8004184:	2301      	movs	r3, #1
 8004186:	f000 fb5d 	bl	8004844 <gpio_init>
 800418a:	2301      	movs	r3, #1
 800418c:	6173      	str	r3, [r6, #20]
 800418e:	f000 f96f 	bl	8004470 <uart0_init>
 8004192:	f5a6 3680 	sub.w	r6, r6, #65536	; 0x10000
 8004196:	f000 f9bf 	bl	8004518 <systick_config>
 800419a:	f001 f8c3 	bl	8005324 <udelay_init()>
 800419e:	f001 f8bf 	bl	8005320 <micros_init()>
 80041a2:	f240 7004 	movw	r0, #1796	; 0x704
 80041a6:	f000 fbe1 	bl	800496c <rcu_periph_clock_enable>
 80041aa:	4630      	mov	r0, r6
 80041ac:	f000 fc84 	bl	8004ab8 <timer_deinit>
 80041b0:	236b      	movs	r3, #107	; 0x6b
 80041b2:	f8ad 300c 	strh.w	r3, [sp, #12]
 80041b6:	f04f 33ff 	mov.w	r3, #4294967295	; 0xffffffff
 80041ba:	a903      	add	r1, sp, #12
 80041bc:	4630      	mov	r0, r6
 80041be:	9305      	str	r3, [sp, #20]
 80041c0:	f000 fcdc 	bl	8004b7c <timer_init>
 80041c4:	4630      	mov	r0, r6
 80041c6:	f000 fd31 	bl	8004c2c <timer_enable>
 80041ca:	f000 fe3f 	bl	8004e4c <gd32_adc_init()>
 80041ce:	2308      	movs	r3, #8
 80041d0:	e9cd 340a 	strd	r3, r4, [sp, #40]	; 0x28
 80041d4:	237a      	movs	r3, #122	; 0x7a
 80041d6:	a807      	add	r0, sp, #28
 80041d8:	930c      	str	r3, [sp, #48]	; 0x30
 80041da:	e9cd 4408 	strd	r4, r4, [sp, #32]
 80041de:	9407      	str	r4, [sp, #28]
 80041e0:	940f      	str	r4, [sp, #60]	; 0x3c
 80041e2:	f000 f8e1 	bl	80043a8 <mktime>
 80041e6:	4621      	mov	r1, r4
 80041e8:	e9cd 0401 	strd	r0, r4, [sp, #4]
 80041ec:	a801      	add	r0, sp, #4
 80041ee:	f000 f927 	bl	8004440 <settimeofday>
 80041f2:	f000 fe85 	bl	8004f00 <gd32_i2c_begin()>
 80041f6:	4628      	mov	r0, r5
 80041f8:	b010      	add	sp, #64	; 0x40
 80041fa:	bd70      	pop	{r4, r5, r6, pc}
 80041fc:	20001808 	andcs	r1, r0, r8, lsl #16
 8004200:	40011000 	andmi	r1, r1, r0

08004204 <operator delete(void*)>:
 8004204:	f000 b84c 	b.w	80042a0 <free>

08004208 <operator new(unsigned int)>:
 8004208:	f000 b800 	b.w	800420c <malloc>

0800420c <malloc>:
 800420c:	b538      	push	{r3, r4, r5, lr}
 800420e:	4604      	mov	r4, r0
 8004210:	4601      	mov	r1, r0
 8004212:	481c      	ldr	r0, [pc, #112]	; (8004284 <malloc+0x78>)
 8004214:	f7fd fc14 	bl	8001a40 <printf>
 8004218:	b17c      	cbz	r4, 800423a <malloc+0x2e>
 800421a:	4b1b      	ldr	r3, [pc, #108]	; (8004288 <malloc+0x7c>)
 800421c:	6818      	ldr	r0, [r3, #0]
 800421e:	b978      	cbnz	r0, 8004240 <malloc+0x34>
 8004220:	4a1a      	ldr	r2, [pc, #104]	; (800428c <malloc+0x80>)
 8004222:	f104 031b 	add.w	r3, r4, #27
 8004226:	6811      	ldr	r1, [r2, #0]
 8004228:	4819      	ldr	r0, [pc, #100]	; (8004290 <malloc+0x84>)
 800422a:	f023 030f 	bic.w	r3, r3, #15
 800422e:	440b      	add	r3, r1
 8004230:	4283      	cmp	r3, r0
 8004232:	d921      	bls.n	8004278 <malloc+0x6c>
 8004234:	4817      	ldr	r0, [pc, #92]	; (8004294 <malloc+0x88>)
 8004236:	f7fd fc03 	bl	8001a40 <printf>
 800423a:	2500      	movs	r5, #0
 800423c:	4628      	mov	r0, r5
 800423e:	bd38      	pop	{r3, r4, r5, pc}
 8004240:	4284      	cmp	r4, r0
 8004242:	d80a      	bhi.n	800425a <malloc+0x4e>
 8004244:	685a      	ldr	r2, [r3, #4]
 8004246:	6899      	ldr	r1, [r3, #8]
 8004248:	3201      	adds	r2, #1
 800424a:	428a      	cmp	r2, r1
 800424c:	605a      	str	r2, [r3, #4]
 800424e:	d900      	bls.n	8004252 <malloc+0x46>
 8004250:	609a      	str	r2, [r3, #8]
 8004252:	68d9      	ldr	r1, [r3, #12]
 8004254:	b919      	cbnz	r1, 800425e <malloc+0x52>
 8004256:	4604      	mov	r4, r0
 8004258:	e7e2      	b.n	8004220 <malloc+0x14>
 800425a:	3310      	adds	r3, #16
 800425c:	e7de      	b.n	800421c <malloc+0x10>
 800425e:	4604      	mov	r4, r0
 8004260:	688a      	ldr	r2, [r1, #8]
 8004262:	60da      	str	r2, [r3, #12]
 8004264:	2300      	movs	r3, #0
 8004266:	f101 050c 	add.w	r5, r1, #12
 800426a:	608b      	str	r3, [r1, #8]
 800426c:	4622      	mov	r2, r4
 800426e:	462b      	mov	r3, r5
 8004270:	4809      	ldr	r0, [pc, #36]	; (8004298 <malloc+0x8c>)
 8004272:	f7fd fbe5 	bl	8001a40 <printf>
 8004276:	e7e1      	b.n	800423c <malloc+0x30>
 8004278:	6013      	str	r3, [r2, #0]
 800427a:	4b08      	ldr	r3, [pc, #32]	; (800429c <malloc+0x90>)
 800427c:	e9c1 3400 	strd	r3, r4, [r1]
 8004280:	e7f0      	b.n	8004264 <malloc+0x58>
 8004282:	bf00      	nop
 8004284:	08005ec4 	stmdaeq	r0, {r2, r6, r7, r9, sl, fp, ip, lr}
 8004288:	20000018 	andcs	r0, r0, r8, lsl r0
 800428c:	20000014 	andcs	r0, r0, r4, lsl r0
 8004290:	2000b000 	andcs	fp, r0, r0
 8004294:	08005ed0 	stmdaeq	r0, {r4, r6, r7, r9, sl, fp, ip, lr}
 8004298:	08005eec 	stmdaeq	r0, {r2, r3, r5, r6, r7, r9, sl, fp, ip, lr}
 800429c:	424c4d43 	submi	r4, ip, #4288	; 0x10c0

080042a0 <free>:
 80042a0:	b538      	push	{r3, r4, r5, lr}
 80042a2:	4604      	mov	r4, r0
 80042a4:	b1c8      	cbz	r0, 80042da <free+0x3a>
 80042a6:	f1a0 050c 	sub.w	r5, r0, #12
 80042aa:	4602      	mov	r2, r0
 80042ac:	4629      	mov	r1, r5
 80042ae:	480c      	ldr	r0, [pc, #48]	; (80042e0 <free+0x40>)
 80042b0:	f7fd fbc6 	bl	8001a40 <printf>
 80042b4:	f854 2c0c 	ldr.w	r2, [r4, #-12]
 80042b8:	4b0a      	ldr	r3, [pc, #40]	; (80042e4 <free+0x44>)
 80042ba:	429a      	cmp	r2, r3
 80042bc:	d10d      	bne.n	80042da <free+0x3a>
 80042be:	4b0a      	ldr	r3, [pc, #40]	; (80042e8 <free+0x48>)
 80042c0:	681a      	ldr	r2, [r3, #0]
 80042c2:	b152      	cbz	r2, 80042da <free+0x3a>
 80042c4:	f854 1c08 	ldr.w	r1, [r4, #-8]
 80042c8:	4291      	cmp	r1, r2
 80042ca:	d107      	bne.n	80042dc <free+0x3c>
 80042cc:	68da      	ldr	r2, [r3, #12]
 80042ce:	f844 2c04 	str.w	r2, [r4, #-4]
 80042d2:	685a      	ldr	r2, [r3, #4]
 80042d4:	60dd      	str	r5, [r3, #12]
 80042d6:	3a01      	subs	r2, #1
 80042d8:	605a      	str	r2, [r3, #4]
 80042da:	bd38      	pop	{r3, r4, r5, pc}
 80042dc:	3310      	adds	r3, #16
 80042de:	e7ef      	b.n	80042c0 <free+0x20>
 80042e0:	08005f17 	stmdaeq	r0, {r0, r1, r2, r4, r8, r9, sl, fp, ip, lr}
 80042e4:	424c4d43 	submi	r4, ip, #4288	; 0x10c0
 80042e8:	20000018 	andcs	r0, r0, r8, lsl r0

080042ec <memcpy>:
 80042ec:	b510      	push	{r4, lr}
 80042ee:	1e43      	subs	r3, r0, #1
 80042f0:	440a      	add	r2, r1
 80042f2:	4291      	cmp	r1, r2
 80042f4:	d100      	bne.n	80042f8 <memcpy+0xc>
 80042f6:	bd10      	pop	{r4, pc}
 80042f8:	f811 4b01 	ldrb.w	r4, [r1], #1
 80042fc:	f803 4f01 	strb.w	r4, [r3, #1]!
 8004300:	e7f7      	b.n	80042f2 <memcpy+0x6>

08004302 <memset>:
 8004302:	b5f0      	push	{r4, r5, r6, r7, lr}
 8004304:	b1e2      	cbz	r2, 8004340 <memset+0x3e>
 8004306:	4603      	mov	r3, r0
 8004308:	b2c9      	uxtb	r1, r1
 800430a:	075c      	lsls	r4, r3, #29
 800430c:	d114      	bne.n	8004338 <memset+0x36>
 800430e:	ea41 2401 	orr.w	r4, r1, r1, lsl #8
 8004312:	ea44 4704 	orr.w	r7, r4, r4, lsl #16
 8004316:	463d      	mov	r5, r7
 8004318:	f022 0407 	bic.w	r4, r2, #7
 800431c:	08d6      	lsrs	r6, r2, #3
 800431e:	441c      	add	r4, r3
 8004320:	42a3      	cmp	r3, r4
 8004322:	d10e      	bne.n	8004342 <memset+0x40>
 8004324:	f06f 0307 	mvn.w	r3, #7
 8004328:	fb03 2206 	mla	r2, r3, r6, r2
 800432c:	4422      	add	r2, r4
 800432e:	4294      	cmp	r4, r2
 8004330:	d006      	beq.n	8004340 <memset+0x3e>
 8004332:	f804 1b01 	strb.w	r1, [r4], #1
 8004336:	e7fa      	b.n	800432e <memset+0x2c>
 8004338:	3a01      	subs	r2, #1
 800433a:	f803 1b01 	strb.w	r1, [r3], #1
 800433e:	d1e4      	bne.n	800430a <memset+0x8>
 8004340:	bdf0      	pop	{r4, r5, r6, r7, pc}
 8004342:	f843 7b08 	str.w	r7, [r3], #8
 8004346:	f843 5c04 	str.w	r5, [r3, #-4]
 800434a:	e7e9      	b.n	8004320 <memset+0x1e>

0800434c <puts>:
 800434c:	b508      	push	{r3, lr}
 800434e:	f7ff fef7 	bl	8004140 <console_puts>
 8004352:	200a      	movs	r0, #10
 8004354:	f7ff fee8 	bl	8004128 <console_putc>
 8004358:	2001      	movs	r0, #1
 800435a:	bd08      	pop	{r3, pc}

0800435c <isleapyear>:
 800435c:	2264      	movs	r2, #100	; 0x64
 800435e:	fb90 f3f2 	sdiv	r3, r0, r2
 8004362:	fb02 0313 	mls	r3, r2, r3, r0
 8004366:	b94b      	cbnz	r3, 800437c <isleapyear+0x20>
 8004368:	f44f 73c8 	mov.w	r3, #400	; 0x190
 800436c:	fb90 f2f3 	sdiv	r2, r0, r3
 8004370:	fb03 0012 	mls	r0, r3, r2, r0
 8004374:	fab0 f080 	clz	r0, r0
 8004378:	0940      	lsrs	r0, r0, #5
 800437a:	4770      	bx	lr
 800437c:	f010 0f03 	tst.w	r0, #3
 8004380:	bf0c      	ite	eq
 8004382:	2001      	moveq	r0, #1
 8004384:	2000      	movne	r0, #0
 8004386:	4770      	bx	lr

08004388 <getdaysofmonth>:
 8004388:	b510      	push	{r4, lr}
 800438a:	4604      	mov	r4, r0
 800438c:	2c01      	cmp	r4, #1
 800438e:	4608      	mov	r0, r1
 8004390:	d102      	bne.n	8004398 <getdaysofmonth+0x10>
 8004392:	f7ff ffe3 	bl	800435c <isleapyear>
 8004396:	b918      	cbnz	r0, 80043a0 <getdaysofmonth+0x18>
 8004398:	4b02      	ldr	r3, [pc, #8]	; (80043a4 <getdaysofmonth+0x1c>)
 800439a:	f853 0024 	ldr.w	r0, [r3, r4, lsl #2]
 800439e:	bd10      	pop	{r4, pc}
 80043a0:	201d      	movs	r0, #29
 80043a2:	e7fc      	b.n	800439e <getdaysofmonth+0x16>
 80043a4:	08005f40 	stmdaeq	r0, {r6, r8, r9, sl, fp, ip, lr}

080043a8 <mktime>:
 80043a8:	e92d 41f0 	stmdb	sp!, {r4, r5, r6, r7, r8, lr}
 80043ac:	4604      	mov	r4, r0
 80043ae:	2800      	cmp	r0, #0
 80043b0:	d042      	beq.n	8004438 <mktime+0x90>
 80043b2:	6941      	ldr	r1, [r0, #20]
 80043b4:	f1a1 0346 	sub.w	r3, r1, #70	; 0x46
 80043b8:	2b45      	cmp	r3, #69	; 0x45
 80043ba:	d83d      	bhi.n	8004438 <mktime+0x90>
 80043bc:	2600      	movs	r6, #0
 80043be:	f240 75b2 	movw	r5, #1970	; 0x7b2
 80043c2:	f240 186d 	movw	r8, #365	; 0x16d
 80043c6:	f201 776b 	addw	r7, r1, #1899	; 0x76b
 80043ca:	42af      	cmp	r7, r5
 80043cc:	da23      	bge.n	8004416 <mktime+0x6e>
 80043ce:	6927      	ldr	r7, [r4, #16]
 80043d0:	2f0b      	cmp	r7, #11
 80043d2:	d831      	bhi.n	8004438 <mktime+0x90>
 80043d4:	2500      	movs	r5, #0
 80043d6:	42af      	cmp	r7, r5
 80043d8:	d128      	bne.n	800442c <mktime+0x84>
 80043da:	68e5      	ldr	r5, [r4, #12]
 80043dc:	2d00      	cmp	r5, #0
 80043de:	dd2b      	ble.n	8004438 <mktime+0x90>
 80043e0:	4638      	mov	r0, r7
 80043e2:	f7ff ffd1 	bl	8004388 <getdaysofmonth>
 80043e6:	4285      	cmp	r5, r0
 80043e8:	dc26      	bgt.n	8004438 <mktime+0x90>
 80043ea:	2318      	movs	r3, #24
 80043ec:	3d01      	subs	r5, #1
 80043ee:	4435      	add	r5, r6
 80043f0:	435d      	muls	r5, r3
 80043f2:	68a3      	ldr	r3, [r4, #8]
 80043f4:	2b17      	cmp	r3, #23
 80043f6:	d81f      	bhi.n	8004438 <mktime+0x90>
 80043f8:	203c      	movs	r0, #60	; 0x3c
 80043fa:	442b      	add	r3, r5
 80043fc:	fb00 f503 	mul.w	r5, r0, r3
 8004400:	6863      	ldr	r3, [r4, #4]
 8004402:	2b3b      	cmp	r3, #59	; 0x3b
 8004404:	d818      	bhi.n	8004438 <mktime+0x90>
 8004406:	442b      	add	r3, r5
 8004408:	4343      	muls	r3, r0
 800440a:	6820      	ldr	r0, [r4, #0]
 800440c:	283b      	cmp	r0, #59	; 0x3b
 800440e:	d813      	bhi.n	8004438 <mktime+0x90>
 8004410:	4418      	add	r0, r3
 8004412:	e8bd 81f0 	ldmia.w	sp!, {r4, r5, r6, r7, r8, pc}
 8004416:	4628      	mov	r0, r5
 8004418:	f7ff ffa0 	bl	800435c <isleapyear>
 800441c:	2800      	cmp	r0, #0
 800441e:	bf14      	ite	ne
 8004420:	f44f 73b7 	movne.w	r3, #366	; 0x16e
 8004424:	4643      	moveq	r3, r8
 8004426:	3501      	adds	r5, #1
 8004428:	441e      	add	r6, r3
 800442a:	e7ce      	b.n	80043ca <mktime+0x22>
 800442c:	4628      	mov	r0, r5
 800442e:	f7ff ffab 	bl	8004388 <getdaysofmonth>
 8004432:	3501      	adds	r5, #1
 8004434:	4406      	add	r6, r0
 8004436:	e7ce      	b.n	80043d6 <mktime+0x2e>
 8004438:	f04f 30ff 	mov.w	r0, #4294967295	; 0xffffffff
 800443c:	e7e9      	b.n	8004412 <mktime+0x6a>
	...

08004440 <settimeofday>:
 8004440:	4b07      	ldr	r3, [pc, #28]	; (8004460 <settimeofday+0x20>)
 8004442:	b510      	push	{r4, lr}
 8004444:	681a      	ldr	r2, [r3, #0]
 8004446:	4b07      	ldr	r3, [pc, #28]	; (8004464 <settimeofday+0x24>)
 8004448:	6804      	ldr	r4, [r0, #0]
 800444a:	601a      	str	r2, [r3, #0]
 800444c:	6843      	ldr	r3, [r0, #4]
 800444e:	4806      	ldr	r0, [pc, #24]	; (8004468 <settimeofday+0x28>)
 8004450:	17da      	asrs	r2, r3, #31
 8004452:	fbc4 3200 	smlal	r3, r2, r4, r0
 8004456:	4905      	ldr	r1, [pc, #20]	; (800446c <settimeofday+0x2c>)
 8004458:	2000      	movs	r0, #0
 800445a:	e9c1 3200 	strd	r3, r2, [r1]
 800445e:	bd10      	pop	{r4, pc}
 8004460:	2000181c 	andcs	r1, r0, ip, lsl r8
 8004464:	20001818 	andcs	r1, r0, r8, lsl r8
 8004468:	000f4240 	andeq	r4, pc, r0, asr #4
 800446c:	20001810 	andcs	r1, r0, r0, lsl r8

08004470 <uart0_init>:
 8004470:	2301      	movs	r3, #1
 8004472:	b507      	push	{r0, r1, r2, lr}
 8004474:	2208      	movs	r2, #8
 8004476:	9300      	str	r3, [sp, #0]
 8004478:	f44f 31e1 	mov.w	r1, #115200	; 0x1c200
 800447c:	2300      	movs	r3, #0
 800447e:	4803      	ldr	r0, [pc, #12]	; (800448c <uart0_init+0x1c>)
 8004480:	f000 fe80 	bl	8005184 <gd32_uart_begin>
 8004484:	b003      	add	sp, #12
 8004486:	f85d fb04 	ldr.w	pc, [sp], #4
 800448a:	bf00      	nop
 800448c:	40013800 	andmi	r3, r1, r0, lsl #16

08004490 <uart0_putc>:
 8004490:	280a      	cmp	r0, #10
 8004492:	b538      	push	{r3, r4, r5, lr}
 8004494:	4604      	mov	r4, r0
 8004496:	d10a      	bne.n	80044ae <uart0_putc+0x1e>
 8004498:	4d0b      	ldr	r5, [pc, #44]	; (80044c8 <uart0_putc+0x38>)
 800449a:	2107      	movs	r1, #7
 800449c:	4628      	mov	r0, r5
 800449e:	f000 fca7 	bl	8004df0 <usart_flag_get>
 80044a2:	2800      	cmp	r0, #0
 80044a4:	d0f9      	beq.n	800449a <uart0_putc+0xa>
 80044a6:	220d      	movs	r2, #13
 80044a8:	4b08      	ldr	r3, [pc, #32]	; (80044cc <uart0_putc+0x3c>)
 80044aa:	f8c3 2804 	str.w	r2, [r3, #2052]	; 0x804
 80044ae:	4d06      	ldr	r5, [pc, #24]	; (80044c8 <uart0_putc+0x38>)
 80044b0:	2107      	movs	r1, #7
 80044b2:	4628      	mov	r0, r5
 80044b4:	f000 fc9c 	bl	8004df0 <usart_flag_get>
 80044b8:	2800      	cmp	r0, #0
 80044ba:	d0f9      	beq.n	80044b0 <uart0_putc+0x20>
 80044bc:	4b03      	ldr	r3, [pc, #12]	; (80044cc <uart0_putc+0x3c>)
 80044be:	b2e4      	uxtb	r4, r4
 80044c0:	f8c3 4804 	str.w	r4, [r3, #2052]	; 0x804
 80044c4:	bd38      	pop	{r3, r4, r5, pc}
 80044c6:	bf00      	nop
 80044c8:	40013800 	andmi	r3, r1, r0, lsl #16
 80044cc:	40013000 	andmi	r3, r1, r0

080044d0 <uart0_puts>:
 80044d0:	b510      	push	{r4, lr}
 80044d2:	1e44      	subs	r4, r0, #1
 80044d4:	f814 3f01 	ldrb.w	r3, [r4, #1]!
 80044d8:	b903      	cbnz	r3, 80044dc <uart0_puts+0xc>
 80044da:	bd10      	pop	{r4, pc}
 80044dc:	2b0a      	cmp	r3, #10
 80044de:	d102      	bne.n	80044e6 <uart0_puts+0x16>
 80044e0:	200d      	movs	r0, #13
 80044e2:	f7ff ffd5 	bl	8004490 <uart0_putc>
 80044e6:	7820      	ldrb	r0, [r4, #0]
 80044e8:	f7ff ffd2 	bl	8004490 <uart0_putc>
 80044ec:	e7f2      	b.n	80044d4 <uart0_puts+0x4>
	...

080044f0 <mac_address_get>:
 80044f0:	2102      	movs	r1, #2
 80044f2:	4a08      	ldr	r2, [pc, #32]	; (8004514 <mac_address_get+0x24>)
 80044f4:	f8d2 37ec 	ldr.w	r3, [r2, #2028]	; 0x7ec
 80044f8:	f8d2 27f0 	ldr.w	r2, [r2, #2032]	; 0x7f0
 80044fc:	7001      	strb	r1, [r0, #0]
 80044fe:	0a19      	lsrs	r1, r3, #8
 8004500:	7041      	strb	r1, [r0, #1]
 8004502:	7102      	strb	r2, [r0, #4]
 8004504:	0c19      	lsrs	r1, r3, #16
 8004506:	0a12      	lsrs	r2, r2, #8
 8004508:	0e1b      	lsrs	r3, r3, #24
 800450a:	7081      	strb	r1, [r0, #2]
 800450c:	70c3      	strb	r3, [r0, #3]
 800450e:	7142      	strb	r2, [r0, #5]
 8004510:	4770      	bx	lr
 8004512:	bf00      	nop
 8004514:	1ffff000 	svcne	0x00fff000

08004518 <systick_config>:
 8004518:	f44f 727a 	mov.w	r2, #1000	; 0x3e8
 800451c:	4b0b      	ldr	r3, [pc, #44]	; (800454c <systick_config+0x34>)
 800451e:	681b      	ldr	r3, [r3, #0]
 8004520:	fbb3 f3f2 	udiv	r3, r3, r2
 8004524:	3b01      	subs	r3, #1
 8004526:	f1b3 7f80 	cmp.w	r3, #16777216	; 0x1000000
 800452a:	d20d      	bcs.n	8004548 <systick_config+0x30>
 800452c:	f04f 22e0 	mov.w	r2, #3758153728	; 0xe000e000
 8004530:	21f0      	movs	r1, #240	; 0xf0
 8004532:	6153      	str	r3, [r2, #20]
 8004534:	4b06      	ldr	r3, [pc, #24]	; (8004550 <systick_config+0x38>)
 8004536:	2007      	movs	r0, #7
 8004538:	f883 1023 	strb.w	r1, [r3, #35]	; 0x23
 800453c:	2100      	movs	r1, #0
 800453e:	6191      	str	r1, [r2, #24]
 8004540:	6110      	str	r0, [r2, #16]
 8004542:	f883 1023 	strb.w	r1, [r3, #35]	; 0x23
 8004546:	4770      	bx	lr
 8004548:	e7fe      	b.n	8004548 <systick_config+0x30>
 800454a:	bf00      	nop
 800454c:	200000e8 	andcs	r0, r0, r8, ror #1
 8004550:	e000ed00 	and	lr, r0, r0, lsl #26

08004554 <SysTick_Handler>:
 8004554:	4a02      	ldr	r2, [pc, #8]	; (8004560 <SysTick_Handler+0xc>)
 8004556:	6813      	ldr	r3, [r2, #0]
 8004558:	3301      	adds	r3, #1
 800455a:	6013      	str	r3, [r2, #0]
 800455c:	4770      	bx	lr
 800455e:	bf00      	nop
 8004560:	2000181c 	andcs	r1, r0, ip, lsl r8

08004564 <SystemInit>:
 8004564:	4b32      	ldr	r3, [pc, #200]	; (8004630 <SystemInit+0xcc>)
 8004566:	4933      	ldr	r1, [pc, #204]	; (8004634 <SystemInit+0xd0>)
 8004568:	681a      	ldr	r2, [r3, #0]
 800456a:	f042 0201 	orr.w	r2, r2, #1
 800456e:	601a      	str	r2, [r3, #0]
 8004570:	685a      	ldr	r2, [r3, #4]
 8004572:	f022 0203 	bic.w	r2, r2, #3
 8004576:	605a      	str	r2, [r3, #4]
 8004578:	681a      	ldr	r2, [r3, #0]
 800457a:	400a      	ands	r2, r1
 800457c:	601a      	str	r2, [r3, #0]
 800457e:	6858      	ldr	r0, [r3, #4]
 8004580:	4a2d      	ldr	r2, [pc, #180]	; (8004638 <SystemInit+0xd4>)
 8004582:	4002      	ands	r2, r0
 8004584:	605a      	str	r2, [r3, #4]
 8004586:	681a      	ldr	r2, [r3, #0]
 8004588:	400a      	ands	r2, r1
 800458a:	601a      	str	r2, [r3, #0]
 800458c:	681a      	ldr	r2, [r3, #0]
 800458e:	f422 2280 	bic.w	r2, r2, #262144	; 0x40000
 8004592:	601a      	str	r2, [r3, #0]
 8004594:	685a      	ldr	r2, [r3, #4]
 8004596:	f022 620f 	bic.w	r2, r2, #149946368	; 0x8f00000
 800459a:	f422 2270 	bic.w	r2, r2, #983040	; 0xf0000
 800459e:	605a      	str	r2, [r3, #4]
 80045a0:	681a      	ldr	r2, [r3, #0]
 80045a2:	400a      	ands	r2, r1
 80045a4:	601a      	str	r2, [r3, #0]
 80045a6:	f44f 021f 	mov.w	r2, #10420224	; 0x9f0000
 80045aa:	609a      	str	r2, [r3, #8]
 80045ac:	681a      	ldr	r2, [r3, #0]
 80045ae:	f442 3280 	orr.w	r2, r2, #65536	; 0x10000
 80045b2:	601a      	str	r2, [r3, #0]
 80045b4:	f64f 72ff 	movw	r2, #65535	; 0xffff
 80045b8:	6819      	ldr	r1, [r3, #0]
 80045ba:	0389      	lsls	r1, r1, #14
 80045bc:	d401      	bmi.n	80045c2 <SystemInit+0x5e>
 80045be:	3a01      	subs	r2, #1
 80045c0:	d1fa      	bne.n	80045b8 <SystemInit+0x54>
 80045c2:	681a      	ldr	r2, [r3, #0]
 80045c4:	0390      	lsls	r0, r2, #14
 80045c6:	d400      	bmi.n	80045ca <SystemInit+0x66>
 80045c8:	e7fe      	b.n	80045c8 <SystemInit+0x64>
 80045ca:	685a      	ldr	r2, [r3, #4]
 80045cc:	605a      	str	r2, [r3, #4]
 80045ce:	685a      	ldr	r2, [r3, #4]
 80045d0:	605a      	str	r2, [r3, #4]
 80045d2:	685a      	ldr	r2, [r3, #4]
 80045d4:	f442 6280 	orr.w	r2, r2, #1024	; 0x400
 80045d8:	605a      	str	r2, [r3, #4]
 80045da:	685a      	ldr	r2, [r3, #4]
 80045dc:	f422 3240 	bic.w	r2, r2, #196608	; 0x30000
 80045e0:	605a      	str	r2, [r3, #4]
 80045e2:	685a      	ldr	r2, [r3, #4]
 80045e4:	f442 3240 	orr.w	r2, r2, #196608	; 0x30000
 80045e8:	605a      	str	r2, [r3, #4]
 80045ea:	685a      	ldr	r2, [r3, #4]
 80045ec:	f022 6203 	bic.w	r2, r2, #137363456	; 0x8300000
 80045f0:	f422 2240 	bic.w	r2, r2, #786432	; 0xc0000
 80045f4:	605a      	str	r2, [r3, #4]
 80045f6:	685a      	ldr	r2, [r3, #4]
 80045f8:	f042 6202 	orr.w	r2, r2, #136314880	; 0x8200000
 80045fc:	f442 2200 	orr.w	r2, r2, #524288	; 0x80000
 8004600:	605a      	str	r2, [r3, #4]
 8004602:	681a      	ldr	r2, [r3, #0]
 8004604:	f042 7280 	orr.w	r2, r2, #16777216	; 0x1000000
 8004608:	601a      	str	r2, [r3, #0]
 800460a:	681a      	ldr	r2, [r3, #0]
 800460c:	0191      	lsls	r1, r2, #6
 800460e:	d5fc      	bpl.n	800460a <SystemInit+0xa6>
 8004610:	685a      	ldr	r2, [r3, #4]
 8004612:	f022 0203 	bic.w	r2, r2, #3
 8004616:	605a      	str	r2, [r3, #4]
 8004618:	685a      	ldr	r2, [r3, #4]
 800461a:	f042 0202 	orr.w	r2, r2, #2
 800461e:	605a      	str	r2, [r3, #4]
 8004620:	685a      	ldr	r2, [r3, #4]
 8004622:	0712      	lsls	r2, r2, #28
 8004624:	d5fc      	bpl.n	8004620 <SystemInit+0xbc>
 8004626:	2100      	movs	r1, #0
 8004628:	f04f 6000 	mov.w	r0, #134217728	; 0x8000000
 800462c:	f000 b994 	b.w	8004958 <nvic_vector_table_set>
 8004630:	40021000 	andmi	r1, r2, r0
 8004634:	fef6ffff 	mrc2	15, 7, pc, cr6, cr15, {7}
 8004638:	e8ff000c 	ldm	pc!, {r2, r3}^	; <UNPREDICTABLE>

0800463c <dma_deinit>:
 800463c:	4b0c      	ldr	r3, [pc, #48]	; (8004670 <dma_deinit+0x34>)
 800463e:	4298      	cmp	r0, r3
 8004640:	d102      	bne.n	8004648 <dma_deinit+0xc>
 8004642:	2904      	cmp	r1, #4
 8004644:	d900      	bls.n	8004648 <dma_deinit+0xc>
 8004646:	e7fe      	b.n	8004646 <dma_deinit+0xa>
 8004648:	2314      	movs	r3, #20
 800464a:	fb03 0301 	mla	r3, r3, r1, r0
 800464e:	689a      	ldr	r2, [r3, #8]
 8004650:	0089      	lsls	r1, r1, #2
 8004652:	f022 0201 	bic.w	r2, r2, #1
 8004656:	609a      	str	r2, [r3, #8]
 8004658:	2200      	movs	r2, #0
 800465a:	609a      	str	r2, [r3, #8]
 800465c:	60da      	str	r2, [r3, #12]
 800465e:	611a      	str	r2, [r3, #16]
 8004660:	615a      	str	r2, [r3, #20]
 8004662:	230f      	movs	r3, #15
 8004664:	6842      	ldr	r2, [r0, #4]
 8004666:	fa03 f101 	lsl.w	r1, r3, r1
 800466a:	4311      	orrs	r1, r2
 800466c:	6041      	str	r1, [r0, #4]
 800466e:	4770      	bx	lr
 8004670:	40020400 	andmi	r0, r2, r0, lsl #8

08004674 <dma_init>:
 8004674:	4b1b      	ldr	r3, [pc, #108]	; (80046e4 <dma_init+0x70>)
 8004676:	b510      	push	{r4, lr}
 8004678:	4298      	cmp	r0, r3
 800467a:	d102      	bne.n	8004682 <dma_init+0xe>
 800467c:	2904      	cmp	r1, #4
 800467e:	d900      	bls.n	8004682 <dma_init+0xe>
 8004680:	e7fe      	b.n	8004680 <dma_init+0xc>
 8004682:	2314      	movs	r3, #20
 8004684:	fb03 0101 	mla	r1, r3, r1, r0
 8004688:	6813      	ldr	r3, [r2, #0]
 800468a:	610b      	str	r3, [r1, #16]
 800468c:	6893      	ldr	r3, [r2, #8]
 800468e:	614b      	str	r3, [r1, #20]
 8004690:	8a13      	ldrh	r3, [r2, #16]
 8004692:	60cb      	str	r3, [r1, #12]
 8004694:	68d4      	ldr	r4, [r2, #12]
 8004696:	6853      	ldr	r3, [r2, #4]
 8004698:	6888      	ldr	r0, [r1, #8]
 800469a:	4323      	orrs	r3, r4
 800469c:	6954      	ldr	r4, [r2, #20]
 800469e:	f420 507c 	bic.w	r0, r0, #16128	; 0x3f00
 80046a2:	4323      	orrs	r3, r4
 80046a4:	4303      	orrs	r3, r0
 80046a6:	608b      	str	r3, [r1, #8]
 80046a8:	7e13      	ldrb	r3, [r2, #24]
 80046aa:	2b01      	cmp	r3, #1
 80046ac:	688b      	ldr	r3, [r1, #8]
 80046ae:	bf0c      	ite	eq
 80046b0:	f043 0340 	orreq.w	r3, r3, #64	; 0x40
 80046b4:	f023 0340 	bicne.w	r3, r3, #64	; 0x40
 80046b8:	608b      	str	r3, [r1, #8]
 80046ba:	7e53      	ldrb	r3, [r2, #25]
 80046bc:	2b01      	cmp	r3, #1
 80046be:	688b      	ldr	r3, [r1, #8]
 80046c0:	bf0c      	ite	eq
 80046c2:	f043 0380 	orreq.w	r3, r3, #128	; 0x80
 80046c6:	f023 0380 	bicne.w	r3, r3, #128	; 0x80
 80046ca:	608b      	str	r3, [r1, #8]
 80046cc:	7e93      	ldrb	r3, [r2, #26]
 80046ce:	b923      	cbnz	r3, 80046da <dma_init+0x66>
 80046d0:	688b      	ldr	r3, [r1, #8]
 80046d2:	f023 0310 	bic.w	r3, r3, #16
 80046d6:	608b      	str	r3, [r1, #8]
 80046d8:	bd10      	pop	{r4, pc}
 80046da:	688b      	ldr	r3, [r1, #8]
 80046dc:	f043 0310 	orr.w	r3, r3, #16
 80046e0:	e7f9      	b.n	80046d6 <dma_init+0x62>
 80046e2:	bf00      	nop
 80046e4:	40020400 	andmi	r0, r2, r0, lsl #8

080046e8 <dma_circulation_disable>:
 80046e8:	4b06      	ldr	r3, [pc, #24]	; (8004704 <dma_circulation_disable+0x1c>)
 80046ea:	4298      	cmp	r0, r3
 80046ec:	d102      	bne.n	80046f4 <dma_circulation_disable+0xc>
 80046ee:	2904      	cmp	r1, #4
 80046f0:	d900      	bls.n	80046f4 <dma_circulation_disable+0xc>
 80046f2:	e7fe      	b.n	80046f2 <dma_circulation_disable+0xa>
 80046f4:	2314      	movs	r3, #20
 80046f6:	4359      	muls	r1, r3
 80046f8:	3008      	adds	r0, #8
 80046fa:	580b      	ldr	r3, [r1, r0]
 80046fc:	f023 0320 	bic.w	r3, r3, #32
 8004700:	500b      	str	r3, [r1, r0]
 8004702:	4770      	bx	lr
 8004704:	40020400 	andmi	r0, r2, r0, lsl #8

08004708 <dma_memory_to_memory_disable>:
 8004708:	4b06      	ldr	r3, [pc, #24]	; (8004724 <dma_memory_to_memory_disable+0x1c>)
 800470a:	4298      	cmp	r0, r3
 800470c:	d102      	bne.n	8004714 <dma_memory_to_memory_disable+0xc>
 800470e:	2904      	cmp	r1, #4
 8004710:	d900      	bls.n	8004714 <dma_memory_to_memory_disable+0xc>
 8004712:	e7fe      	b.n	8004712 <dma_memory_to_memory_disable+0xa>
 8004714:	2314      	movs	r3, #20
 8004716:	4359      	muls	r1, r3
 8004718:	3008      	adds	r0, #8
 800471a:	580b      	ldr	r3, [r1, r0]
 800471c:	f423 4380 	bic.w	r3, r3, #16384	; 0x4000
 8004720:	500b      	str	r3, [r1, r0]
 8004722:	4770      	bx	lr
 8004724:	40020400 	andmi	r0, r2, r0, lsl #8

08004728 <fmc_bank0_unlock>:
 8004728:	4b04      	ldr	r3, [pc, #16]	; (800473c <fmc_bank0_unlock+0x14>)
 800472a:	691a      	ldr	r2, [r3, #16]
 800472c:	0612      	lsls	r2, r2, #24
 800472e:	bf41      	itttt	mi
 8004730:	4a03      	ldrmi	r2, [pc, #12]	; (8004740 <fmc_bank0_unlock+0x18>)
 8004732:	605a      	strmi	r2, [r3, #4]
 8004734:	f102 3288 	addmi.w	r2, r2, #2290649224	; 0x88888888
 8004738:	605a      	strmi	r2, [r3, #4]
 800473a:	4770      	bx	lr
 800473c:	40022000 	andmi	r2, r2, r0
 8004740:	45670123 	strbmi	r0, [r7, #-291]!	; 0xfffffedd

08004744 <fmc_bank1_unlock>:
 8004744:	4b04      	ldr	r3, [pc, #16]	; (8004758 <fmc_bank1_unlock+0x14>)
 8004746:	6d1a      	ldr	r2, [r3, #80]	; 0x50
 8004748:	0612      	lsls	r2, r2, #24
 800474a:	bf41      	itttt	mi
 800474c:	4a03      	ldrmi	r2, [pc, #12]	; (800475c <fmc_bank1_unlock+0x18>)
 800474e:	645a      	strmi	r2, [r3, #68]	; 0x44
 8004750:	f102 3288 	addmi.w	r2, r2, #2290649224	; 0x88888888
 8004754:	645a      	strmi	r2, [r3, #68]	; 0x44
 8004756:	4770      	bx	lr
 8004758:	40022000 	andmi	r2, r2, r0
 800475c:	45670123 	strbmi	r0, [r7, #-291]!	; 0xfffffedd

08004760 <fmc_bank0_lock>:
 8004760:	4a02      	ldr	r2, [pc, #8]	; (800476c <fmc_bank0_lock+0xc>)
 8004762:	6913      	ldr	r3, [r2, #16]
 8004764:	f043 0380 	orr.w	r3, r3, #128	; 0x80
 8004768:	6113      	str	r3, [r2, #16]
 800476a:	4770      	bx	lr
 800476c:	40022000 	andmi	r2, r2, r0

08004770 <fmc_bank1_lock>:
 8004770:	4a02      	ldr	r2, [pc, #8]	; (800477c <fmc_bank1_lock+0xc>)
 8004772:	6d13      	ldr	r3, [r2, #80]	; 0x50
 8004774:	f043 0380 	orr.w	r3, r3, #128	; 0x80
 8004778:	6513      	str	r3, [r2, #80]	; 0x50
 800477a:	4770      	bx	lr
 800477c:	40022000 	andmi	r2, r2, r0

08004780 <fmc_bank0_state_get>:
 8004780:	4b08      	ldr	r3, [pc, #32]	; (80047a4 <fmc_bank0_state_get+0x24>)
 8004782:	68da      	ldr	r2, [r3, #12]
 8004784:	07d1      	lsls	r1, r2, #31
 8004786:	d409      	bmi.n	800479c <fmc_bank0_state_get+0x1c>
 8004788:	68da      	ldr	r2, [r3, #12]
 800478a:	06d2      	lsls	r2, r2, #27
 800478c:	d408      	bmi.n	80047a0 <fmc_bank0_state_get+0x20>
 800478e:	68db      	ldr	r3, [r3, #12]
 8004790:	f013 0f04 	tst.w	r3, #4
 8004794:	bf0c      	ite	eq
 8004796:	2000      	moveq	r0, #0
 8004798:	2002      	movne	r0, #2
 800479a:	4770      	bx	lr
 800479c:	2001      	movs	r0, #1
 800479e:	4770      	bx	lr
 80047a0:	2003      	movs	r0, #3
 80047a2:	4770      	bx	lr
 80047a4:	40022000 	andmi	r2, r2, r0

080047a8 <fmc_bank1_state_get>:
 80047a8:	4b08      	ldr	r3, [pc, #32]	; (80047cc <fmc_bank1_state_get+0x24>)
 80047aa:	6cda      	ldr	r2, [r3, #76]	; 0x4c
 80047ac:	07d1      	lsls	r1, r2, #31
 80047ae:	d409      	bmi.n	80047c4 <fmc_bank1_state_get+0x1c>
 80047b0:	6cda      	ldr	r2, [r3, #76]	; 0x4c
 80047b2:	06d2      	lsls	r2, r2, #27
 80047b4:	d408      	bmi.n	80047c8 <fmc_bank1_state_get+0x20>
 80047b6:	6cdb      	ldr	r3, [r3, #76]	; 0x4c
 80047b8:	f013 0f04 	tst.w	r3, #4
 80047bc:	bf0c      	ite	eq
 80047be:	2000      	moveq	r0, #0
 80047c0:	2002      	movne	r0, #2
 80047c2:	4770      	bx	lr
 80047c4:	2001      	movs	r0, #1
 80047c6:	4770      	bx	lr
 80047c8:	2003      	movs	r0, #3
 80047ca:	4770      	bx	lr
 80047cc:	40022000 	andmi	r2, r2, r0

080047d0 <fwdgt_enable>:
 80047d0:	f64c 42cc 	movw	r2, #52428	; 0xcccc
 80047d4:	4b01      	ldr	r3, [pc, #4]	; (80047dc <fwdgt_enable+0xc>)
 80047d6:	601a      	str	r2, [r3, #0]
 80047d8:	4770      	bx	lr
 80047da:	bf00      	nop
 80047dc:	40003000 	andmi	r3, r0, r0

080047e0 <fwdgt_counter_reload>:
 80047e0:	f64a 22aa 	movw	r2, #43690	; 0xaaaa
 80047e4:	4b01      	ldr	r3, [pc, #4]	; (80047ec <fwdgt_counter_reload+0xc>)
 80047e6:	601a      	str	r2, [r3, #0]
 80047e8:	4770      	bx	lr
 80047ea:	bf00      	nop
 80047ec:	40003000 	andmi	r3, r0, r0

080047f0 <fwdgt_config>:
 80047f0:	f245 5355 	movw	r3, #21845	; 0x5555
 80047f4:	4a11      	ldr	r2, [pc, #68]	; (800483c <fwdgt_config+0x4c>)
 80047f6:	b510      	push	{r4, lr}
 80047f8:	4c11      	ldr	r4, [pc, #68]	; (8004840 <fwdgt_config+0x50>)
 80047fa:	6013      	str	r3, [r2, #0]
 80047fc:	68d3      	ldr	r3, [r2, #12]
 80047fe:	3c01      	subs	r4, #1
 8004800:	f003 0301 	and.w	r3, r3, #1
 8004804:	d013      	beq.n	800482e <fwdgt_config+0x3e>
 8004806:	2b00      	cmp	r3, #0
 8004808:	d1f8      	bne.n	80047fc <fwdgt_config+0xc>
 800480a:	6051      	str	r1, [r2, #4]
 800480c:	490c      	ldr	r1, [pc, #48]	; (8004840 <fwdgt_config+0x50>)
 800480e:	4a0b      	ldr	r2, [pc, #44]	; (800483c <fwdgt_config+0x4c>)
 8004810:	68d3      	ldr	r3, [r2, #12]
 8004812:	3901      	subs	r1, #1
 8004814:	f003 0302 	and.w	r3, r3, #2
 8004818:	d00d      	beq.n	8004836 <fwdgt_config+0x46>
 800481a:	2b00      	cmp	r3, #0
 800481c:	d1f8      	bne.n	8004810 <fwdgt_config+0x20>
 800481e:	f64a 23aa 	movw	r3, #43690	; 0xaaaa
 8004822:	f3c0 000b 	ubfx	r0, r0, #0, #12
 8004826:	6090      	str	r0, [r2, #8]
 8004828:	2001      	movs	r0, #1
 800482a:	6013      	str	r3, [r2, #0]
 800482c:	e002      	b.n	8004834 <fwdgt_config+0x44>
 800482e:	2b00      	cmp	r3, #0
 8004830:	d0eb      	beq.n	800480a <fwdgt_config+0x1a>
 8004832:	2000      	movs	r0, #0
 8004834:	bd10      	pop	{r4, pc}
 8004836:	2b00      	cmp	r3, #0
 8004838:	d1fb      	bne.n	8004832 <fwdgt_config+0x42>
 800483a:	e7f0      	b.n	800481e <fwdgt_config+0x2e>
 800483c:	40003000 	andmi	r3, r0, r0
 8004840:	000fffff 	strdeq	pc, [pc], -pc	; <UNPREDICTABLE>

08004844 <gpio_init>:
 8004844:	e92d 41f0 	stmdb	sp!, {r4, r5, r6, r7, r8, lr}
 8004848:	f04f 0c0f 	mov.w	ip, #15
 800484c:	06cf      	lsls	r7, r1, #27
 800484e:	f04f 0400 	mov.w	r4, #0
 8004852:	f04f 0701 	mov.w	r7, #1
 8004856:	f001 050f 	and.w	r5, r1, #15
 800485a:	bf48      	it	mi
 800485c:	4315      	orrmi	r5, r2
 800485e:	fa23 f204 	lsr.w	r2, r3, r4
 8004862:	07d6      	lsls	r6, r2, #31
 8004864:	d510      	bpl.n	8004888 <gpio_init+0x44>
 8004866:	00a2      	lsls	r2, r4, #2
 8004868:	6806      	ldr	r6, [r0, #0]
 800486a:	fa0c fe02 	lsl.w	lr, ip, r2
 800486e:	ea26 060e 	bic.w	r6, r6, lr
 8004872:	fa05 f202 	lsl.w	r2, r5, r2
 8004876:	2928      	cmp	r1, #40	; 0x28
 8004878:	ea42 0206 	orr.w	r2, r2, r6
 800487c:	d128      	bne.n	80048d0 <gpio_init+0x8c>
 800487e:	fa07 f604 	lsl.w	r6, r7, r4
 8004882:	401e      	ands	r6, r3
 8004884:	6146      	str	r6, [r0, #20]
 8004886:	6002      	str	r2, [r0, #0]
 8004888:	3401      	adds	r4, #1
 800488a:	2c08      	cmp	r4, #8
 800488c:	d1e7      	bne.n	800485e <gpio_init+0x1a>
 800488e:	2600      	movs	r6, #0
 8004890:	f04f 0c0f 	mov.w	ip, #15
 8004894:	2701      	movs	r7, #1
 8004896:	f106 0208 	add.w	r2, r6, #8
 800489a:	fa23 f402 	lsr.w	r4, r3, r2
 800489e:	07e4      	lsls	r4, r4, #31
 80048a0:	d511      	bpl.n	80048c6 <gpio_init+0x82>
 80048a2:	00b4      	lsls	r4, r6, #2
 80048a4:	f8d0 e004 	ldr.w	lr, [r0, #4]
 80048a8:	fa0c f804 	lsl.w	r8, ip, r4
 80048ac:	ea2e 0e08 	bic.w	lr, lr, r8
 80048b0:	fa05 f404 	lsl.w	r4, r5, r4
 80048b4:	2928      	cmp	r1, #40	; 0x28
 80048b6:	ea44 040e 	orr.w	r4, r4, lr
 80048ba:	d110      	bne.n	80048de <gpio_init+0x9a>
 80048bc:	fa07 f202 	lsl.w	r2, r7, r2
 80048c0:	401a      	ands	r2, r3
 80048c2:	6142      	str	r2, [r0, #20]
 80048c4:	6044      	str	r4, [r0, #4]
 80048c6:	3601      	adds	r6, #1
 80048c8:	2e08      	cmp	r6, #8
 80048ca:	d1e4      	bne.n	8004896 <gpio_init+0x52>
 80048cc:	e8bd 81f0 	ldmia.w	sp!, {r4, r5, r6, r7, r8, pc}
 80048d0:	2948      	cmp	r1, #72	; 0x48
 80048d2:	bf02      	ittt	eq
 80048d4:	fa07 f604 	lsleq.w	r6, r7, r4
 80048d8:	401e      	andeq	r6, r3
 80048da:	6106      	streq	r6, [r0, #16]
 80048dc:	e7d3      	b.n	8004886 <gpio_init+0x42>
 80048de:	2948      	cmp	r1, #72	; 0x48
 80048e0:	bf02      	ittt	eq
 80048e2:	fa07 f202 	lsleq.w	r2, r7, r2
 80048e6:	401a      	andeq	r2, r3
 80048e8:	6102      	streq	r2, [r0, #16]
 80048ea:	e7eb      	b.n	80048c4 <gpio_init+0x80>

080048ec <gpio_input_bit_get>:
 80048ec:	6883      	ldr	r3, [r0, #8]
 80048ee:	420b      	tst	r3, r1
 80048f0:	bf14      	ite	ne
 80048f2:	2001      	movne	r0, #1
 80048f4:	2000      	moveq	r0, #0
 80048f6:	4770      	bx	lr

080048f8 <gpio_pin_remap_config>:
 80048f8:	2800      	cmp	r0, #0
 80048fa:	4a16      	ldr	r2, [pc, #88]	; (8004954 <gpio_pin_remap_config+0x5c>)
 80048fc:	b530      	push	{r4, r5, lr}
 80048fe:	f400 1540 	and.w	r5, r0, #3145728	; 0x300000
 8004902:	bfb4      	ite	lt
 8004904:	69d3      	ldrlt	r3, [r2, #28]
 8004906:	6853      	ldrge	r3, [r2, #4]
 8004908:	f5b5 1f40 	cmp.w	r5, #3145728	; 0x300000
 800490c:	b284      	uxth	r4, r0
 800490e:	d110      	bne.n	8004932 <gpio_pin_remap_config+0x3a>
 8004910:	6855      	ldr	r5, [r2, #4]
 8004912:	f023 6370 	bic.w	r3, r3, #251658240	; 0xf000000
 8004916:	f025 6570 	bic.w	r5, r5, #251658240	; 0xf000000
 800491a:	6055      	str	r5, [r2, #4]
 800491c:	b119      	cbz	r1, 8004926 <gpio_pin_remap_config+0x2e>
 800491e:	0d42      	lsrs	r2, r0, #21
 8004920:	0112      	lsls	r2, r2, #4
 8004922:	4094      	lsls	r4, r2
 8004924:	4323      	orrs	r3, r4
 8004926:	4a0b      	ldr	r2, [pc, #44]	; (8004954 <gpio_pin_remap_config+0x5c>)
 8004928:	2800      	cmp	r0, #0
 800492a:	bfb4      	ite	lt
 800492c:	61d3      	strlt	r3, [r2, #28]
 800492e:	6053      	strge	r3, [r2, #4]
 8004930:	bd30      	pop	{r4, r5, pc}
 8004932:	02c2      	lsls	r2, r0, #11
 8004934:	bf4d      	iteet	mi
 8004936:	2203      	movmi	r2, #3
 8004938:	0d42      	lsrpl	r2, r0, #21
 800493a:	0112      	lslpl	r2, r2, #4
 800493c:	f3c0 4503 	ubfxmi	r5, r0, #16, #4
 8004940:	bf4c      	ite	mi
 8004942:	40aa      	lslmi	r2, r5
 8004944:	fa04 f202 	lslpl.w	r2, r4, r2
 8004948:	ea23 0302 	bic.w	r3, r3, r2
 800494c:	f043 6370 	orr.w	r3, r3, #251658240	; 0xf000000
 8004950:	e7e4      	b.n	800491c <gpio_pin_remap_config+0x24>
 8004952:	bf00      	nop
 8004954:	40010000 	andmi	r0, r1, r0

08004958 <nvic_vector_table_set>:
 8004958:	f021 4160 	bic.w	r1, r1, #3758096384	; 0xe0000000
 800495c:	4b02      	ldr	r3, [pc, #8]	; (8004968 <nvic_vector_table_set+0x10>)
 800495e:	f021 017f 	bic.w	r1, r1, #127	; 0x7f
 8004962:	4301      	orrs	r1, r0
 8004964:	6099      	str	r1, [r3, #8]
 8004966:	4770      	bx	lr
 8004968:	e000ed00 	and	lr, r0, r0, lsl #26

0800496c <rcu_periph_clock_enable>:
 800496c:	2201      	movs	r2, #1
 800496e:	0983      	lsrs	r3, r0, #6
 8004970:	f103 4380 	add.w	r3, r3, #1073741824	; 0x40000000
 8004974:	f503 3304 	add.w	r3, r3, #135168	; 0x21000
 8004978:	6819      	ldr	r1, [r3, #0]
 800497a:	f000 001f 	and.w	r0, r0, #31
 800497e:	fa02 f000 	lsl.w	r0, r2, r0
 8004982:	4308      	orrs	r0, r1
 8004984:	6018      	str	r0, [r3, #0]
 8004986:	4770      	bx	lr

08004988 <rcu_periph_clock_disable>:
 8004988:	2101      	movs	r1, #1
 800498a:	0983      	lsrs	r3, r0, #6
 800498c:	f103 4380 	add.w	r3, r3, #1073741824	; 0x40000000
 8004990:	f503 3304 	add.w	r3, r3, #135168	; 0x21000
 8004994:	681a      	ldr	r2, [r3, #0]
 8004996:	f000 001f 	and.w	r0, r0, #31
 800499a:	fa01 f000 	lsl.w	r0, r1, r0
 800499e:	ea22 0000 	bic.w	r0, r2, r0
 80049a2:	6018      	str	r0, [r3, #0]
 80049a4:	4770      	bx	lr

080049a6 <rcu_periph_reset_enable>:
 80049a6:	f7ff bfe1 	b.w	800496c <rcu_periph_clock_enable>

080049aa <rcu_periph_reset_disable>:
 80049aa:	f7ff bfed 	b.w	8004988 <rcu_periph_clock_disable>
	...

080049b0 <rcu_adc_clock_config>:
 80049b0:	490c      	ldr	r1, [pc, #48]	; (80049e4 <rcu_adc_clock_config+0x34>)
 80049b2:	2805      	cmp	r0, #5
 80049b4:	684b      	ldr	r3, [r1, #4]
 80049b6:	f023 5380 	bic.w	r3, r3, #268435456	; 0x10000000
 80049ba:	f423 4340 	bic.w	r3, r3, #49152	; 0xc000
 80049be:	d006      	beq.n	80049ce <rcu_adc_clock_config+0x1e>
 80049c0:	d803      	bhi.n	80049ca <rcu_adc_clock_config+0x1a>
 80049c2:	2804      	cmp	r0, #4
 80049c4:	d10a      	bne.n	80049dc <rcu_adc_clock_config+0x2c>
 80049c6:	604b      	str	r3, [r1, #4]
 80049c8:	4770      	bx	lr
 80049ca:	2807      	cmp	r0, #7
 80049cc:	d1fb      	bne.n	80049c6 <rcu_adc_clock_config+0x16>
 80049ce:	4a06      	ldr	r2, [pc, #24]	; (80049e8 <rcu_adc_clock_config+0x38>)
 80049d0:	ea02 3080 	and.w	r0, r2, r0, lsl #14
 80049d4:	4303      	orrs	r3, r0
 80049d6:	f043 5380 	orr.w	r3, r3, #268435456	; 0x10000000
 80049da:	e7f4      	b.n	80049c6 <rcu_adc_clock_config+0x16>
 80049dc:	ea43 3380 	orr.w	r3, r3, r0, lsl #14
 80049e0:	e7f1      	b.n	80049c6 <rcu_adc_clock_config+0x16>
 80049e2:	bf00      	nop
 80049e4:	40021000 	andmi	r1, r2, r0
 80049e8:	fffec000 			; <UNDEFINED> instruction: 0xfffec000

080049ec <rcu_clock_freq_get>:
 80049ec:	4b2e      	ldr	r3, [pc, #184]	; (8004aa8 <rcu_clock_freq_get+0xbc>)
 80049ee:	b5f0      	push	{r4, r5, r6, r7, lr}
 80049f0:	4604      	mov	r4, r0
 80049f2:	461f      	mov	r7, r3
 80049f4:	b089      	sub	sp, #36	; 0x24
 80049f6:	ad04      	add	r5, sp, #16
 80049f8:	f103 0610 	add.w	r6, r3, #16
 80049fc:	462a      	mov	r2, r5
 80049fe:	6818      	ldr	r0, [r3, #0]
 8004a00:	6859      	ldr	r1, [r3, #4]
 8004a02:	3308      	adds	r3, #8
 8004a04:	c203      	stmia	r2!, {r0, r1}
 8004a06:	42b3      	cmp	r3, r6
 8004a08:	4615      	mov	r5, r2
 8004a0a:	d1f7      	bne.n	80049fc <rcu_clock_freq_get+0x10>
 8004a0c:	466b      	mov	r3, sp
 8004a0e:	6871      	ldr	r1, [r6, #4]
 8004a10:	6938      	ldr	r0, [r7, #16]
 8004a12:	c303      	stmia	r3!, {r0, r1}
 8004a14:	c303      	stmia	r3!, {r0, r1}
 8004a16:	4925      	ldr	r1, [pc, #148]	; (8004aac <rcu_clock_freq_get+0xc0>)
 8004a18:	684b      	ldr	r3, [r1, #4]
 8004a1a:	f3c3 0381 	ubfx	r3, r3, #2, #2
 8004a1e:	2b02      	cmp	r3, #2
 8004a20:	d136      	bne.n	8004a90 <rcu_clock_freq_get+0xa4>
 8004a22:	684b      	ldr	r3, [r1, #4]
 8004a24:	03dd      	lsls	r5, r3, #15
 8004a26:	d510      	bpl.n	8004a4a <rcu_clock_freq_get+0x5e>
 8004a28:	684b      	ldr	r3, [r1, #4]
 8004a2a:	4a21      	ldr	r2, [pc, #132]	; (8004ab0 <rcu_clock_freq_get+0xc4>)
 8004a2c:	f413 3f00 	tst.w	r3, #131072	; 0x20000
 8004a30:	4b20      	ldr	r3, [pc, #128]	; (8004ab4 <rcu_clock_freq_get+0xc8>)
 8004a32:	bf18      	it	ne
 8004a34:	461a      	movne	r2, r3
 8004a36:	684b      	ldr	r3, [r1, #4]
 8004a38:	6848      	ldr	r0, [r1, #4]
 8004a3a:	f3c3 4383 	ubfx	r3, r3, #18, #4
 8004a3e:	0100      	lsls	r0, r0, #4
 8004a40:	d505      	bpl.n	8004a4e <rcu_clock_freq_get+0x62>
 8004a42:	f043 0310 	orr.w	r3, r3, #16
 8004a46:	3301      	adds	r3, #1
 8004a48:	e004      	b.n	8004a54 <rcu_clock_freq_get+0x68>
 8004a4a:	4a1a      	ldr	r2, [pc, #104]	; (8004ab4 <rcu_clock_freq_get+0xc8>)
 8004a4c:	e7f3      	b.n	8004a36 <rcu_clock_freq_get+0x4a>
 8004a4e:	2b0f      	cmp	r3, #15
 8004a50:	d0f9      	beq.n	8004a46 <rcu_clock_freq_get+0x5a>
 8004a52:	3302      	adds	r3, #2
 8004a54:	4353      	muls	r3, r2
 8004a56:	684a      	ldr	r2, [r1, #4]
 8004a58:	f3c2 1203 	ubfx	r2, r2, #4, #4
 8004a5c:	3220      	adds	r2, #32
 8004a5e:	446a      	add	r2, sp
 8004a60:	f812 2c10 	ldrb.w	r2, [r2, #-16]
 8004a64:	fa23 f002 	lsr.w	r0, r3, r2
 8004a68:	684a      	ldr	r2, [r1, #4]
 8004a6a:	f3c2 2202 	ubfx	r2, r2, #8, #3
 8004a6e:	3220      	adds	r2, #32
 8004a70:	446a      	add	r2, sp
 8004a72:	f812 5c20 	ldrb.w	r5, [r2, #-32]
 8004a76:	684a      	ldr	r2, [r1, #4]
 8004a78:	f3c2 22c2 	ubfx	r2, r2, #11, #3
 8004a7c:	3220      	adds	r2, #32
 8004a7e:	446a      	add	r2, sp
 8004a80:	f812 2c18 	ldrb.w	r2, [r2, #-24]
 8004a84:	2c03      	cmp	r4, #3
 8004a86:	d80c      	bhi.n	8004aa2 <rcu_clock_freq_get+0xb6>
 8004a88:	e8df f004 	tbb	[pc, r4]
 8004a8c:	09070504 	stmdbeq	r7, {r2, r8, sl}
 8004a90:	4b07      	ldr	r3, [pc, #28]	; (8004ab0 <rcu_clock_freq_get+0xc4>)
 8004a92:	e7e0      	b.n	8004a56 <rcu_clock_freq_get+0x6a>
 8004a94:	4618      	mov	r0, r3
 8004a96:	b009      	add	sp, #36	; 0x24
 8004a98:	bdf0      	pop	{r4, r5, r6, r7, pc}
 8004a9a:	40e8      	lsrs	r0, r5
 8004a9c:	e7fb      	b.n	8004a96 <rcu_clock_freq_get+0xaa>
 8004a9e:	40d0      	lsrs	r0, r2
 8004aa0:	e7f9      	b.n	8004a96 <rcu_clock_freq_get+0xaa>
 8004aa2:	2000      	movs	r0, #0
 8004aa4:	e7f7      	b.n	8004a96 <rcu_clock_freq_get+0xaa>
 8004aa6:	bf00      	nop
 8004aa8:	080056a0 	stmdaeq	r0, {r5, r7, r9, sl, ip, lr}
 8004aac:	40021000 	andmi	r1, r2, r0
 8004ab0:	007a1200 	rsbseq	r1, sl, r0, lsl #4
 8004ab4:	003d0900 	eorseq	r0, sp, r0, lsl #18

08004ab8 <timer_deinit>:
 8004ab8:	b508      	push	{r3, lr}
 8004aba:	4b2d      	ldr	r3, [pc, #180]	; (8004b70 <timer_deinit+0xb8>)
 8004abc:	4298      	cmp	r0, r3
 8004abe:	d048      	beq.n	8004b52 <timer_deinit+0x9a>
 8004ac0:	d816      	bhi.n	8004af0 <timer_deinit+0x38>
 8004ac2:	f5a3 6300 	sub.w	r3, r3, #2048	; 0x800
 8004ac6:	4298      	cmp	r0, r3
 8004ac8:	d03c      	beq.n	8004b44 <timer_deinit+0x8c>
 8004aca:	d807      	bhi.n	8004adc <timer_deinit+0x24>
 8004acc:	f1b0 4f80 	cmp.w	r0, #1073741824	; 0x40000000
 8004ad0:	d02a      	beq.n	8004b28 <timer_deinit+0x70>
 8004ad2:	f5a3 6380 	sub.w	r3, r3, #1024	; 0x400
 8004ad6:	4298      	cmp	r0, r3
 8004ad8:	d02d      	beq.n	8004b36 <timer_deinit+0x7e>
 8004ada:	bd08      	pop	{r3, pc}
 8004adc:	4b25      	ldr	r3, [pc, #148]	; (8004b74 <timer_deinit+0xbc>)
 8004ade:	4298      	cmp	r0, r3
 8004ae0:	d1fb      	bne.n	8004ada <timer_deinit+0x22>
 8004ae2:	f240 4003 	movw	r0, #1027	; 0x403
 8004ae6:	f7ff ff5e 	bl	80049a6 <rcu_periph_reset_enable>
 8004aea:	f240 4003 	movw	r0, #1027	; 0x403
 8004aee:	e017      	b.n	8004b20 <timer_deinit+0x68>
 8004af0:	4b21      	ldr	r3, [pc, #132]	; (8004b78 <timer_deinit+0xc0>)
 8004af2:	4298      	cmp	r0, r3
 8004af4:	d00e      	beq.n	8004b14 <timer_deinit+0x5c>
 8004af6:	f503 6300 	add.w	r3, r3, #2048	; 0x800
 8004afa:	4298      	cmp	r0, r3
 8004afc:	d030      	beq.n	8004b60 <timer_deinit+0xa8>
 8004afe:	f5a3 3390 	sub.w	r3, r3, #73728	; 0x12000
 8004b02:	4298      	cmp	r0, r3
 8004b04:	d1e9      	bne.n	8004ada <timer_deinit+0x22>
 8004b06:	f240 4005 	movw	r0, #1029	; 0x405
 8004b0a:	f7ff ff4c 	bl	80049a6 <rcu_periph_reset_enable>
 8004b0e:	f240 4005 	movw	r0, #1029	; 0x405
 8004b12:	e005      	b.n	8004b20 <timer_deinit+0x68>
 8004b14:	f240 300b 	movw	r0, #779	; 0x30b
 8004b18:	f7ff ff45 	bl	80049a6 <rcu_periph_reset_enable>
 8004b1c:	f240 300b 	movw	r0, #779	; 0x30b
 8004b20:	e8bd 4008 	ldmia.w	sp!, {r3, lr}
 8004b24:	f7ff bf41 	b.w	80049aa <rcu_periph_reset_disable>
 8004b28:	f44f 6080 	mov.w	r0, #1024	; 0x400
 8004b2c:	f7ff ff3b 	bl	80049a6 <rcu_periph_reset_enable>
 8004b30:	f44f 6080 	mov.w	r0, #1024	; 0x400
 8004b34:	e7f4      	b.n	8004b20 <timer_deinit+0x68>
 8004b36:	f240 4001 	movw	r0, #1025	; 0x401
 8004b3a:	f7ff ff34 	bl	80049a6 <rcu_periph_reset_enable>
 8004b3e:	f240 4001 	movw	r0, #1025	; 0x401
 8004b42:	e7ed      	b.n	8004b20 <timer_deinit+0x68>
 8004b44:	f240 4002 	movw	r0, #1026	; 0x402
 8004b48:	f7ff ff2d 	bl	80049a6 <rcu_periph_reset_enable>
 8004b4c:	f240 4002 	movw	r0, #1026	; 0x402
 8004b50:	e7e6      	b.n	8004b20 <timer_deinit+0x68>
 8004b52:	f240 4004 	movw	r0, #1028	; 0x404
 8004b56:	f7ff ff26 	bl	80049a6 <rcu_periph_reset_enable>
 8004b5a:	f240 4004 	movw	r0, #1028	; 0x404
 8004b5e:	e7df      	b.n	8004b20 <timer_deinit+0x68>
 8004b60:	f240 300d 	movw	r0, #781	; 0x30d
 8004b64:	f7ff ff1f 	bl	80049a6 <rcu_periph_reset_enable>
 8004b68:	f240 300d 	movw	r0, #781	; 0x30d
 8004b6c:	e7d8      	b.n	8004b20 <timer_deinit+0x68>
 8004b6e:	bf00      	nop
 8004b70:	40001000 	andmi	r1, r0, r0
 8004b74:	40000c00 	andmi	r0, r0, r0, lsl #24
 8004b78:	40012c00 	andmi	r2, r1, r0, lsl #24

08004b7c <timer_init>:
 8004b7c:	880b      	ldrh	r3, [r1, #0]
 8004b7e:	6283      	str	r3, [r0, #40]	; 0x28
 8004b80:	4b26      	ldr	r3, [pc, #152]	; (8004c1c <timer_init+0xa0>)
 8004b82:	4298      	cmp	r0, r3
 8004b84:	d018      	beq.n	8004bb8 <timer_init+0x3c>
 8004b86:	f420 6240 	bic.w	r2, r0, #3072	; 0xc00
 8004b8a:	f1b2 4f80 	cmp.w	r2, #1073741824	; 0x40000000
 8004b8e:	f420 6380 	bic.w	r3, r0, #1024	; 0x400
 8004b92:	d011      	beq.n	8004bb8 <timer_init+0x3c>
 8004b94:	4a22      	ldr	r2, [pc, #136]	; (8004c20 <timer_init+0xa4>)
 8004b96:	4290      	cmp	r0, r2
 8004b98:	d00e      	beq.n	8004bb8 <timer_init+0x3c>
 8004b9a:	f502 52c0 	add.w	r2, r2, #6144	; 0x1800
 8004b9e:	4290      	cmp	r0, r2
 8004ba0:	d00a      	beq.n	8004bb8 <timer_init+0x3c>
 8004ba2:	f502 6280 	add.w	r2, r2, #1024	; 0x400
 8004ba6:	4293      	cmp	r3, r2
 8004ba8:	d006      	beq.n	8004bb8 <timer_init+0x3c>
 8004baa:	f5a2 329c 	sub.w	r2, r2, #79872	; 0x13800
 8004bae:	4293      	cmp	r3, r2
 8004bb0:	d002      	beq.n	8004bb8 <timer_init+0x3c>
 8004bb2:	4b1c      	ldr	r3, [pc, #112]	; (8004c24 <timer_init+0xa8>)
 8004bb4:	4298      	cmp	r0, r3
 8004bb6:	d10f      	bne.n	8004bd8 <timer_init+0x5c>
 8004bb8:	6803      	ldr	r3, [r0, #0]
 8004bba:	f023 0370 	bic.w	r3, r3, #112	; 0x70
 8004bbe:	6003      	str	r3, [r0, #0]
 8004bc0:	884b      	ldrh	r3, [r1, #2]
 8004bc2:	6802      	ldr	r2, [r0, #0]
 8004bc4:	f003 0360 	and.w	r3, r3, #96	; 0x60
 8004bc8:	4313      	orrs	r3, r2
 8004bca:	6003      	str	r3, [r0, #0]
 8004bcc:	888b      	ldrh	r3, [r1, #4]
 8004bce:	6802      	ldr	r2, [r0, #0]
 8004bd0:	f003 0310 	and.w	r3, r3, #16
 8004bd4:	4313      	orrs	r3, r2
 8004bd6:	6003      	str	r3, [r0, #0]
 8004bd8:	688b      	ldr	r3, [r1, #8]
 8004bda:	62c3      	str	r3, [r0, #44]	; 0x2c
 8004bdc:	4b12      	ldr	r3, [pc, #72]	; (8004c28 <timer_init+0xac>)
 8004bde:	4298      	cmp	r0, r3
 8004be0:	d003      	beq.n	8004bea <timer_init+0x6e>
 8004be2:	f503 6380 	add.w	r3, r3, #1024	; 0x400
 8004be6:	4298      	cmp	r0, r3
 8004be8:	d104      	bne.n	8004bf4 <timer_init+0x78>
 8004bea:	6943      	ldr	r3, [r0, #20]
 8004bec:	f043 0301 	orr.w	r3, r3, #1
 8004bf0:	6143      	str	r3, [r0, #20]
 8004bf2:	4770      	bx	lr
 8004bf4:	6803      	ldr	r3, [r0, #0]
 8004bf6:	f423 7340 	bic.w	r3, r3, #768	; 0x300
 8004bfa:	6003      	str	r3, [r0, #0]
 8004bfc:	898b      	ldrh	r3, [r1, #12]
 8004bfe:	6802      	ldr	r2, [r0, #0]
 8004c00:	f403 7340 	and.w	r3, r3, #768	; 0x300
 8004c04:	4313      	orrs	r3, r2
 8004c06:	6003      	str	r3, [r0, #0]
 8004c08:	4b04      	ldr	r3, [pc, #16]	; (8004c1c <timer_init+0xa0>)
 8004c0a:	4298      	cmp	r0, r3
 8004c0c:	d002      	beq.n	8004c14 <timer_init+0x98>
 8004c0e:	4b04      	ldr	r3, [pc, #16]	; (8004c20 <timer_init+0xa4>)
 8004c10:	4298      	cmp	r0, r3
 8004c12:	d1ea      	bne.n	8004bea <timer_init+0x6e>
 8004c14:	7b8b      	ldrb	r3, [r1, #14]
 8004c16:	6303      	str	r3, [r0, #48]	; 0x30
 8004c18:	e7e7      	b.n	8004bea <timer_init+0x6e>
 8004c1a:	bf00      	nop
 8004c1c:	40012c00 	andmi	r2, r1, r0, lsl #24
 8004c20:	40013400 	andmi	r3, r1, r0, lsl #8
 8004c24:	40002000 	andmi	r2, r0, r0
 8004c28:	40001000 	andmi	r1, r0, r0

08004c2c <timer_enable>:
 8004c2c:	6803      	ldr	r3, [r0, #0]
 8004c2e:	f043 0301 	orr.w	r3, r3, #1
 8004c32:	6003      	str	r3, [r0, #0]
 8004c34:	4770      	bx	lr

08004c36 <timer_channel_output_mode_config>:
 8004c36:	2903      	cmp	r1, #3
 8004c38:	d81a      	bhi.n	8004c70 <timer_channel_output_mode_config+0x3a>
 8004c3a:	e8df f001 	tbb	[pc, r1]
 8004c3e:	1a120a02 	bne	848744e <__exidx_end+0x4814d6>
 8004c42:	6983      	ldr	r3, [r0, #24]
 8004c44:	f023 0370 	bic.w	r3, r3, #112	; 0x70
 8004c48:	6183      	str	r3, [r0, #24]
 8004c4a:	6983      	ldr	r3, [r0, #24]
 8004c4c:	431a      	orrs	r2, r3
 8004c4e:	6182      	str	r2, [r0, #24]
 8004c50:	4770      	bx	lr
 8004c52:	6983      	ldr	r3, [r0, #24]
 8004c54:	f423 43e0 	bic.w	r3, r3, #28672	; 0x7000
 8004c58:	6183      	str	r3, [r0, #24]
 8004c5a:	6983      	ldr	r3, [r0, #24]
 8004c5c:	ea43 2202 	orr.w	r2, r3, r2, lsl #8
 8004c60:	e7f5      	b.n	8004c4e <timer_channel_output_mode_config+0x18>
 8004c62:	69c3      	ldr	r3, [r0, #28]
 8004c64:	f023 0370 	bic.w	r3, r3, #112	; 0x70
 8004c68:	61c3      	str	r3, [r0, #28]
 8004c6a:	69c3      	ldr	r3, [r0, #28]
 8004c6c:	431a      	orrs	r2, r3
 8004c6e:	61c2      	str	r2, [r0, #28]
 8004c70:	4770      	bx	lr
 8004c72:	69c3      	ldr	r3, [r0, #28]
 8004c74:	f423 43e0 	bic.w	r3, r3, #28672	; 0x7000
 8004c78:	61c3      	str	r3, [r0, #28]
 8004c7a:	69c3      	ldr	r3, [r0, #28]
 8004c7c:	ea43 2202 	orr.w	r2, r3, r2, lsl #8
 8004c80:	e7f5      	b.n	8004c6e <timer_channel_output_mode_config+0x38>

08004c82 <timer_channel_output_pulse_value_config>:
 8004c82:	2903      	cmp	r1, #3
 8004c84:	d80a      	bhi.n	8004c9c <timer_channel_output_pulse_value_config+0x1a>
 8004c86:	e8df f001 	tbb	[pc, r1]
 8004c8a:	08060402 	stmdaeq	r6, {r1, sl}
 8004c8e:	6342      	str	r2, [r0, #52]	; 0x34
 8004c90:	4770      	bx	lr
 8004c92:	6382      	str	r2, [r0, #56]	; 0x38
 8004c94:	4770      	bx	lr
 8004c96:	63c2      	str	r2, [r0, #60]	; 0x3c
 8004c98:	4770      	bx	lr
 8004c9a:	6402      	str	r2, [r0, #64]	; 0x40
 8004c9c:	4770      	bx	lr

08004c9e <timer_interrupt_enable>:
 8004c9e:	68c3      	ldr	r3, [r0, #12]
 8004ca0:	430b      	orrs	r3, r1
 8004ca2:	60c3      	str	r3, [r0, #12]
 8004ca4:	4770      	bx	lr

08004ca6 <timer_interrupt_flag_clear>:
 8004ca6:	43c9      	mvns	r1, r1
 8004ca8:	6101      	str	r1, [r0, #16]
 8004caa:	4770      	bx	lr

08004cac <timer_flag_clear>:
 8004cac:	43c9      	mvns	r1, r1
 8004cae:	6101      	str	r1, [r0, #16]
 8004cb0:	4770      	bx	lr
	...

08004cb4 <usart_deinit>:
 8004cb4:	b508      	push	{r3, lr}
 8004cb6:	4b1d      	ldr	r3, [pc, #116]	; (8004d2c <usart_deinit+0x78>)
 8004cb8:	4298      	cmp	r0, r3
 8004cba:	d028      	beq.n	8004d0e <usart_deinit+0x5a>
 8004cbc:	d808      	bhi.n	8004cd0 <usart_deinit+0x1c>
 8004cbe:	f5a3 6300 	sub.w	r3, r3, #2048	; 0x800
 8004cc2:	4298      	cmp	r0, r3
 8004cc4:	d015      	beq.n	8004cf2 <usart_deinit+0x3e>
 8004cc6:	f503 6380 	add.w	r3, r3, #1024	; 0x400
 8004cca:	4298      	cmp	r0, r3
 8004ccc:	d018      	beq.n	8004d00 <usart_deinit+0x4c>
 8004cce:	bd08      	pop	{r3, pc}
 8004cd0:	4b17      	ldr	r3, [pc, #92]	; (8004d30 <usart_deinit+0x7c>)
 8004cd2:	4298      	cmp	r0, r3
 8004cd4:	d022      	beq.n	8004d1c <usart_deinit+0x68>
 8004cd6:	f503 4368 	add.w	r3, r3, #59392	; 0xe800
 8004cda:	4298      	cmp	r0, r3
 8004cdc:	d1f7      	bne.n	8004cce <usart_deinit+0x1a>
 8004cde:	f240 300e 	movw	r0, #782	; 0x30e
 8004ce2:	f7ff fe60 	bl	80049a6 <rcu_periph_reset_enable>
 8004ce6:	f240 300e 	movw	r0, #782	; 0x30e
 8004cea:	e8bd 4008 	ldmia.w	sp!, {r3, lr}
 8004cee:	f7ff be5c 	b.w	80049aa <rcu_periph_reset_disable>
 8004cf2:	f240 4011 	movw	r0, #1041	; 0x411
 8004cf6:	f7ff fe56 	bl	80049a6 <rcu_periph_reset_enable>
 8004cfa:	f240 4011 	movw	r0, #1041	; 0x411
 8004cfe:	e7f4      	b.n	8004cea <usart_deinit+0x36>
 8004d00:	f240 4012 	movw	r0, #1042	; 0x412
 8004d04:	f7ff fe4f 	bl	80049a6 <rcu_periph_reset_enable>
 8004d08:	f240 4012 	movw	r0, #1042	; 0x412
 8004d0c:	e7ed      	b.n	8004cea <usart_deinit+0x36>
 8004d0e:	f240 4013 	movw	r0, #1043	; 0x413
 8004d12:	f7ff fe48 	bl	80049a6 <rcu_periph_reset_enable>
 8004d16:	f240 4013 	movw	r0, #1043	; 0x413
 8004d1a:	e7e6      	b.n	8004cea <usart_deinit+0x36>
 8004d1c:	f240 4014 	movw	r0, #1044	; 0x414
 8004d20:	f7ff fe41 	bl	80049a6 <rcu_periph_reset_enable>
 8004d24:	f240 4014 	movw	r0, #1044	; 0x414
 8004d28:	e7df      	b.n	8004cea <usart_deinit+0x36>
 8004d2a:	bf00      	nop
 8004d2c:	40004c00 	andmi	r4, r0, r0, lsl #24
 8004d30:	40005000 	andmi	r5, r0, r0

08004d34 <usart_baudrate_set>:
 8004d34:	b538      	push	{r3, r4, r5, lr}
 8004d36:	4b11      	ldr	r3, [pc, #68]	; (8004d7c <usart_baudrate_set+0x48>)
 8004d38:	4604      	mov	r4, r0
 8004d3a:	4298      	cmp	r0, r3
 8004d3c:	460d      	mov	r5, r1
 8004d3e:	d01b      	beq.n	8004d78 <usart_baudrate_set+0x44>
 8004d40:	d809      	bhi.n	8004d56 <usart_baudrate_set+0x22>
 8004d42:	f5a3 6300 	sub.w	r3, r3, #2048	; 0x800
 8004d46:	4298      	cmp	r0, r3
 8004d48:	d016      	beq.n	8004d78 <usart_baudrate_set+0x44>
 8004d4a:	f503 6380 	add.w	r3, r3, #1024	; 0x400
 8004d4e:	4298      	cmp	r0, r3
 8004d50:	d012      	beq.n	8004d78 <usart_baudrate_set+0x44>
 8004d52:	2000      	movs	r0, #0
 8004d54:	e009      	b.n	8004d6a <usart_baudrate_set+0x36>
 8004d56:	4b0a      	ldr	r3, [pc, #40]	; (8004d80 <usart_baudrate_set+0x4c>)
 8004d58:	4298      	cmp	r0, r3
 8004d5a:	d00d      	beq.n	8004d78 <usart_baudrate_set+0x44>
 8004d5c:	f503 4368 	add.w	r3, r3, #59392	; 0xe800
 8004d60:	4298      	cmp	r0, r3
 8004d62:	d1f6      	bne.n	8004d52 <usart_baudrate_set+0x1e>
 8004d64:	2003      	movs	r0, #3
 8004d66:	f7ff fe41 	bl	80049ec <rcu_clock_freq_get>
 8004d6a:	eb00 0355 	add.w	r3, r0, r5, lsr #1
 8004d6e:	fbb3 f1f5 	udiv	r1, r3, r5
 8004d72:	b289      	uxth	r1, r1
 8004d74:	60a1      	str	r1, [r4, #8]
 8004d76:	bd38      	pop	{r3, r4, r5, pc}
 8004d78:	2002      	movs	r0, #2
 8004d7a:	e7f4      	b.n	8004d66 <usart_baudrate_set+0x32>
 8004d7c:	40004c00 	andmi	r4, r0, r0, lsl #24
 8004d80:	40005000 	andmi	r5, r0, r0

08004d84 <usart_parity_config>:
 8004d84:	68c2      	ldr	r2, [r0, #12]
 8004d86:	f422 62c0 	bic.w	r2, r2, #1536	; 0x600
 8004d8a:	60c2      	str	r2, [r0, #12]
 8004d8c:	68c3      	ldr	r3, [r0, #12]
 8004d8e:	430b      	orrs	r3, r1
 8004d90:	60c3      	str	r3, [r0, #12]
 8004d92:	4770      	bx	lr

08004d94 <usart_word_length_set>:
 8004d94:	68c2      	ldr	r2, [r0, #12]
 8004d96:	f422 5280 	bic.w	r2, r2, #4096	; 0x1000
 8004d9a:	60c2      	str	r2, [r0, #12]
 8004d9c:	68c3      	ldr	r3, [r0, #12]
 8004d9e:	430b      	orrs	r3, r1
 8004da0:	60c3      	str	r3, [r0, #12]
 8004da2:	4770      	bx	lr

08004da4 <usart_stop_bit_set>:
 8004da4:	6902      	ldr	r2, [r0, #16]
 8004da6:	f422 5240 	bic.w	r2, r2, #12288	; 0x3000
 8004daa:	6102      	str	r2, [r0, #16]
 8004dac:	6903      	ldr	r3, [r0, #16]
 8004dae:	430b      	orrs	r3, r1
 8004db0:	6103      	str	r3, [r0, #16]
 8004db2:	4770      	bx	lr

08004db4 <usart_transmit_config>:
 8004db4:	68c3      	ldr	r3, [r0, #12]
 8004db6:	f023 0308 	bic.w	r3, r3, #8
 8004dba:	430b      	orrs	r3, r1
 8004dbc:	60c3      	str	r3, [r0, #12]
 8004dbe:	4770      	bx	lr

08004dc0 <usart_receive_config>:
 8004dc0:	68c3      	ldr	r3, [r0, #12]
 8004dc2:	f023 0304 	bic.w	r3, r3, #4
 8004dc6:	430b      	orrs	r3, r1
 8004dc8:	60c3      	str	r3, [r0, #12]
 8004dca:	4770      	bx	lr

08004dcc <usart_hardware_flow_rts_config>:
 8004dcc:	6943      	ldr	r3, [r0, #20]
 8004dce:	f423 7380 	bic.w	r3, r3, #256	; 0x100
 8004dd2:	430b      	orrs	r3, r1
 8004dd4:	6143      	str	r3, [r0, #20]
 8004dd6:	4770      	bx	lr

08004dd8 <usart_hardware_flow_cts_config>:
 8004dd8:	6943      	ldr	r3, [r0, #20]
 8004dda:	f423 7300 	bic.w	r3, r3, #512	; 0x200
 8004dde:	430b      	orrs	r3, r1
 8004de0:	6143      	str	r3, [r0, #20]
 8004de2:	4770      	bx	lr

08004de4 <usart_dma_transmit_config>:
 8004de4:	6943      	ldr	r3, [r0, #20]
 8004de6:	f023 0380 	bic.w	r3, r3, #128	; 0x80
 8004dea:	430b      	orrs	r3, r1
 8004dec:	6143      	str	r3, [r0, #20]
 8004dee:	4770      	bx	lr

08004df0 <usart_flag_get>:
 8004df0:	098b      	lsrs	r3, r1, #6
 8004df2:	5818      	ldr	r0, [r3, r0]
 8004df4:	f001 011f 	and.w	r1, r1, #31
 8004df8:	40c8      	lsrs	r0, r1
 8004dfa:	f000 0001 	and.w	r0, r0, #1
 8004dfe:	4770      	bx	lr

08004e00 <usart_interrupt_enable>:
 8004e00:	2301      	movs	r3, #1
 8004e02:	b510      	push	{r4, lr}
 8004e04:	f3c1 1289 	ubfx	r2, r1, #6, #10
 8004e08:	5814      	ldr	r4, [r2, r0]
 8004e0a:	f001 011f 	and.w	r1, r1, #31
 8004e0e:	fa03 f101 	lsl.w	r1, r3, r1
 8004e12:	4321      	orrs	r1, r4
 8004e14:	5011      	str	r1, [r2, r0]
 8004e16:	bd10      	pop	{r4, pc}

08004e18 <usart_interrupt_disable>:
 8004e18:	2201      	movs	r2, #1
 8004e1a:	b510      	push	{r4, lr}
 8004e1c:	f3c1 1489 	ubfx	r4, r1, #6, #10
 8004e20:	5823      	ldr	r3, [r4, r0]
 8004e22:	f001 011f 	and.w	r1, r1, #31
 8004e26:	fa02 f101 	lsl.w	r1, r2, r1
 8004e2a:	ea23 0101 	bic.w	r1, r3, r1
 8004e2e:	5021      	str	r1, [r4, r0]
 8004e30:	bd10      	pop	{r4, pc}

08004e32 <usart_interrupt_flag_clear>:
 8004e32:	2201      	movs	r2, #1
 8004e34:	b510      	push	{r4, lr}
 8004e36:	0d8c      	lsrs	r4, r1, #22
 8004e38:	5823      	ldr	r3, [r4, r0]
 8004e3a:	f3c1 4104 	ubfx	r1, r1, #16, #5
 8004e3e:	fa02 f101 	lsl.w	r1, r2, r1
 8004e42:	ea23 0101 	bic.w	r1, r3, r1
 8004e46:	5021      	str	r1, [r4, r0]
 8004e48:	bd10      	pop	{r4, pc}
	...

08004e4c <gd32_adc_init()>:
 8004e4c:	b510      	push	{r4, lr}
 8004e4e:	f240 6009 	movw	r0, #1545	; 0x609
 8004e52:	4c21      	ldr	r4, [pc, #132]	; (8004ed8 <gd32_adc_init()+0x8c>)
 8004e54:	f7ff fd8a 	bl	800496c <rcu_periph_clock_enable>
 8004e58:	2005      	movs	r0, #5
 8004e5a:	f7ff fda9 	bl	80049b0 <rcu_adc_clock_config>
 8004e5e:	4620      	mov	r0, r4
 8004e60:	2201      	movs	r2, #1
 8004e62:	f44f 7180 	mov.w	r1, #256	; 0x100
 8004e66:	f000 fa99 	bl	800539c <adc_special_function_config>
 8004e6a:	f44f 42e0 	mov.w	r2, #28672	; 0x7000
 8004e6e:	4620      	mov	r0, r4
 8004e70:	2102      	movs	r1, #2
 8004e72:	f000 fb33 	bl	80054dc <adc_external_trigger_source_config>
 8004e76:	2100      	movs	r1, #0
 8004e78:	4620      	mov	r0, r4
 8004e7a:	f000 fab7 	bl	80053ec <adc_data_alignment_config>
 8004e7e:	2000      	movs	r0, #0
 8004e80:	f000 fa7c 	bl	800537c <adc_mode_config>
 8004e84:	2202      	movs	r2, #2
 8004e86:	4620      	mov	r0, r4
 8004e88:	4611      	mov	r1, r2
 8004e8a:	f000 fadb 	bl	8005444 <adc_channel_length_config>
 8004e8e:	4620      	mov	r0, r4
 8004e90:	2307      	movs	r3, #7
 8004e92:	2210      	movs	r2, #16
 8004e94:	2100      	movs	r1, #0
 8004e96:	f000 faf2 	bl	800547e <adc_inserted_channel_config>
 8004e9a:	2307      	movs	r3, #7
 8004e9c:	4620      	mov	r0, r4
 8004e9e:	2211      	movs	r2, #17
 8004ea0:	2101      	movs	r1, #1
 8004ea2:	f000 faec 	bl	800547e <adc_inserted_channel_config>
 8004ea6:	2201      	movs	r2, #1
 8004ea8:	2102      	movs	r1, #2
 8004eaa:	4620      	mov	r0, r4
 8004eac:	f000 fb27 	bl	80054fe <adc_external_trigger_config>
 8004eb0:	f000 fabe 	bl	8005430 <adc_tempsensor_vrefint_enable>
 8004eb4:	4620      	mov	r0, r4
 8004eb6:	f000 faa2 	bl	80053fe <adc_enable>
 8004eba:	2100      	movs	r1, #0
 8004ebc:	f44f 707a 	mov.w	r0, #1000	; 0x3e8
 8004ec0:	f000 fa44 	bl	800534c <udelay(unsigned int, unsigned int)>
 8004ec4:	4620      	mov	r0, r4
 8004ec6:	f000 faa2 	bl	800540e <adc_calibration_enable>
 8004eca:	4620      	mov	r0, r4
 8004ecc:	e8bd 4010 	ldmia.w	sp!, {r4, lr}
 8004ed0:	2102      	movs	r1, #2
 8004ed2:	f000 bb2f 	b.w	8005534 <adc_software_trigger_enable>
 8004ed6:	bf00      	nop
 8004ed8:	40012400 	andmi	r2, r1, r0, lsl #8

08004edc <_stop() [clone .isra.0]>:
 8004edc:	b508      	push	{r3, lr}
 8004ede:	4806      	ldr	r0, [pc, #24]	; (8004ef8 <_stop() [clone .isra.0]+0x1c>)
 8004ee0:	f000 fbb8 	bl	8005654 <i2c_stop_on_bus>
 8004ee4:	f640 73ff 	movw	r3, #4095	; 0xfff
 8004ee8:	4a04      	ldr	r2, [pc, #16]	; (8004efc <_stop() [clone .isra.0]+0x20>)
 8004eea:	f8d2 1400 	ldr.w	r1, [r2, #1024]	; 0x400
 8004eee:	0589      	lsls	r1, r1, #22
 8004ef0:	d501      	bpl.n	8004ef6 <_stop() [clone .isra.0]+0x1a>
 8004ef2:	3b01      	subs	r3, #1
 8004ef4:	d1f9      	bne.n	8004eea <_stop() [clone .isra.0]+0xe>
 8004ef6:	bd08      	pop	{r3, pc}
 8004ef8:	40005400 	andmi	r5, r0, r0, lsl #8
 8004efc:	40005000 	andmi	r5, r0, r0

08004f00 <gd32_i2c_begin()>:
 8004f00:	b510      	push	{r4, lr}
 8004f02:	f240 7015 	movw	r0, #1813	; 0x715
 8004f06:	f7ff fd31 	bl	800496c <rcu_periph_clock_enable>
 8004f0a:	4c12      	ldr	r4, [pc, #72]	; (8004f54 <gd32_i2c_begin()+0x54>)
 8004f0c:	f240 6003 	movw	r0, #1539	; 0x603
 8004f10:	f7ff fd2c 	bl	800496c <rcu_periph_clock_enable>
 8004f14:	f240 6003 	movw	r0, #1539	; 0x603
 8004f18:	f7ff fd28 	bl	800496c <rcu_periph_clock_enable>
 8004f1c:	4620      	mov	r0, r4
 8004f1e:	2340      	movs	r3, #64	; 0x40
 8004f20:	2203      	movs	r2, #3
 8004f22:	211c      	movs	r1, #28
 8004f24:	f7ff fc8e 	bl	8004844 <gpio_init>
 8004f28:	2380      	movs	r3, #128	; 0x80
 8004f2a:	4620      	mov	r0, r4
 8004f2c:	2203      	movs	r2, #3
 8004f2e:	f5a4 4438 	sub.w	r4, r4, #47104	; 0xb800
 8004f32:	211c      	movs	r1, #28
 8004f34:	f7ff fc86 	bl	8004844 <gpio_init>
 8004f38:	4620      	mov	r0, r4
 8004f3a:	4907      	ldr	r1, [pc, #28]	; (8004f58 <gd32_i2c_begin()+0x58>)
 8004f3c:	2200      	movs	r2, #0
 8004f3e:	f000 fb07 	bl	8005550 <i2c_clock_config>
 8004f42:	4620      	mov	r0, r4
 8004f44:	f000 fb7c 	bl	8005640 <i2c_enable>
 8004f48:	4620      	mov	r0, r4
 8004f4a:	e8bd 4010 	ldmia.w	sp!, {r4, lr}
 8004f4e:	2101      	movs	r1, #1
 8004f50:	f000 bb5c 	b.w	800560c <i2c_ack_config>
 8004f54:	40010c00 	andmi	r0, r1, r0, lsl #24
 8004f58:	00061a80 	andeq	r1, r6, r0, lsl #21

08004f5c <gd32_i2c_set_baudrate(unsigned int)>:
 8004f5c:	4601      	mov	r1, r0
 8004f5e:	2200      	movs	r2, #0
 8004f60:	4801      	ldr	r0, [pc, #4]	; (8004f68 <gd32_i2c_set_baudrate(unsigned int)+0xc>)
 8004f62:	f000 baf5 	b.w	8005550 <i2c_clock_config>
 8004f66:	bf00      	nop
 8004f68:	40005400 	andmi	r5, r0, r0, lsl #8

08004f6c <gd32_i2c_set_address(unsigned char)>:
 8004f6c:	4b01      	ldr	r3, [pc, #4]	; (8004f74 <gd32_i2c_set_address(unsigned char)+0x8>)
 8004f6e:	0040      	lsls	r0, r0, #1
 8004f70:	7018      	strb	r0, [r3, #0]
 8004f72:	4770      	bx	lr
 8004f74:	20001820 	andcs	r1, r0, r0, lsr #16

08004f78 <gd32_i2c_write(char const*, unsigned int)>:
 8004f78:	b5f8      	push	{r3, r4, r5, r6, r7, lr}
 8004f7a:	4604      	mov	r4, r0
 8004f7c:	460f      	mov	r7, r1
 8004f7e:	f640 75ff 	movw	r5, #4095	; 0xfff
 8004f82:	4e2e      	ldr	r6, [pc, #184]	; (800503c <gd32_i2c_write(char const*, unsigned int)+0xc4>)
 8004f84:	f240 6101 	movw	r1, #1537	; 0x601
 8004f88:	4630      	mov	r0, r6
 8004f8a:	f000 fb6d 	bl	8005668 <i2c_flag_get>
 8004f8e:	b138      	cbz	r0, 8004fa0 <gd32_i2c_write(char const*, unsigned int)+0x28>
 8004f90:	3d01      	subs	r5, #1
 8004f92:	d1f7      	bne.n	8004f84 <gd32_i2c_write(char const*, unsigned int)+0xc>
 8004f94:	f7ff ffa2 	bl	8004edc <_stop() [clone .isra.0]>
 8004f98:	f04f 30ff 	mov.w	r0, #4294967295	; 0xffffffff
 8004f9c:	4240      	negs	r0, r0
 8004f9e:	bdf8      	pop	{r3, r4, r5, r6, r7, pc}
 8004fa0:	4826      	ldr	r0, [pc, #152]	; (800503c <gd32_i2c_write(char const*, unsigned int)+0xc4>)
 8004fa2:	f000 fb52 	bl	800564a <i2c_start_on_bus>
 8004fa6:	f640 75ff 	movw	r5, #4095	; 0xfff
 8004faa:	4e24      	ldr	r6, [pc, #144]	; (800503c <gd32_i2c_write(char const*, unsigned int)+0xc4>)
 8004fac:	f44f 61a0 	mov.w	r1, #1280	; 0x500
 8004fb0:	4630      	mov	r0, r6
 8004fb2:	f000 fb59 	bl	8005668 <i2c_flag_get>
 8004fb6:	bb68      	cbnz	r0, 8005014 <gd32_i2c_write(char const*, unsigned int)+0x9c>
 8004fb8:	3d01      	subs	r5, #1
 8004fba:	d1f7      	bne.n	8004fac <gd32_i2c_write(char const*, unsigned int)+0x34>
 8004fbc:	e7ea      	b.n	8004f94 <gd32_i2c_write(char const*, unsigned int)+0x1c>
 8004fbe:	f240 5101 	movw	r1, #1281	; 0x501
 8004fc2:	481e      	ldr	r0, [pc, #120]	; (800503c <gd32_i2c_write(char const*, unsigned int)+0xc4>)
 8004fc4:	f000 fb58 	bl	8005678 <i2c_flag_clear>
 8004fc8:	f640 75ff 	movw	r5, #4095	; 0xfff
 8004fcc:	4e1b      	ldr	r6, [pc, #108]	; (800503c <gd32_i2c_write(char const*, unsigned int)+0xc4>)
 8004fce:	f240 5107 	movw	r1, #1287	; 0x507
 8004fd2:	4630      	mov	r0, r6
 8004fd4:	f000 fb48 	bl	8005668 <i2c_flag_get>
 8004fd8:	2801      	cmp	r0, #1
 8004fda:	d114      	bne.n	8005006 <gd32_i2c_write(char const*, unsigned int)+0x8e>
 8004fdc:	4e17      	ldr	r6, [pc, #92]	; (800503c <gd32_i2c_write(char const*, unsigned int)+0xc4>)
 8004fde:	4427      	add	r7, r4
 8004fe0:	42a7      	cmp	r7, r4
 8004fe2:	d013      	beq.n	800500c <gd32_i2c_write(char const*, unsigned int)+0x94>
 8004fe4:	4630      	mov	r0, r6
 8004fe6:	f814 1b01 	ldrb.w	r1, [r4], #1
 8004fea:	f000 fb38 	bl	800565e <i2c_data_transmit>
 8004fee:	f640 75ff 	movw	r5, #4095	; 0xfff
 8004ff2:	f240 5102 	movw	r1, #1282	; 0x502
 8004ff6:	4630      	mov	r0, r6
 8004ff8:	f000 fb36 	bl	8005668 <i2c_flag_get>
 8004ffc:	2800      	cmp	r0, #0
 8004ffe:	d1ef      	bne.n	8004fe0 <gd32_i2c_write(char const*, unsigned int)+0x68>
 8005000:	3d01      	subs	r5, #1
 8005002:	d1f6      	bne.n	8004ff2 <gd32_i2c_write(char const*, unsigned int)+0x7a>
 8005004:	e7c6      	b.n	8004f94 <gd32_i2c_write(char const*, unsigned int)+0x1c>
 8005006:	3d01      	subs	r5, #1
 8005008:	d1e1      	bne.n	8004fce <gd32_i2c_write(char const*, unsigned int)+0x56>
 800500a:	e7c3      	b.n	8004f94 <gd32_i2c_write(char const*, unsigned int)+0x1c>
 800500c:	f7ff ff66 	bl	8004edc <_stop() [clone .isra.0]>
 8005010:	2000      	movs	r0, #0
 8005012:	e7c3      	b.n	8004f9c <gd32_i2c_write(char const*, unsigned int)+0x24>
 8005014:	4b0a      	ldr	r3, [pc, #40]	; (8005040 <gd32_i2c_write(char const*, unsigned int)+0xc8>)
 8005016:	f06f 0201 	mvn.w	r2, #1
 800501a:	7819      	ldrb	r1, [r3, #0]
 800501c:	4807      	ldr	r0, [pc, #28]	; (800503c <gd32_i2c_write(char const*, unsigned int)+0xc4>)
 800501e:	f000 fb07 	bl	8005630 <i2c_master_addressing>
 8005022:	f640 75ff 	movw	r5, #4095	; 0xfff
 8005026:	4e05      	ldr	r6, [pc, #20]	; (800503c <gd32_i2c_write(char const*, unsigned int)+0xc4>)
 8005028:	f240 5101 	movw	r1, #1281	; 0x501
 800502c:	4630      	mov	r0, r6
 800502e:	f000 fb1b 	bl	8005668 <i2c_flag_get>
 8005032:	2800      	cmp	r0, #0
 8005034:	d1c3      	bne.n	8004fbe <gd32_i2c_write(char const*, unsigned int)+0x46>
 8005036:	3d01      	subs	r5, #1
 8005038:	d1f6      	bne.n	8005028 <gd32_i2c_write(char const*, unsigned int)+0xb0>
 800503a:	e7ab      	b.n	8004f94 <gd32_i2c_write(char const*, unsigned int)+0x1c>
 800503c:	40005400 	andmi	r5, r0, r0, lsl #8
 8005040:	20001820 	andcs	r1, r0, r0, lsr #16

08005044 <gd32_i2c_read(char*, unsigned int)>:
 8005044:	e92d 43f8 	stmdb	sp!, {r3, r4, r5, r6, r7, r8, r9, lr}
 8005048:	4680      	mov	r8, r0
 800504a:	460c      	mov	r4, r1
 800504c:	f640 76ff 	movw	r6, #4095	; 0xfff
 8005050:	4f49      	ldr	r7, [pc, #292]	; (8005178 <gd32_i2c_read(char*, unsigned int)+0x134>)
 8005052:	f240 6101 	movw	r1, #1537	; 0x601
 8005056:	4638      	mov	r0, r7
 8005058:	f000 fb06 	bl	8005668 <i2c_flag_get>
 800505c:	4605      	mov	r5, r0
 800505e:	b128      	cbz	r0, 800506c <gd32_i2c_read(char*, unsigned int)+0x28>
 8005060:	3e01      	subs	r6, #1
 8005062:	d1f6      	bne.n	8005052 <gd32_i2c_read(char*, unsigned int)+0xe>
 8005064:	f7ff ff3a 	bl	8004edc <_stop() [clone .isra.0]>
 8005068:	2504      	movs	r5, #4
 800506a:	e082      	b.n	8005172 <gd32_i2c_read(char*, unsigned int)+0x12e>
 800506c:	2c02      	cmp	r4, #2
 800506e:	d103      	bne.n	8005078 <gd32_i2c_read(char*, unsigned int)+0x34>
 8005070:	4601      	mov	r1, r0
 8005072:	4841      	ldr	r0, [pc, #260]	; (8005178 <gd32_i2c_read(char*, unsigned int)+0x134>)
 8005074:	f000 fad3 	bl	800561e <i2c_ackpos_config>
 8005078:	483f      	ldr	r0, [pc, #252]	; (8005178 <gd32_i2c_read(char*, unsigned int)+0x134>)
 800507a:	f000 fae6 	bl	800564a <i2c_start_on_bus>
 800507e:	f640 76ff 	movw	r6, #4095	; 0xfff
 8005082:	4f3d      	ldr	r7, [pc, #244]	; (8005178 <gd32_i2c_read(char*, unsigned int)+0x134>)
 8005084:	f44f 61a0 	mov.w	r1, #1280	; 0x500
 8005088:	4638      	mov	r0, r7
 800508a:	f000 faed 	bl	8005668 <i2c_flag_get>
 800508e:	b910      	cbnz	r0, 8005096 <gd32_i2c_read(char*, unsigned int)+0x52>
 8005090:	3e01      	subs	r6, #1
 8005092:	d1f7      	bne.n	8005084 <gd32_i2c_read(char*, unsigned int)+0x40>
 8005094:	e7e6      	b.n	8005064 <gd32_i2c_read(char*, unsigned int)+0x20>
 8005096:	4b39      	ldr	r3, [pc, #228]	; (800517c <gd32_i2c_read(char*, unsigned int)+0x138>)
 8005098:	2201      	movs	r2, #1
 800509a:	7819      	ldrb	r1, [r3, #0]
 800509c:	4836      	ldr	r0, [pc, #216]	; (8005178 <gd32_i2c_read(char*, unsigned int)+0x134>)
 800509e:	f000 fac7 	bl	8005630 <i2c_master_addressing>
 80050a2:	2c02      	cmp	r4, #2
 80050a4:	d803      	bhi.n	80050ae <gd32_i2c_read(char*, unsigned int)+0x6a>
 80050a6:	2100      	movs	r1, #0
 80050a8:	4833      	ldr	r0, [pc, #204]	; (8005178 <gd32_i2c_read(char*, unsigned int)+0x134>)
 80050aa:	f000 faaf 	bl	800560c <i2c_ack_config>
 80050ae:	f640 76ff 	movw	r6, #4095	; 0xfff
 80050b2:	4f31      	ldr	r7, [pc, #196]	; (8005178 <gd32_i2c_read(char*, unsigned int)+0x134>)
 80050b4:	f240 5101 	movw	r1, #1281	; 0x501
 80050b8:	4638      	mov	r0, r7
 80050ba:	f000 fad5 	bl	8005668 <i2c_flag_get>
 80050be:	b910      	cbnz	r0, 80050c6 <gd32_i2c_read(char*, unsigned int)+0x82>
 80050c0:	3e01      	subs	r6, #1
 80050c2:	d1f7      	bne.n	80050b4 <gd32_i2c_read(char*, unsigned int)+0x70>
 80050c4:	e7ce      	b.n	8005064 <gd32_i2c_read(char*, unsigned int)+0x20>
 80050c6:	f240 5101 	movw	r1, #1281	; 0x501
 80050ca:	482b      	ldr	r0, [pc, #172]	; (8005178 <gd32_i2c_read(char*, unsigned int)+0x134>)
 80050cc:	f000 fad4 	bl	8005678 <i2c_flag_clear>
 80050d0:	2c01      	cmp	r4, #1
 80050d2:	d102      	bne.n	80050da <gd32_i2c_read(char*, unsigned int)+0x96>
 80050d4:	4828      	ldr	r0, [pc, #160]	; (8005178 <gd32_i2c_read(char*, unsigned int)+0x134>)
 80050d6:	f000 fabd 	bl	8005654 <i2c_stop_on_bus>
 80050da:	f640 77ff 	movw	r7, #4095	; 0xfff
 80050de:	4e26      	ldr	r6, [pc, #152]	; (8005178 <gd32_i2c_read(char*, unsigned int)+0x134>)
 80050e0:	b3ac      	cbz	r4, 800514e <gd32_i2c_read(char*, unsigned int)+0x10a>
 80050e2:	2c03      	cmp	r4, #3
 80050e4:	d121      	bne.n	800512a <gd32_i2c_read(char*, unsigned int)+0xe6>
 80050e6:	f640 79ff 	movw	r9, #4095	; 0xfff
 80050ea:	f240 5102 	movw	r1, #1282	; 0x502
 80050ee:	4630      	mov	r0, r6
 80050f0:	f000 faba 	bl	8005668 <i2c_flag_get>
 80050f4:	b918      	cbnz	r0, 80050fe <gd32_i2c_read(char*, unsigned int)+0xba>
 80050f6:	f1b9 0901 	subs.w	r9, r9, #1
 80050fa:	d1f6      	bne.n	80050ea <gd32_i2c_read(char*, unsigned int)+0xa6>
 80050fc:	e7b2      	b.n	8005064 <gd32_i2c_read(char*, unsigned int)+0x20>
 80050fe:	2100      	movs	r1, #0
 8005100:	4630      	mov	r0, r6
 8005102:	f000 fa83 	bl	800560c <i2c_ack_config>
 8005106:	f240 5106 	movw	r1, #1286	; 0x506
 800510a:	4630      	mov	r0, r6
 800510c:	f000 faac 	bl	8005668 <i2c_flag_get>
 8005110:	b138      	cbz	r0, 8005122 <gd32_i2c_read(char*, unsigned int)+0xde>
 8005112:	4630      	mov	r0, r6
 8005114:	f000 faa5 	bl	8005662 <i2c_data_receive>
 8005118:	f640 77ff 	movw	r7, #4095	; 0xfff
 800511c:	f808 0b01 	strb.w	r0, [r8], #1
 8005120:	3c01      	subs	r4, #1
 8005122:	3f01      	subs	r7, #1
 8005124:	2f00      	cmp	r7, #0
 8005126:	dcdb      	bgt.n	80050e0 <gd32_i2c_read(char*, unsigned int)+0x9c>
 8005128:	e79c      	b.n	8005064 <gd32_i2c_read(char*, unsigned int)+0x20>
 800512a:	2c02      	cmp	r4, #2
 800512c:	d1eb      	bne.n	8005106 <gd32_i2c_read(char*, unsigned int)+0xc2>
 800512e:	f640 79ff 	movw	r9, #4095	; 0xfff
 8005132:	f240 5102 	movw	r1, #1282	; 0x502
 8005136:	4630      	mov	r0, r6
 8005138:	f000 fa96 	bl	8005668 <i2c_flag_get>
 800513c:	b918      	cbnz	r0, 8005146 <gd32_i2c_read(char*, unsigned int)+0x102>
 800513e:	f1b9 0901 	subs.w	r9, r9, #1
 8005142:	d1f6      	bne.n	8005132 <gd32_i2c_read(char*, unsigned int)+0xee>
 8005144:	e78e      	b.n	8005064 <gd32_i2c_read(char*, unsigned int)+0x20>
 8005146:	4630      	mov	r0, r6
 8005148:	f000 fa84 	bl	8005654 <i2c_stop_on_bus>
 800514c:	e7db      	b.n	8005106 <gd32_i2c_read(char*, unsigned int)+0xc2>
 800514e:	f640 73ff 	movw	r3, #4095	; 0xfff
 8005152:	4a0b      	ldr	r2, [pc, #44]	; (8005180 <gd32_i2c_read(char*, unsigned int)+0x13c>)
 8005154:	f8d2 1400 	ldr.w	r1, [r2, #1024]	; 0x400
 8005158:	0589      	lsls	r1, r1, #22
 800515a:	d502      	bpl.n	8005162 <gd32_i2c_read(char*, unsigned int)+0x11e>
 800515c:	3b01      	subs	r3, #1
 800515e:	d1f9      	bne.n	8005154 <gd32_i2c_read(char*, unsigned int)+0x110>
 8005160:	e782      	b.n	8005068 <gd32_i2c_read(char*, unsigned int)+0x24>
 8005162:	2101      	movs	r1, #1
 8005164:	4804      	ldr	r0, [pc, #16]	; (8005178 <gd32_i2c_read(char*, unsigned int)+0x134>)
 8005166:	f000 fa51 	bl	800560c <i2c_ack_config>
 800516a:	2101      	movs	r1, #1
 800516c:	4802      	ldr	r0, [pc, #8]	; (8005178 <gd32_i2c_read(char*, unsigned int)+0x134>)
 800516e:	f000 fa56 	bl	800561e <i2c_ackpos_config>
 8005172:	4628      	mov	r0, r5
 8005174:	e8bd 83f8 	ldmia.w	sp!, {r3, r4, r5, r6, r7, r8, r9, pc}
 8005178:	40005400 	andmi	r5, r0, r0, lsl #8
 800517c:	20001820 	andcs	r1, r0, r0, lsr #16
 8005180:	40005000 	andmi	r5, r0, r0

08005184 <gd32_uart_begin>:
 8005184:	b5f8      	push	{r3, r4, r5, r6, r7, lr}
 8005186:	4604      	mov	r4, r0
 8005188:	f44f 60c0 	mov.w	r0, #1536	; 0x600
 800518c:	461d      	mov	r5, r3
 800518e:	460f      	mov	r7, r1
 8005190:	4616      	mov	r6, r2
 8005192:	f7ff fbeb 	bl	800496c <rcu_periph_clock_enable>
 8005196:	4b5c      	ldr	r3, [pc, #368]	; (8005308 <gd32_uart_begin+0x184>)
 8005198:	429c      	cmp	r4, r3
 800519a:	f000 8083 	beq.w	80052a4 <gd32_uart_begin+0x120>
 800519e:	d857      	bhi.n	8005250 <gd32_uart_begin+0xcc>
 80051a0:	f5a3 6300 	sub.w	r3, r3, #2048	; 0x800
 80051a4:	429c      	cmp	r4, r3
 80051a6:	d06d      	beq.n	8005284 <gd32_uart_begin+0x100>
 80051a8:	f240 7012 	movw	r0, #1810	; 0x712
 80051ac:	f7ff fbde 	bl	800496c <rcu_periph_clock_enable>
 80051b0:	f240 6004 	movw	r0, #1540	; 0x604
 80051b4:	f7ff fbda 	bl	800496c <rcu_periph_clock_enable>
 80051b8:	f44f 6380 	mov.w	r3, #1024	; 0x400
 80051bc:	2203      	movs	r2, #3
 80051be:	2118      	movs	r1, #24
 80051c0:	4852      	ldr	r0, [pc, #328]	; (800530c <gd32_uart_begin+0x188>)
 80051c2:	f7ff fb3f 	bl	8004844 <gpio_init>
 80051c6:	2104      	movs	r1, #4
 80051c8:	4850      	ldr	r0, [pc, #320]	; (800530c <gd32_uart_begin+0x188>)
 80051ca:	f44f 6300 	mov.w	r3, #2048	; 0x800
 80051ce:	2203      	movs	r2, #3
 80051d0:	f7ff fb38 	bl	8004844 <gpio_init>
 80051d4:	2101      	movs	r1, #1
 80051d6:	484e      	ldr	r0, [pc, #312]	; (8005310 <gd32_uart_begin+0x18c>)
 80051d8:	f7ff fb8e 	bl	80048f8 <gpio_pin_remap_config>
 80051dc:	4620      	mov	r0, r4
 80051de:	f7ff fd69 	bl	8004cb4 <usart_deinit>
 80051e2:	68e3      	ldr	r3, [r4, #12]
 80051e4:	4639      	mov	r1, r7
 80051e6:	f423 5300 	bic.w	r3, r3, #8192	; 0x2000
 80051ea:	60e3      	str	r3, [r4, #12]
 80051ec:	4620      	mov	r0, r4
 80051ee:	f7ff fda1 	bl	8004d34 <usart_baudrate_set>
 80051f2:	2e09      	cmp	r6, #9
 80051f4:	bf0c      	ite	eq
 80051f6:	f44f 5180 	moveq.w	r1, #4096	; 0x1000
 80051fa:	2100      	movne	r1, #0
 80051fc:	4620      	mov	r0, r4
 80051fe:	f7ff fdc9 	bl	8004d94 <usart_word_length_set>
 8005202:	9b06      	ldr	r3, [sp, #24]
 8005204:	4620      	mov	r0, r4
 8005206:	2b02      	cmp	r3, #2
 8005208:	bf0c      	ite	eq
 800520a:	f44f 5100 	moveq.w	r1, #8192	; 0x2000
 800520e:	2100      	movne	r1, #0
 8005210:	f7ff fdc8 	bl	8004da4 <usart_stop_bit_set>
 8005214:	2d01      	cmp	r5, #1
 8005216:	d072      	beq.n	80052fe <gd32_uart_begin+0x17a>
 8005218:	2d02      	cmp	r5, #2
 800521a:	d173      	bne.n	8005304 <gd32_uart_begin+0x180>
 800521c:	f44f 6180 	mov.w	r1, #1024	; 0x400
 8005220:	4620      	mov	r0, r4
 8005222:	f7ff fdaf 	bl	8004d84 <usart_parity_config>
 8005226:	2100      	movs	r1, #0
 8005228:	4620      	mov	r0, r4
 800522a:	f7ff fdcf 	bl	8004dcc <usart_hardware_flow_rts_config>
 800522e:	2100      	movs	r1, #0
 8005230:	4620      	mov	r0, r4
 8005232:	f7ff fdd1 	bl	8004dd8 <usart_hardware_flow_cts_config>
 8005236:	2104      	movs	r1, #4
 8005238:	4620      	mov	r0, r4
 800523a:	f7ff fdc1 	bl	8004dc0 <usart_receive_config>
 800523e:	2108      	movs	r1, #8
 8005240:	4620      	mov	r0, r4
 8005242:	f7ff fdb7 	bl	8004db4 <usart_transmit_config>
 8005246:	68e3      	ldr	r3, [r4, #12]
 8005248:	f443 5300 	orr.w	r3, r3, #8192	; 0x2000
 800524c:	60e3      	str	r3, [r4, #12]
 800524e:	bdf8      	pop	{r3, r4, r5, r6, r7, pc}
 8005250:	4b30      	ldr	r3, [pc, #192]	; (8005314 <gd32_uart_begin+0x190>)
 8005252:	429c      	cmp	r4, r3
 8005254:	d03b      	beq.n	80052ce <gd32_uart_begin+0x14a>
 8005256:	f240 600e 	movw	r0, #1550	; 0x60e
 800525a:	f7ff fb87 	bl	800496c <rcu_periph_clock_enable>
 800525e:	f240 6002 	movw	r0, #1538	; 0x602
 8005262:	f7ff fb83 	bl	800496c <rcu_periph_clock_enable>
 8005266:	f44f 7300 	mov.w	r3, #512	; 0x200
 800526a:	2203      	movs	r2, #3
 800526c:	2118      	movs	r1, #24
 800526e:	482a      	ldr	r0, [pc, #168]	; (8005318 <gd32_uart_begin+0x194>)
 8005270:	f7ff fae8 	bl	8004844 <gpio_init>
 8005274:	f44f 6380 	mov.w	r3, #1024	; 0x400
 8005278:	2203      	movs	r2, #3
 800527a:	2104      	movs	r1, #4
 800527c:	4826      	ldr	r0, [pc, #152]	; (8005318 <gd32_uart_begin+0x194>)
 800527e:	f7ff fae1 	bl	8004844 <gpio_init>
 8005282:	e7ab      	b.n	80051dc <gd32_uart_begin+0x58>
 8005284:	f240 7011 	movw	r0, #1809	; 0x711
 8005288:	f7ff fb70 	bl	800496c <rcu_periph_clock_enable>
 800528c:	f240 6002 	movw	r0, #1538	; 0x602
 8005290:	f7ff fb6c 	bl	800496c <rcu_periph_clock_enable>
 8005294:	2304      	movs	r3, #4
 8005296:	2203      	movs	r2, #3
 8005298:	2118      	movs	r1, #24
 800529a:	481f      	ldr	r0, [pc, #124]	; (8005318 <gd32_uart_begin+0x194>)
 800529c:	f7ff fad2 	bl	8004844 <gpio_init>
 80052a0:	2308      	movs	r3, #8
 80052a2:	e7e9      	b.n	8005278 <gd32_uart_begin+0xf4>
 80052a4:	f240 7013 	movw	r0, #1811	; 0x713
 80052a8:	f7ff fb60 	bl	800496c <rcu_periph_clock_enable>
 80052ac:	f240 6004 	movw	r0, #1540	; 0x604
 80052b0:	f7ff fb5c 	bl	800496c <rcu_periph_clock_enable>
 80052b4:	f44f 6380 	mov.w	r3, #1024	; 0x400
 80052b8:	2203      	movs	r2, #3
 80052ba:	2118      	movs	r1, #24
 80052bc:	4813      	ldr	r0, [pc, #76]	; (800530c <gd32_uart_begin+0x188>)
 80052be:	f7ff fac1 	bl	8004844 <gpio_init>
 80052c2:	f44f 6300 	mov.w	r3, #2048	; 0x800
 80052c6:	2203      	movs	r2, #3
 80052c8:	2104      	movs	r1, #4
 80052ca:	4810      	ldr	r0, [pc, #64]	; (800530c <gd32_uart_begin+0x188>)
 80052cc:	e7d7      	b.n	800527e <gd32_uart_begin+0xfa>
 80052ce:	f240 7014 	movw	r0, #1812	; 0x714
 80052d2:	f7ff fb4b 	bl	800496c <rcu_periph_clock_enable>
 80052d6:	f240 6004 	movw	r0, #1540	; 0x604
 80052da:	f7ff fb47 	bl	800496c <rcu_periph_clock_enable>
 80052de:	f240 6005 	movw	r0, #1541	; 0x605
 80052e2:	f7ff fb43 	bl	800496c <rcu_periph_clock_enable>
 80052e6:	f44f 5380 	mov.w	r3, #4096	; 0x1000
 80052ea:	2203      	movs	r2, #3
 80052ec:	2118      	movs	r1, #24
 80052ee:	4807      	ldr	r0, [pc, #28]	; (800530c <gd32_uart_begin+0x188>)
 80052f0:	f7ff faa8 	bl	8004844 <gpio_init>
 80052f4:	2304      	movs	r3, #4
 80052f6:	2203      	movs	r2, #3
 80052f8:	4619      	mov	r1, r3
 80052fa:	4808      	ldr	r0, [pc, #32]	; (800531c <gd32_uart_begin+0x198>)
 80052fc:	e7bf      	b.n	800527e <gd32_uart_begin+0xfa>
 80052fe:	f44f 61c0 	mov.w	r1, #1536	; 0x600
 8005302:	e78d      	b.n	8005220 <gd32_uart_begin+0x9c>
 8005304:	2100      	movs	r1, #0
 8005306:	e78b      	b.n	8005220 <gd32_uart_begin+0x9c>
 8005308:	40004c00 	andmi	r4, r0, r0, lsl #24
 800530c:	40011000 	andmi	r1, r1, r0
 8005310:	00140010 	andseq	r0, r4, r0, lsl r0
 8005314:	40005000 	andmi	r5, r0, r0
 8005318:	40010800 	andmi	r0, r1, r0, lsl #16
 800531c:	40011400 	andmi	r1, r1, r0, lsl #8

08005320 <micros_init()>:
 8005320:	4770      	bx	lr
	...

08005324 <udelay_init()>:
 8005324:	4a07      	ldr	r2, [pc, #28]	; (8005344 <udelay_init()+0x20>)
 8005326:	f8d2 30fc 	ldr.w	r3, [r2, #252]	; 0xfc
 800532a:	f043 7380 	orr.w	r3, r3, #16777216	; 0x1000000
 800532e:	f8c2 30fc 	str.w	r3, [r2, #252]	; 0xfc
 8005332:	2200      	movs	r2, #0
 8005334:	4b04      	ldr	r3, [pc, #16]	; (8005348 <udelay_init()+0x24>)
 8005336:	605a      	str	r2, [r3, #4]
 8005338:	681a      	ldr	r2, [r3, #0]
 800533a:	f042 0201 	orr.w	r2, r2, #1
 800533e:	601a      	str	r2, [r3, #0]
 8005340:	4770      	bx	lr
 8005342:	bf00      	nop
 8005344:	e000ed00 	and	lr, r0, r0, lsl #26
 8005348:	e0001000 	and	r1, r0, r0

0800534c <udelay(unsigned int, unsigned int)>:
 800534c:	236c      	movs	r3, #108	; 0x6c
 800534e:	b510      	push	{r4, lr}
 8005350:	4358      	muls	r0, r3
 8005352:	b909      	cbnz	r1, 8005358 <udelay(unsigned int, unsigned int)+0xc>
 8005354:	4b08      	ldr	r3, [pc, #32]	; (8005378 <udelay(unsigned int, unsigned int)+0x2c>)
 8005356:	6859      	ldr	r1, [r3, #4]
 8005358:	2300      	movs	r3, #0
 800535a:	4c07      	ldr	r4, [pc, #28]	; (8005378 <udelay(unsigned int, unsigned int)+0x2c>)
 800535c:	6862      	ldr	r2, [r4, #4]
 800535e:	4291      	cmp	r1, r2
 8005360:	d0fc      	beq.n	800535c <udelay(unsigned int, unsigned int)+0x10>
 8005362:	bf28      	it	cs
 8005364:	f103 33ff 	addcs.w	r3, r3, #4294967295	; 0xffffffff
 8005368:	1a5b      	subs	r3, r3, r1
 800536a:	4413      	add	r3, r2
 800536c:	4283      	cmp	r3, r0
 800536e:	d300      	bcc.n	8005372 <udelay(unsigned int, unsigned int)+0x26>
 8005370:	bd10      	pop	{r4, pc}
 8005372:	4611      	mov	r1, r2
 8005374:	e7f2      	b.n	800535c <udelay(unsigned int, unsigned int)+0x10>
 8005376:	bf00      	nop
 8005378:	e0001000 	and	r1, r0, r0

0800537c <adc_mode_config>:
 800537c:	4b06      	ldr	r3, [pc, #24]	; (8005398 <adc_mode_config+0x1c>)
 800537e:	f8d3 1404 	ldr.w	r1, [r3, #1028]	; 0x404
 8005382:	f421 2170 	bic.w	r1, r1, #983040	; 0xf0000
 8005386:	f8c3 1404 	str.w	r1, [r3, #1028]	; 0x404
 800538a:	f8d3 2404 	ldr.w	r2, [r3, #1028]	; 0x404
 800538e:	4302      	orrs	r2, r0
 8005390:	f8c3 2404 	str.w	r2, [r3, #1028]	; 0x404
 8005394:	4770      	bx	lr
 8005396:	bf00      	nop
 8005398:	40012000 	andmi	r2, r1, r0

0800539c <adc_special_function_config>:
 800539c:	b510      	push	{r4, lr}
 800539e:	f401 7380 	and.w	r3, r1, #256	; 0x100
 80053a2:	f401 6480 	and.w	r4, r1, #1024	; 0x400
 80053a6:	f001 0102 	and.w	r1, r1, #2
 80053aa:	b17a      	cbz	r2, 80053cc <adc_special_function_config+0x30>
 80053ac:	b11b      	cbz	r3, 80053b6 <adc_special_function_config+0x1a>
 80053ae:	6843      	ldr	r3, [r0, #4]
 80053b0:	f443 7380 	orr.w	r3, r3, #256	; 0x100
 80053b4:	6043      	str	r3, [r0, #4]
 80053b6:	b11c      	cbz	r4, 80053c0 <adc_special_function_config+0x24>
 80053b8:	6843      	ldr	r3, [r0, #4]
 80053ba:	f443 6380 	orr.w	r3, r3, #1024	; 0x400
 80053be:	6043      	str	r3, [r0, #4]
 80053c0:	b119      	cbz	r1, 80053ca <adc_special_function_config+0x2e>
 80053c2:	6883      	ldr	r3, [r0, #8]
 80053c4:	f043 0302 	orr.w	r3, r3, #2
 80053c8:	6083      	str	r3, [r0, #8]
 80053ca:	bd10      	pop	{r4, pc}
 80053cc:	b11b      	cbz	r3, 80053d6 <adc_special_function_config+0x3a>
 80053ce:	6843      	ldr	r3, [r0, #4]
 80053d0:	f423 7380 	bic.w	r3, r3, #256	; 0x100
 80053d4:	6043      	str	r3, [r0, #4]
 80053d6:	b11c      	cbz	r4, 80053e0 <adc_special_function_config+0x44>
 80053d8:	6843      	ldr	r3, [r0, #4]
 80053da:	f423 6380 	bic.w	r3, r3, #1024	; 0x400
 80053de:	6043      	str	r3, [r0, #4]
 80053e0:	2900      	cmp	r1, #0
 80053e2:	d0f2      	beq.n	80053ca <adc_special_function_config+0x2e>
 80053e4:	6883      	ldr	r3, [r0, #8]
 80053e6:	f023 0302 	bic.w	r3, r3, #2
 80053ea:	e7ed      	b.n	80053c8 <adc_special_function_config+0x2c>

080053ec <adc_data_alignment_config>:
 80053ec:	6883      	ldr	r3, [r0, #8]
 80053ee:	b119      	cbz	r1, 80053f8 <adc_data_alignment_config+0xc>
 80053f0:	f443 6300 	orr.w	r3, r3, #2048	; 0x800
 80053f4:	6083      	str	r3, [r0, #8]
 80053f6:	4770      	bx	lr
 80053f8:	f423 6300 	bic.w	r3, r3, #2048	; 0x800
 80053fc:	e7fa      	b.n	80053f4 <adc_data_alignment_config+0x8>

080053fe <adc_enable>:
 80053fe:	6883      	ldr	r3, [r0, #8]
 8005400:	07db      	lsls	r3, r3, #31
 8005402:	bf5e      	ittt	pl
 8005404:	6883      	ldrpl	r3, [r0, #8]
 8005406:	f043 0301 	orrpl.w	r3, r3, #1
 800540a:	6083      	strpl	r3, [r0, #8]
 800540c:	4770      	bx	lr

0800540e <adc_calibration_enable>:
 800540e:	6883      	ldr	r3, [r0, #8]
 8005410:	f100 0208 	add.w	r2, r0, #8
 8005414:	f043 0308 	orr.w	r3, r3, #8
 8005418:	6083      	str	r3, [r0, #8]
 800541a:	6813      	ldr	r3, [r2, #0]
 800541c:	0719      	lsls	r1, r3, #28
 800541e:	d4fc      	bmi.n	800541a <adc_calibration_enable+0xc>
 8005420:	6883      	ldr	r3, [r0, #8]
 8005422:	f043 0304 	orr.w	r3, r3, #4
 8005426:	6083      	str	r3, [r0, #8]
 8005428:	6813      	ldr	r3, [r2, #0]
 800542a:	075b      	lsls	r3, r3, #29
 800542c:	d4fc      	bmi.n	8005428 <adc_calibration_enable+0x1a>
 800542e:	4770      	bx	lr

08005430 <adc_tempsensor_vrefint_enable>:
 8005430:	4a03      	ldr	r2, [pc, #12]	; (8005440 <adc_tempsensor_vrefint_enable+0x10>)
 8005432:	f8d2 3408 	ldr.w	r3, [r2, #1032]	; 0x408
 8005436:	f443 0300 	orr.w	r3, r3, #8388608	; 0x800000
 800543a:	f8c2 3408 	str.w	r3, [r2, #1032]	; 0x408
 800543e:	4770      	bx	lr
 8005440:	40012000 	andmi	r2, r1, r0

08005444 <adc_channel_length_config>:
 8005444:	2901      	cmp	r1, #1
 8005446:	d002      	beq.n	800544e <adc_channel_length_config+0xa>
 8005448:	2902      	cmp	r1, #2
 800544a:	d00c      	beq.n	8005466 <adc_channel_length_config+0x22>
 800544c:	4770      	bx	lr
 800544e:	6ac3      	ldr	r3, [r0, #44]	; 0x2c
 8005450:	3a01      	subs	r2, #1
 8005452:	f423 0370 	bic.w	r3, r3, #15728640	; 0xf00000
 8005456:	62c3      	str	r3, [r0, #44]	; 0x2c
 8005458:	6ac3      	ldr	r3, [r0, #44]	; 0x2c
 800545a:	0512      	lsls	r2, r2, #20
 800545c:	f402 0270 	and.w	r2, r2, #15728640	; 0xf00000
 8005460:	431a      	orrs	r2, r3
 8005462:	62c2      	str	r2, [r0, #44]	; 0x2c
 8005464:	4770      	bx	lr
 8005466:	6b83      	ldr	r3, [r0, #56]	; 0x38
 8005468:	3a01      	subs	r2, #1
 800546a:	f423 1340 	bic.w	r3, r3, #3145728	; 0x300000
 800546e:	6383      	str	r3, [r0, #56]	; 0x38
 8005470:	6b83      	ldr	r3, [r0, #56]	; 0x38
 8005472:	0512      	lsls	r2, r2, #20
 8005474:	f402 1240 	and.w	r2, r2, #3145728	; 0x300000
 8005478:	431a      	orrs	r2, r3
 800547a:	6382      	str	r2, [r0, #56]	; 0x38
 800547c:	4770      	bx	lr

0800547e <adc_inserted_channel_config>:
 800547e:	b530      	push	{r4, r5, lr}
 8005480:	6b84      	ldr	r4, [r0, #56]	; 0x38
 8005482:	6b85      	ldr	r5, [r0, #56]	; 0x38
 8005484:	f3c4 5401 	ubfx	r4, r4, #20, #2
 8005488:	1a61      	subs	r1, r4, r1
 800548a:	f06f 0404 	mvn.w	r4, #4
 800548e:	4361      	muls	r1, r4
 8005490:	241f      	movs	r4, #31
 8005492:	310f      	adds	r1, #15
 8005494:	408c      	lsls	r4, r1
 8005496:	ea25 0504 	bic.w	r5, r5, r4
 800549a:	fa02 f101 	lsl.w	r1, r2, r1
 800549e:	4329      	orrs	r1, r5
 80054a0:	2a09      	cmp	r2, #9
 80054a2:	6381      	str	r1, [r0, #56]	; 0x38
 80054a4:	d80b      	bhi.n	80054be <adc_inserted_channel_config+0x40>
 80054a6:	eb02 0142 	add.w	r1, r2, r2, lsl #1
 80054aa:	2207      	movs	r2, #7
 80054ac:	6904      	ldr	r4, [r0, #16]
 80054ae:	408a      	lsls	r2, r1
 80054b0:	ea24 0402 	bic.w	r4, r4, r2
 80054b4:	fa03 f201 	lsl.w	r2, r3, r1
 80054b8:	4322      	orrs	r2, r4
 80054ba:	6102      	str	r2, [r0, #16]
 80054bc:	bd30      	pop	{r4, r5, pc}
 80054be:	2a11      	cmp	r2, #17
 80054c0:	d8fc      	bhi.n	80054bc <adc_inserted_channel_config+0x3e>
 80054c2:	2407      	movs	r4, #7
 80054c4:	3a0a      	subs	r2, #10
 80054c6:	68c1      	ldr	r1, [r0, #12]
 80054c8:	eb02 0242 	add.w	r2, r2, r2, lsl #1
 80054cc:	4094      	lsls	r4, r2
 80054ce:	ea21 0104 	bic.w	r1, r1, r4
 80054d2:	fa03 f202 	lsl.w	r2, r3, r2
 80054d6:	430a      	orrs	r2, r1
 80054d8:	60c2      	str	r2, [r0, #12]
 80054da:	e7ef      	b.n	80054bc <adc_inserted_channel_config+0x3e>

080054dc <adc_external_trigger_source_config>:
 80054dc:	2901      	cmp	r1, #1
 80054de:	d002      	beq.n	80054e6 <adc_external_trigger_source_config+0xa>
 80054e0:	2902      	cmp	r1, #2
 80054e2:	d008      	beq.n	80054f6 <adc_external_trigger_source_config+0x1a>
 80054e4:	4770      	bx	lr
 80054e6:	6883      	ldr	r3, [r0, #8]
 80054e8:	f423 2360 	bic.w	r3, r3, #917504	; 0xe0000
 80054ec:	6083      	str	r3, [r0, #8]
 80054ee:	6883      	ldr	r3, [r0, #8]
 80054f0:	431a      	orrs	r2, r3
 80054f2:	6082      	str	r2, [r0, #8]
 80054f4:	4770      	bx	lr
 80054f6:	6883      	ldr	r3, [r0, #8]
 80054f8:	f423 43e0 	bic.w	r3, r3, #28672	; 0x7000
 80054fc:	e7f6      	b.n	80054ec <adc_external_trigger_source_config+0x10>

080054fe <adc_external_trigger_config>:
 80054fe:	f001 0301 	and.w	r3, r1, #1
 8005502:	f001 0102 	and.w	r1, r1, #2
 8005506:	b152      	cbz	r2, 800551e <adc_external_trigger_config+0x20>
 8005508:	b11b      	cbz	r3, 8005512 <adc_external_trigger_config+0x14>
 800550a:	6883      	ldr	r3, [r0, #8]
 800550c:	f443 1380 	orr.w	r3, r3, #1048576	; 0x100000
 8005510:	6083      	str	r3, [r0, #8]
 8005512:	b119      	cbz	r1, 800551c <adc_external_trigger_config+0x1e>
 8005514:	6883      	ldr	r3, [r0, #8]
 8005516:	f443 4300 	orr.w	r3, r3, #32768	; 0x8000
 800551a:	6083      	str	r3, [r0, #8]
 800551c:	4770      	bx	lr
 800551e:	b11b      	cbz	r3, 8005528 <adc_external_trigger_config+0x2a>
 8005520:	6883      	ldr	r3, [r0, #8]
 8005522:	f423 1380 	bic.w	r3, r3, #1048576	; 0x100000
 8005526:	6083      	str	r3, [r0, #8]
 8005528:	2900      	cmp	r1, #0
 800552a:	d0f7      	beq.n	800551c <adc_external_trigger_config+0x1e>
 800552c:	6883      	ldr	r3, [r0, #8]
 800552e:	f423 4300 	bic.w	r3, r3, #32768	; 0x8000
 8005532:	e7f2      	b.n	800551a <adc_external_trigger_config+0x1c>

08005534 <adc_software_trigger_enable>:
 8005534:	07ca      	lsls	r2, r1, #31
 8005536:	bf42      	ittt	mi
 8005538:	6883      	ldrmi	r3, [r0, #8]
 800553a:	f443 0380 	orrmi.w	r3, r3, #4194304	; 0x400000
 800553e:	6083      	strmi	r3, [r0, #8]
 8005540:	078b      	lsls	r3, r1, #30
 8005542:	bf42      	ittt	mi
 8005544:	6883      	ldrmi	r3, [r0, #8]
 8005546:	f443 1300 	orrmi.w	r3, r3, #2097152	; 0x200000
 800554a:	6083      	strmi	r3, [r0, #8]
 800554c:	4770      	bx	lr
	...

08005550 <i2c_clock_config>:
 8005550:	b5f8      	push	{r3, r4, r5, r6, r7, lr}
 8005552:	4605      	mov	r5, r0
 8005554:	2002      	movs	r0, #2
 8005556:	460c      	mov	r4, r1
 8005558:	4617      	mov	r7, r2
 800555a:	f7ff fa47 	bl	80049ec <rcu_clock_freq_get>
 800555e:	4927      	ldr	r1, [pc, #156]	; (80055fc <i2c_clock_config+0xac>)
 8005560:	4a27      	ldr	r2, [pc, #156]	; (8005600 <i2c_clock_config+0xb0>)
 8005562:	fbb0 f1f1 	udiv	r1, r0, r1
 8005566:	4290      	cmp	r0, r2
 8005568:	bf34      	ite	cc
 800556a:	460b      	movcc	r3, r1
 800556c:	2336      	movcs	r3, #54	; 0x36
 800556e:	686e      	ldr	r6, [r5, #4]
 8005570:	4a24      	ldr	r2, [pc, #144]	; (8005604 <i2c_clock_config+0xb4>)
 8005572:	f026 063f 	bic.w	r6, r6, #63	; 0x3f
 8005576:	431e      	orrs	r6, r3
 8005578:	4294      	cmp	r4, r2
 800557a:	606e      	str	r6, [r5, #4]
 800557c:	d816      	bhi.n	80055ac <i2c_clock_config+0x5c>
 800557e:	3101      	adds	r1, #1
 8005580:	2935      	cmp	r1, #53	; 0x35
 8005582:	d90d      	bls.n	80055a0 <i2c_clock_config+0x50>
 8005584:	2336      	movs	r3, #54	; 0x36
 8005586:	622b      	str	r3, [r5, #32]
 8005588:	0064      	lsls	r4, r4, #1
 800558a:	fbb0 f4f4 	udiv	r4, r0, r4
 800558e:	2c04      	cmp	r4, #4
 8005590:	bf38      	it	cc
 8005592:	2404      	movcc	r4, #4
 8005594:	69e8      	ldr	r0, [r5, #28]
 8005596:	f3c4 040b 	ubfx	r4, r4, #0, #12
 800559a:	4304      	orrs	r4, r0
 800559c:	61ec      	str	r4, [r5, #28]
 800559e:	bdf8      	pop	{r3, r4, r5, r6, r7, pc}
 80055a0:	2902      	cmp	r1, #2
 80055a2:	d801      	bhi.n	80055a8 <i2c_clock_config+0x58>
 80055a4:	2302      	movs	r3, #2
 80055a6:	e7ee      	b.n	8005586 <i2c_clock_config+0x36>
 80055a8:	6229      	str	r1, [r5, #32]
 80055aa:	e7ed      	b.n	8005588 <i2c_clock_config+0x38>
 80055ac:	4a16      	ldr	r2, [pc, #88]	; (8005608 <i2c_clock_config+0xb8>)
 80055ae:	4294      	cmp	r4, r2
 80055b0:	d8f5      	bhi.n	800559e <i2c_clock_config+0x4e>
 80055b2:	f44f 7296 	mov.w	r2, #300	; 0x12c
 80055b6:	4353      	muls	r3, r2
 80055b8:	f44f 727a 	mov.w	r2, #1000	; 0x3e8
 80055bc:	fbb3 f3f2 	udiv	r3, r3, r2
 80055c0:	3301      	adds	r3, #1
 80055c2:	622b      	str	r3, [r5, #32]
 80055c4:	b997      	cbnz	r7, 80055ec <i2c_clock_config+0x9c>
 80055c6:	eb04 0444 	add.w	r4, r4, r4, lsl #1
 80055ca:	fbb0 f4f4 	udiv	r4, r0, r4
 80055ce:	69eb      	ldr	r3, [r5, #28]
 80055d0:	f423 4380 	bic.w	r3, r3, #16384	; 0x4000
 80055d4:	61eb      	str	r3, [r5, #28]
 80055d6:	f3c4 030b 	ubfx	r3, r4, #0, #12
 80055da:	b90b      	cbnz	r3, 80055e0 <i2c_clock_config+0x90>
 80055dc:	f044 0401 	orr.w	r4, r4, #1
 80055e0:	69eb      	ldr	r3, [r5, #28]
 80055e2:	f443 4300 	orr.w	r3, r3, #32768	; 0x8000
 80055e6:	61eb      	str	r3, [r5, #28]
 80055e8:	69e8      	ldr	r0, [r5, #28]
 80055ea:	e7d6      	b.n	800559a <i2c_clock_config+0x4a>
 80055ec:	2119      	movs	r1, #25
 80055ee:	434c      	muls	r4, r1
 80055f0:	69eb      	ldr	r3, [r5, #28]
 80055f2:	fbb0 f4f4 	udiv	r4, r0, r4
 80055f6:	f443 4380 	orr.w	r3, r3, #16384	; 0x4000
 80055fa:	e7eb      	b.n	80055d4 <i2c_clock_config+0x84>
 80055fc:	000f4240 	andeq	r4, pc, r0, asr #4
 8005600:	0337f980 	teqeq	r7, #128, 18	; 0x200000	; <UNPREDICTABLE>
 8005604:	000186a0 	andeq	r8, r1, r0, lsr #13
 8005608:	00061a80 	andeq	r1, r6, r0, lsl #21

0800560c <i2c_ack_config>:
 800560c:	6803      	ldr	r3, [r0, #0]
 800560e:	2901      	cmp	r1, #1
 8005610:	bf0c      	ite	eq
 8005612:	f443 6380 	orreq.w	r3, r3, #1024	; 0x400
 8005616:	f423 6380 	bicne.w	r3, r3, #1024	; 0x400
 800561a:	6003      	str	r3, [r0, #0]
 800561c:	4770      	bx	lr

0800561e <i2c_ackpos_config>:
 800561e:	6803      	ldr	r3, [r0, #0]
 8005620:	b919      	cbnz	r1, 800562a <i2c_ackpos_config+0xc>
 8005622:	f443 6300 	orr.w	r3, r3, #2048	; 0x800
 8005626:	6003      	str	r3, [r0, #0]
 8005628:	4770      	bx	lr
 800562a:	f423 6300 	bic.w	r3, r3, #2048	; 0x800
 800562e:	e7fa      	b.n	8005626 <i2c_ackpos_config+0x8>

08005630 <i2c_master_addressing>:
 8005630:	3202      	adds	r2, #2
 8005632:	bf0c      	ite	eq
 8005634:	f021 0101 	biceq.w	r1, r1, #1
 8005638:	f041 0101 	orrne.w	r1, r1, #1
 800563c:	6101      	str	r1, [r0, #16]
 800563e:	4770      	bx	lr

08005640 <i2c_enable>:
 8005640:	6803      	ldr	r3, [r0, #0]
 8005642:	f043 0301 	orr.w	r3, r3, #1
 8005646:	6003      	str	r3, [r0, #0]
 8005648:	4770      	bx	lr

0800564a <i2c_start_on_bus>:
 800564a:	6803      	ldr	r3, [r0, #0]
 800564c:	f443 7380 	orr.w	r3, r3, #256	; 0x100
 8005650:	6003      	str	r3, [r0, #0]
 8005652:	4770      	bx	lr

08005654 <i2c_stop_on_bus>:
 8005654:	6803      	ldr	r3, [r0, #0]
 8005656:	f443 7300 	orr.w	r3, r3, #512	; 0x200
 800565a:	6003      	str	r3, [r0, #0]
 800565c:	4770      	bx	lr

0800565e <i2c_data_transmit>:
 800565e:	6101      	str	r1, [r0, #16]
 8005660:	4770      	bx	lr

08005662 <i2c_data_receive>:
 8005662:	6900      	ldr	r0, [r0, #16]
 8005664:	b2c0      	uxtb	r0, r0
 8005666:	4770      	bx	lr

08005668 <i2c_flag_get>:
 8005668:	098b      	lsrs	r3, r1, #6
 800566a:	5818      	ldr	r0, [r3, r0]
 800566c:	f001 011f 	and.w	r1, r1, #31
 8005670:	40c8      	lsrs	r0, r1
 8005672:	f000 0001 	and.w	r0, r0, #1
 8005676:	4770      	bx	lr

08005678 <i2c_flag_clear>:
 8005678:	f240 5301 	movw	r3, #1281	; 0x501
 800567c:	4299      	cmp	r1, r3
 800567e:	b510      	push	{r4, lr}
 8005680:	d102      	bne.n	8005688 <i2c_flag_clear+0x10>
 8005682:	6943      	ldr	r3, [r0, #20]
 8005684:	6983      	ldr	r3, [r0, #24]
 8005686:	bd10      	pop	{r4, pc}
 8005688:	2201      	movs	r2, #1
 800568a:	098c      	lsrs	r4, r1, #6
 800568c:	5823      	ldr	r3, [r4, r0]
 800568e:	f001 011f 	and.w	r1, r1, #31
 8005692:	fa02 f101 	lsl.w	r1, r2, r1
 8005696:	ea23 0101 	bic.w	r1, r3, r1
 800569a:	5021      	str	r1, [r4, r0]
 800569c:	e7f3      	b.n	8005686 <i2c_flag_clear+0xe>
	...

Disassembly of section .rodata:

080056a0 <deviceLabel-0x100>:
	...
 80056a8:	04030201 	streq	r0, [r3], #-513	; 0xfffffdff
 80056ac:	09080706 	stmdbeq	r8, {r1, r2, r8, r9, sl}
 80056b0:	00000000 	andeq	r0, r0, r0
 80056b4:	04030201 	streq	r0, [r3], #-513	; 0xfffffdff
 80056b8:	206e614a 	rsbcs	r6, lr, sl, asr #2
 80056bc:	32203820 	eorcc	r3, r0, #32, 16	; 0x200000
 80056c0:	00323230 	eorseq	r3, r2, r0, lsr r2
 80056c4:	32334447 	eorscc	r4, r3, #1191182336	; 0x47000000
 80056c8:	33303146 	teqcc	r0, #-2147483631	; 0x80000011
 80056cc:	565b0052 			; <UNDEFINED> instruction: 0x565b0052
 80056d0:	205d7325 	subscs	r7, sp, r5, lsr #6
 80056d4:	43207325 			; <UNDEFINED> instruction: 0x43207325
 80056d8:	69706d6f 	ldmdbvs	r0!, {r0, r1, r2, r3, r5, r6, r8, sl, fp, sp, lr}^
 80056dc:	2064656c 	rsbcs	r6, r4, ip, ror #10
 80056e0:	25206e6f 	strcs	r6, [r0, #-3695]!	; 0xfffff191
 80056e4:	74612073 	strbtvc	r2, [r1], #-115	; 0xffffff8d
 80056e8:	0a732520 	beq	9cceb70 <__exidx_end+0x1cc8bf8>
 80056ec:	3a323100 	bcc	8c91af4 <__exidx_end+0xc8bb7c>
 80056f0:	353a3635 	ldrcc	r3, [sl, #-1589]!	; 0xfffff9cb
 80056f4:	44520031 	ldrbmi	r0, [r2], #-49	; 0xffffffcf
 80056f8:	6f43204d 	svcvs	0x0043204d
 80056fc:	6f72746e 	svcvs	0x0072746e
 8005700:	72656c6c 	rsbvc	r6, r5, #108, 24	; 0x6c00
 8005704:	74697720 	strbtvc	r7, [r9], #-1824	; 0xfffff8e0
 8005708:	53552068 	cmppl	r5, #104	; 0x68
 800570c:	435b2042 	cmpmi	fp, #66	; 0x42
 8005710:	61706d6f 	cmnvs	r0, pc, ror #26
 8005714:	6c626974 			; <UNDEFINED> instruction: 0x6c626974
 8005718:	69772065 	ldmdbvs	r7!, {r0, r2, r5, r6, sp}^
 800571c:	45206874 	strmi	r6, [r0, #-2164]!	; 0xfffff78c
 8005720:	6574746e 	ldrbvs	r7, [r4, #-1134]!	; 0xfffffb92
 8005724:	53552063 	cmppl	r5, #99	; 0x63
 8005728:	72502042 	subsvc	r2, r0, #66	; 0x42
 800572c:	7270206f 	rsbsvc	r2, r0, #111	; 0x6f
 8005730:	636f746f 	cmnvs	pc, #1862270976	; 0x6f000000
 8005734:	2c5d6c6f 	mrrccs	12, 6, r6, sp, cr15
 8005738:	64695720 	strbtvs	r5, [r9], #-1824	; 0xfffff8e0
 800573c:	20746567 	rsbscs	r6, r4, r7, ror #10
 8005740:	65646f6d 	strbvs	r6, [r4, #-3949]!	; 0xfffff093
 8005744:	25203a20 	strcs	r3, [r0, #-2592]!	; 0xfffff5e0
 8005748:	25282064 	strcs	r2, [r8, #-100]!	; 0xffffff9c
 800574c:	000a2973 	andeq	r2, sl, r3, ror r9
 8005750:	69766544 	ldmdbvs	r6!, {r2, r6, r8, sl, sp, lr}^
 8005754:	55206563 	strpl	r6, [r0, #-1379]!	; 0xfffffa9d
 8005758:	20444955 	subcs	r4, r4, r5, asr r9
 800575c:	2e25203a 	mcrcs	0, 1, r2, cr5, cr10, {1}
 8005760:	2e257832 	mcrcs	8, 1, r7, cr5, cr2, {1}
 8005764:	253a7832 	ldrcs	r7, [sl, #-2098]!	; 0xfffff7ce
 8005768:	2578322e 	ldrbcs	r3, [r8, #-558]!	; 0xfffffdd2
 800576c:	2578322e 	ldrbcs	r3, [r8, #-558]!	; 0xfffffdd2
 8005770:	2578322e 	ldrbcs	r3, [r8, #-558]!	; 0xfffffdd2
 8005774:	2c78322e 	lfmcs	f3, 2, [r8], #-184	; 0xffffff48
 8005778:	614c0020 	cmpvs	ip, r0, lsr #32
 800577c:	206c6562 	rsbcs	r6, ip, r2, ror #10
 8005780:	2e25203a 	mcrcs	0, 1, r2, cr5, cr10, {1}
 8005784:	000a732a 	andeq	r7, sl, sl, lsr #6
 8005788:	32334447 	eorscc	r4, r3, #1191182336	; 0x47000000
 800578c:	33303146 	teqcc	r0, #-2147483631	; 0x80000011
 8005790:	44204352 	strtmi	r4, [r0], #-850	; 0xfffffcae
 8005794:	5520584d 	strpl	r5, [r0, #-2125]!	; 0xfffff7b3
 8005798:	50204253 	eorpl	r4, r0, r3, asr r2
 800579c:	00006f72 	andeq	r6, r0, r2, ror pc

080057a0 <deviceLabel>:
 80057a0:	08005788 	stmdaeq	r0, {r3, r7, r8, r9, sl, ip, lr}
 80057a4:	00000016 	andeq	r0, r0, r6, lsl r0

080057a8 <SOFTWARE_VERSION>:
 80057a8:	00312e31 	eorseq	r2, r1, r1, lsr lr

080057ac <widget_mode_names>:
 80057ac:	5f584d44 	svcpl	0x00584d44
 80057b0:	004d4452 	subeq	r4, sp, r2, asr r4
 80057b4:	00000000 	andeq	r0, r0, r0
 80057b8:	00584d44 	subseq	r4, r8, r4, asr #26
	...
 80057c4:	004d4452 	subeq	r4, sp, r2, asr r4
	...
 80057d0:	5f4d4452 	svcpl	0x004d4452
 80057d4:	46494e53 			; <UNDEFINED> instruction: 0x46494e53
 80057d8:	00524546 	subseq	r4, r2, r6, asr #10
 80057dc:	5f544547 	svcpl	0x00544547
 80057e0:	47444957 	smlsldmi	r4, r4, r7, r9	; <UNPREDICTABLE>
 80057e4:	505f5445 	subspl	r5, pc, r5, asr #8
 80057e8:	4d415241 	sfmmi	f5, 2, [r1, #-260]	; 0xfffffefc
 80057ec:	45525f53 	ldrbmi	r5, [r2, #-3923]	; 0xfffff0ad
 80057f0:	00594c50 	subseq	r4, r9, r0, asr ip
 80057f4:	5f544553 	svcpl	0x00544553
 80057f8:	47444957 	smlsldmi	r4, r4, r7, r9	; <UNPREDICTABLE>
 80057fc:	505f5445 	subspl	r5, pc, r5, asr #8
 8005800:	4d415241 	sfmmi	f5, 2, [r1, #-260]	; 0xfffffefc
 8005804:	45520053 	ldrbmi	r0, [r2, #-83]	; 0xffffffad
 8005808:	56494543 	strbpl	r4, [r9], -r3, asr #10
 800580c:	445f4445 	ldrbmi	r4, [pc], #-1093	; 8005814 <widget_mode_names+0x68>
 8005810:	505f584d 	subspl	r5, pc, sp, asr #16
 8005814:	454b4341 	strbmi	r4, [fp, #-833]	; 0xfffffcbf
 8005818:	65530054 	ldrbvs	r0, [r3, #-84]	; 0xffffffac
 800581c:	4420646e 	strtmi	r6, [r0], #-1134	; 0xfffffb92
 8005820:	6420584d 	strtvs	r5, [r0], #-2125	; 0xfffff7b3
 8005824:	20617461 	rsbcs	r7, r1, r1, ror #8
 8005828:	48206f74 	stmdami	r0!, {r2, r4, r5, r6, r8, r9, sl, fp, sp, lr}
 800582c:	2c54534f 	mrrccs	3, 4, r5, r4, cr15
 8005830:	00642520 	rsbeq	r2, r4, r0, lsr #10
 8005834:	5054554f 	subspl	r5, r4, pc, asr #10
 8005838:	4f5f5455 	svcmi	0x005f5455
 800583c:	5f594c4e 	svcpl	0x00594c4e
 8005840:	444e4553 	strbmi	r4, [lr], #-1363	; 0xfffffaad
 8005844:	584d445f 	stmdapl	sp, {r0, r1, r2, r3, r4, r6, sl, lr}^
 8005848:	4341505f 	movtmi	r5, #4191	; 0x105f
 800584c:	5f54454b 	svcpl	0x0054454b
 8005850:	55514552 	ldrbpl	r4, [r1, #-1362]	; 0xfffffaae
 8005854:	00545345 	subseq	r5, r4, r5, asr #6
 8005858:	444e4553 	strbmi	r4, [lr], #-1363	; 0xfffffaad
 800585c:	4d44525f 	sfmmi	f5, 2, [r4, #-380]	; 0xfffffe84
 8005860:	4341505f 	movtmi	r5, #4191	; 0x105f
 8005864:	5f54454b 	svcpl	0x0054454b
 8005868:	55514552 	ldrbpl	r4, [r1, #-1362]	; 0xfffffaae
 800586c:	00545345 	subseq	r5, r4, r5, asr #6
 8005870:	45434552 	strbmi	r4, [r3, #-1362]	; 0xfffffaae
 8005874:	5f455649 	svcpl	0x00455649
 8005878:	5f584d44 	svcpl	0x00584d44
 800587c:	435f4e4f 	cmpmi	pc, #1264	; 0x4f0
 8005880:	474e4148 	strbmi	r4, [lr, -r8, asr #2]
 8005884:	45520045 	ldrbmi	r0, [r2, #-69]	; 0xffffffbb
 8005888:	56494543 	strbpl	r4, [r9], -r3, asr #10
 800588c:	445f4445 	ldrbmi	r4, [pc], #-1093	; 8005894 <widget_mode_names+0xe8>
 8005890:	435f584d 	cmpmi	pc, #5046272	; 0x4d0000
 8005894:	545f534f 	ldrbpl	r5, [pc], #-847	; 800589c <widget_mode_names+0xf0>
 8005898:	00455059 	subeq	r5, r5, r9, asr r0
 800589c:	746e6553 	strbtvc	r6, [lr], #-1363	; 0xfffffaad
 80058a0:	61686320 	cmnvs	r8, r0, lsr #6
 80058a4:	6465676e 	strbtvs	r6, [r5], #-1902	; 0xfffff892
 80058a8:	584d4420 	stmdapl	sp, {r5, sl, lr}^
 80058ac:	74616420 	strbtvc	r6, [r1], #-1056	; 0xfffffbe0
 80058b0:	6f742061 	svcvs	0x00742061
 80058b4:	534f4820 	movtpl	r4, #63520	; 0xf820
 80058b8:	45530054 	ldrbmi	r0, [r3, #-84]	; 0xffffffac
 80058bc:	525f444e 	subspl	r4, pc, #1308622848	; 0x4e000000
 80058c0:	445f4d44 	ldrbmi	r4, [pc], #-3396	; 80058c8 <widget_mode_names+0x11c>
 80058c4:	4f435349 	svcmi	0x00435349
 80058c8:	59524556 	ldmdbpl	r2, {r1, r2, r4, r6, r8, sl, lr}^
 80058cc:	5145525f 	cmppl	r5, pc, asr r2
 80058d0:	54534555 	ldrbpl	r4, [r3], #-1365	; 0xfffffaab
 80058d4:	6e655300 	cdpvs	3, 6, cr5, cr5, cr0, {0}
 80058d8:	44522064 	ldrbmi	r2, [r2], #-100	; 0xffffff9c
 80058dc:	6164204d 	cmnvs	r4, sp, asr #32
 80058e0:	74206174 	strtvc	r6, [r0], #-372	; 0xfffffe8c
 80058e4:	4f48206f 	svcmi	0x0048206f
 80058e8:	202c5453 	eorcs	r5, ip, r3, asr r4
 80058ec:	64253a6c 	strtvs	r3, [r5], #-2668	; 0xfffff594
 80058f0:	4d445200 	sfmmi	f5, 2, [r4, #-0]
 80058f4:	4d49545f 	cfstrdmi	mvd5, [r9, #-380]	; 0xfffffe84
 80058f8:	54554f45 	ldrbpl	r4, [r5], #-3909	; 0xfffff0bb
 80058fc:	43455200 	movtmi	r5, #20992	; 0x5200
 8005900:	45564945 	ldrbmi	r4, [r6, #-2373]	; 0xfffff6bb
 8005904:	44525f44 	ldrbmi	r5, [r2], #-3908	; 0xfffff0bc
 8005908:	41505f4d 	cmpmi	r0, sp, asr #30
 800590c:	54454b43 	strbpl	r4, [r5], #-2883	; 0xfffff4bd
 8005910:	3a435320 	bcc	90da598 <__exidx_end+0x10d4620>
 8005914:	43437830 	movtmi	r7, #14384	; 0x3830
 8005918:	43455200 	movtmi	r5, #20992	; 0x5200
 800591c:	45564945 	ldrbmi	r4, [r6, #-2373]	; 0xfffff6bb
 8005920:	44525f44 	ldrbmi	r5, [r2], #-3908	; 0xfffff0bc
 8005924:	41505f4d 	cmpmi	r0, sp, asr #30
 8005928:	54454b43 	strbpl	r4, [r5], #-2883	; 0xfffff4bd
 800592c:	3a435320 	bcc	90da5b4 <__exidx_end+0x10d463c>
 8005930:	45467830 	strbmi	r7, [r6, #-2096]	; 0xfffff7d0
 8005934:	4e414d00 	cdpmi	13, 4, cr4, cr1, cr0, {0}
 8005938:	43414655 	movtmi	r4, #5717	; 0x1655
 800593c:	45525554 	ldrbmi	r5, [r2, #-1364]	; 0xfffffaac
 8005940:	414c5f52 	cmpmi	ip, r2, asr pc
 8005944:	004c4542 	subeq	r4, ip, r2, asr #10
 8005948:	5f544547 	svcpl	0x00544547
 800594c:	47444957 	smlsldmi	r4, r4, r7, r9	; <UNPREDICTABLE>
 8005950:	4e5f5445 	cdpmi	4, 5, cr5, cr15, cr5, {2}
 8005954:	5f454d41 	svcpl	0x00454d41
 8005958:	4542414c 	strbmi	r4, [r2, #-332]	; 0xfffffeb4
 800595c:	3a4c004c 	bcc	9305a94 <__exidx_end+0x12ffb1c>
 8005960:	253a6425 	ldrcs	r6, [sl, #-1061]!	; 0xfffffbdb
 8005964:	64252864 	strtvs	r2, [r5], #-2148	; 0xfffff79c
 8005968:	 	ldmdbvs	r7!, {r0, r3, r5}^

0800596a <WidgetParamsConst::WIDGET_MODE>:
 800596a:	67646977 			; <UNDEFINED> instruction: 0x67646977
 800596e:	6d5f7465 	cfldrdvs	mvd7, [pc, #-404]	; 80057e0 <widget_mode_names+0x34>
 8005972:	0065646f 	rsbeq	r6, r5, pc, ror #8

08005976 <WidgetParamsConst::DMXUSBPRO_MAB_TIME>:
 8005976:	75786d64 	ldrbvc	r6, [r8, #-3428]!	; 0xfffff29c
 800597a:	72706273 	rsbsvc	r6, r0, #805306375	; 0x30000007
 800597e:	616d5f6f 	cmnvs	sp, pc, ror #30
 8005982:	69745f62 	ldmdbvs	r4!, {r1, r5, r6, r8, r9, sl, fp, ip, lr}^
 8005986:	 	strvs	r6, [r0], #-1389	; 0xfffffa93

08005989 <WidgetParamsConst::DMXUSBPRO_BREAK_TIME>:
 8005989:	75786d64 	ldrbvc	r6, [r8, #-3428]!	; 0xfffff29c
 800598d:	72706273 	rsbsvc	r6, r0, #805306375	; 0x30000007
 8005991:	72625f6f 	rsbvc	r5, r2, #444	; 0x1bc
 8005995:	5f6b6165 	svcpl	0x006b6165
 8005999:	656d6974 	strbvs	r6, [sp, #-2420]!	; 0xfffff68c
	...

0800599e <WidgetParamsConst::DMXUSBPRO_REFRESH_RATE>:
 800599e:	75786d64 	ldrbvc	r6, [r8, #-3428]!	; 0xfffff29c
 80059a2:	72706273 	rsbsvc	r6, r0, #805306375	; 0x30000007
 80059a6:	65725f6f 	ldrbvs	r5, [r2, #-3951]!	; 0xfffff091
 80059aa:	73657266 	cmnvc	r5, #1610612742	; 0x60000006
 80059ae:	61725f68 	cmnvs	r2, r8, ror #30
 80059b2:	 	strvs	r6, [r0], #-1396	; 0xfffffa8c

080059b5 <WidgetParamsConst::DMX_SEND_TO_HOST_THROTTLE>:
 80059b5:	5f786d64 	svcpl	0x00786d64
 80059b9:	646e6573 	strbtvs	r6, [lr], #-1395	; 0xfffffa8d
 80059bd:	5f6f745f 	svcpl	0x006f745f
 80059c1:	74736f68 	ldrbtvc	r6, [r3], #-3944	; 0xfffff098
 80059c5:	7268745f 	rsbvc	r7, r8, #1593835520	; 0x5f000000
 80059c9:	6c74746f 	cfldrdvs	mvd7, [r4], #-444	; 0xfffffe44
 80059cd:	46210065 	strtmi	r0, [r1], -r5, rrx
 80059d1:	656c6961 	strbvs	r6, [ip, #-2401]!	; 0xfffff69f
 80059d5:	43202164 			; <UNDEFINED> instruction: 0x43202164
 80059d9:	6f6e6e61 	svcvs	0x006e6e61
 80059dd:	65732074 	ldrbvs	r2, [r3, #-116]!	; 0xffffff8c
 80059e1:	7420646e 	strtvc	r6, [r0], #-1134	; 0xfffffb92
 80059e5:	6f68206f 	svcvs	0x0068206f
 80059e9:	53007473 	movwpl	r7, #1139	; 0x473
 80059ed:	20646e65 	rsbcs	r6, r4, r5, ror #28
 80059f1:	20584d44 	subscs	r4, r8, r4, asr #26
 80059f5:	61746164 	cmnvs	r4, r4, ror #2
 80059f9:	206f7420 	rsbcs	r7, pc, r0, lsr #8
 80059fd:	54534f48 	ldrbpl	r4, [r3], #-3912	; 0xfffff0b8
 8005a01:	203e2d20 	eorscs	r2, lr, r0, lsr #26
 8005a05:	53006425 	movwpl	r6, #1061	; 0x425
 8005a09:	20646e65 	rsbcs	r6, r4, r5, ror #28
 8005a0d:	204d4452 	subcs	r4, sp, r2, asr r4
 8005a11:	61746164 	cmnvs	r4, r4, ror #2
 8005a15:	206f7420 	rsbcs	r7, pc, r0, lsr #8
 8005a19:	54534f48 	ldrbpl	r4, [r3], #-3912	; 0xfffff0b8
 8005a1d:	74746800 	ldrbtvc	r6, [r4], #-2048	; 0xfffff800
 8005a21:	2f2f3a70 	svccs	0x002f3a70
 8005a25:	32336467 	eorscc	r6, r3, #1728053248	; 0x67000000
 8005a29:	786d642d 	stmdavc	sp!, {r0, r2, r3, r5, sl, sp, lr}^
 8005a2d:	67726f2e 	ldrbvs	r6, [r2, -lr, lsr #30]!
	...

08005a32 <DEVICE_LABEL>:
 8005a32:	32334447 	eorscc	r4, r3, #1191182336	; 0x47000000
 8005a36:	33303146 	teqcc	r0, #-2147483631	; 0x80000011
 8005a3a:	44522052 	ldrbmi	r2, [r2], #-82	; 0xffffffae
 8005a3e:	6544204d 	strbvs	r2, [r4, #-77]	; 0xffffffb3
 8005a42:	65636976 	strbvs	r6, [r3, #-2422]!	; 0xfffff68a
	...

08005a47 <RDMConst::MANUFACTURER_ID>:
 8005a47:	 	strbtvc	r0, [r8], #-80	; 0xffffffb0

08005a49 <RDMConst::MANUFACTURER_NAME>:
 8005a49:	70747468 	rsbsvc	r7, r4, r8, ror #8
 8005a4d:	772f2f3a 			; <UNDEFINED> instruction: 0x772f2f3a
 8005a51:	6f2e7777 	svcvs	0x002e7777
 8005a55:	676e6172 			; <UNDEFINED> instruction: 0x676e6172
 8005a59:	2d697065 	stclcs	0, cr7, [r9, #-404]!	; 0xfffffe6c
 8005a5d:	2e786d64 	cdpcs	13, 7, cr6, cr8, cr4, {3}
 8005a61:	0067726f 	rsbeq	r7, r7, pc, ror #4
 8005a65:	 	andvs	r0, r0, r0

08005a68 <s_aStorSize>:
 8005a68:	00000060 	andeq	r0, r0, r0, rrx
 8005a6c:	00000090 	muleq	r0, r0, r0
 8005a70:	00000020 	andeq	r0, r0, r0, lsr #32
 8005a74:	00000040 	andeq	r0, r0, r0, asr #32
 8005a78:	00000060 	andeq	r0, r0, r0, rrx
 8005a7c:	00000040 	andeq	r0, r0, r0, asr #32
 8005a80:	00000020 	andeq	r0, r0, r0, lsr #32
 8005a84:	00000020 	andeq	r0, r0, r0, lsr #32
 8005a88:	000001e0 	andeq	r0, r0, r0, ror #3
 8005a8c:	00000040 	andeq	r0, r0, r0, asr #32
 8005a90:	00000020 	andeq	r0, r0, r0, lsr #32
 8005a94:	00000060 	andeq	r0, r0, r0, rrx
 8005a98:	00000030 	andeq	r0, r0, r0, lsr r0
 8005a9c:	00000020 	andeq	r0, r0, r0, lsr #32
 8005aa0:	000003b0 			; <UNDEFINED> instruction: 0x000003b0
 8005aa4:	00000030 	andeq	r0, r0, r0, lsr r0
 8005aa8:	00000040 	andeq	r0, r0, r0, asr #32
 8005aac:	00000020 	andeq	r0, r0, r0, lsr #32
 8005ab0:	00000060 	andeq	r0, r0, r0, rrx
 8005ab4:	00000020 	andeq	r0, r0, r0, lsr #32
 8005ab8:	00000400 	andeq	r0, r0, r0, lsl #8
 8005abc:	00000020 	andeq	r0, r0, r0, lsr #32
 8005ac0:	00000020 	andeq	r0, r0, r0, lsr #32
 8005ac4:	00000040 	andeq	r0, r0, r0, asr #32
 8005ac8:	00000060 	andeq	r0, r0, r0, rrx
 8005acc:	00000020 	andeq	r0, r0, r0, lsr #32
 8005ad0:	00000020 	andeq	r0, r0, r0, lsr #32
 8005ad4:	00000020 	andeq	r0, r0, r0, lsr #32

08005ad8 <vtable for StoreRDMDevice>:
	...
 8005ae0:	08003735 	stmdaeq	r0, {r0, r2, r4, r5, r8, r9, sl, ip, sp}
 8005ae4:	080037a5 	stmdaeq	r0, {r0, r2, r5, r7, r8, r9, sl, ip, sp}
 8005ae8:	0800373d 	stmdaeq	r0, {r0, r2, r3, r4, r5, r8, r9, sl, ip, sp}
 8005aec:	080037b9 	stmdaeq	r0, {r0, r3, r4, r5, r7, r8, r9, sl, ip, sp}
 8005af0:	08003761 	stmdaeq	r0, {r0, r5, r6, r8, r9, sl, ip, sp}
 8005af4:	fffffffc 			; <UNDEFINED> instruction: 0xfffffffc
 8005af8:	00000000 	andeq	r0, r0, r0
 8005afc:	08003737 	stmdaeq	r0, {r0, r1, r2, r4, r5, r8, r9, sl, ip, sp}
 8005b00:	080037b1 	stmdaeq	r0, {r0, r4, r5, r7, r8, r9, sl, ip, sp}
 8005b04:	0800379d 	stmdaeq	r0, {r0, r2, r3, r4, r7, r8, r9, sl, ip, sp}

08005b08 <vtable for StoreWidget>:
	...
 8005b10:	080037f1 	stmdaeq	r0, {r0, r4, r5, r6, r7, r8, r9, sl, ip, sp}
 8005b14:	0800381d 	stmdaeq	r0, {r0, r2, r3, r4, fp, ip, sp}
 8005b18:	080037f9 	stmdaeq	r0, {r0, r3, r4, r5, r6, r7, r8, r9, sl, ip, sp}
 8005b1c:	08003831 	stmdaeq	r0, {r0, r4, r5, fp, ip, sp}
 8005b20:	08002585 	stmdaeq	r0, {r0, r2, r7, r8, sl, sp}
 8005b24:	080025b9 	stmdaeq	r0, {r0, r3, r4, r5, r7, r8, sl, sp}
 8005b28:	080025ed 	stmdaeq	r0, {r0, r2, r3, r5, r6, r7, r8, sl, sp}
 8005b2c:	fffffffc 			; <UNDEFINED> instruction: 0xfffffffc
 8005b30:	00000000 	andeq	r0, r0, r0
 8005b34:	080037f3 	stmdaeq	r0, {r0, r1, r4, r5, r6, r7, r8, r9, sl, ip, sp}
 8005b38:	08003829 	stmdaeq	r0, {r0, r3, r5, fp, ip, sp}
 8005b3c:	080025b1 	stmdaeq	r0, {r0, r4, r5, r7, r8, sl, sp}
 8005b40:	080025e5 	stmdaeq	r0, {r0, r2, r5, r6, r7, r8, sl, sp}
 8005b44:	08002619 	stmdaeq	r0, {r0, r3, r4, r9, sl, sp}
 8005b48:	32334447 	eorscc	r4, r3, #1191182336	; 0x47000000
 8005b4c:	74654400 	strbtvc	r4, [r5], #-1024	; 0xfffffc00
 8005b50:	65746365 	ldrbvs	r6, [r4, #-869]!	; 0xfffffc9b
 8005b54:	73252064 			; <UNDEFINED> instruction: 0x73252064
 8005b58:	74697720 	strbtvc	r7, [r9], #-1824	; 0xfffff8e0
 8005b5c:	65732068 	ldrbvs	r2, [r3, #-104]!	; 0xffffff98
 8005b60:	726f7463 	rsbvc	r7, pc, #1660944384	; 0x63000000
 8005b64:	7a697320 	bvc	9a627ec <__exidx_end+0x1a5c874>
 8005b68:	64252065 	strtvs	r2, [r5], #-101	; 0xffffff9b
 8005b6c:	746f7420 	strbtvc	r7, [pc], #-1056	; 8005b74 <vtable for StoreWidget+0x6c>
 8005b70:	25206c61 	strcs	r6, [r0, #-3169]!	; 0xfffff39f
 8005b74:	79622064 	stmdbvc	r2!, {r2, r5, r6, sp}^
 8005b78:	0a736574 	beq	9cdf150 <__exidx_end+0x1cd91d8>
 8005b7c:	006f6c00 	rsbeq	r6, pc, r0, lsl #24
 8005b80:	64206f4e 	strtvs	r6, [r0], #-3918	; 0xfffff0b2
 8005b84:	6c707369 	ldclvs	3, cr7, [r0], #-420	; 0xfffffe5c
 8005b88:	66207961 	strtvs	r7, [r0], -r1, ror #18
 8005b8c:	646e756f 	strbtvs	r7, [lr], #-1391	; 0xfffffa91
 8005b90:	31485300 	mrscc	r5, (UNDEF: 120)
 8005b94:	00363031 	eorseq	r3, r6, r1, lsr r0
 8005b98:	31445353 	cmpcc	r4, r3, asr r3
 8005b9c:	00363033 	eorseq	r3, r6, r3, lsr r0
 8005ba0:	28207325 	stmdacs	r0!, {r0, r2, r5, r8, r9, ip, sp, lr}
 8005ba4:	252c6425 	strcs	r6, [ip, #-1061]!	; 0xfffffbdb
 8005ba8:	000a2964 	andeq	r2, sl, r4, ror #18
 8005bac:	aaeeaa40 	bge	7bb04b4 <__heap_size+0x7baf4b4>
 8005bb0:	000000ee 	andeq	r0, r0, lr, ror #1

08005bb4 <_OledFont8x6>:
 8005bb4:	00000040 	andeq	r0, r0, r0, asr #32
 8005bb8:	40000000 	andmi	r0, r0, r0
 8005bbc:	005f0000 	subseq	r0, pc, r0
 8005bc0:	00400000 	subeq	r0, r0, r0
 8005bc4:	00070007 	andeq	r0, r7, r7
 8005bc8:	7f144000 	svcvc	0x00144000
 8005bcc:	00147f14 	andseq	r7, r4, r4, lsl pc
 8005bd0:	7f2a2440 	svcvc	0x002a2440
 8005bd4:	4000122a 	andmi	r1, r0, sl, lsr #4
 8005bd8:	64081323 	strvs	r1, [r8], #-803	; 0xfffffcdd
 8005bdc:	36400062 	strbcc	r0, [r0], -r2, rrx
 8005be0:	50205649 	eorpl	r5, r0, r9, asr #12
 8005be4:	08004000 	stmdaeq	r0, {lr}
 8005be8:	00000307 	andeq	r0, r0, r7, lsl #6
 8005bec:	221c0040 	andscs	r0, ip, #64	; 0x40
 8005bf0:	40000041 	andmi	r0, r0, r1, asr #32
 8005bf4:	1c224100 	stfnes	f4, [r2], #-0
 8005bf8:	2a400000 	bcs	9005c00 <__exidx_end+0xfffc88>
 8005bfc:	2a1c7f1c 	bcs	8725874 <__exidx_end+0x71f8fc>
 8005c00:	08084000 	stmdaeq	r8, {lr}
 8005c04:	0008083e 	andeq	r0, r8, lr, lsr r8
 8005c08:	70800040 	addvc	r0, r0, r0, asr #32
 8005c0c:	40000030 	andmi	r0, r0, r0, lsr r0
 8005c10:	08080808 	stmdaeq	r8, {r3, fp}
 8005c14:	00400008 	subeq	r0, r0, r8
 8005c18:	00606000 	rsbeq	r6, r0, r0
 8005c1c:	10204000 	eorne	r4, r0, r0
 8005c20:	00020408 	andeq	r0, r2, r8, lsl #8
 8005c24:	49513e40 	ldmdbmi	r1, {r6, r9, sl, fp, ip, sp}^
 8005c28:	40003e45 	andmi	r3, r0, r5, asr #28
 8005c2c:	407f4200 	rsbsmi	r4, pc, r0, lsl #4
 8005c30:	72400000 	subvc	r0, r0, #0
 8005c34:	46494949 	strbmi	r4, [r9], -r9, asr #18
 8005c38:	41214000 			; <UNDEFINED> instruction: 0x41214000
 8005c3c:	00334d49 	eorseq	r4, r3, r9, asr #26
 8005c40:	12141840 	andsne	r1, r4, #64, 16	; 0x400000
 8005c44:	4000107f 	andmi	r1, r0, pc, ror r0
 8005c48:	45454527 	strbmi	r4, [r5, #-1319]	; 0xfffffad9
 8005c4c:	3c400039 	mcrrcc	0, 3, r0, r0, cr9
 8005c50:	3149494a 	cmpcc	r9, sl, asr #18
 8005c54:	21414000 	mrscs	r4, (UNDEF: 65)
 8005c58:	00070911 	andeq	r0, r7, r1, lsl r9
 8005c5c:	49493640 	stmdbmi	r9, {r6, r9, sl, ip, sp}^
 8005c60:	40003649 	andmi	r3, r0, r9, asr #12
 8005c64:	29494946 	stmdbcs	r9, {r1, r2, r6, r8, fp, lr}^
 8005c68:	0040001e 	subeq	r0, r0, lr, lsl r0
 8005c6c:	00001400 	andeq	r1, r0, r0, lsl #8
 8005c70:	40004000 	andmi	r4, r0, r0
 8005c74:	00000034 	andeq	r0, r0, r4, lsr r0
 8005c78:	14080040 	strne	r0, [r8], #-64	; 0xffffffc0
 8005c7c:	40004122 	andmi	r4, r0, r2, lsr #2
 8005c80:	14141414 	ldrne	r1, [r4], #-1044	; 0xfffffbec
 8005c84:	00400014 	subeq	r0, r0, r4, lsl r0
 8005c88:	08142241 	ldmdaeq	r4, {r0, r6, r9, sp}
 8005c8c:	01024000 	mrseq	r4, (UNDEF: 2)
 8005c90:	00060959 	andeq	r0, r6, r9, asr r9
 8005c94:	5d413e40 	stclpl	14, cr3, [r1, #-256]	; 0xffffff00
 8005c98:	40004e59 	andmi	r4, r0, r9, asr lr
 8005c9c:	1211127c 	andsne	r1, r1, #124, 4	; 0xc0000007
 8005ca0:	7f40007c 	svcvc	0x0040007c
 8005ca4:	36494949 	strbcc	r4, [r9], -r9, asr #18
 8005ca8:	413e4000 	teqmi	lr, r0
 8005cac:	00224141 	eoreq	r4, r2, r1, asr #2
 8005cb0:	41417f40 	cmpmi	r1, r0, asr #30
 8005cb4:	40003e41 	andmi	r3, r0, r1, asr #28
 8005cb8:	4949497f 	stmdbmi	r9, {r0, r1, r2, r3, r4, r5, r6, r8, fp, lr}^
 8005cbc:	7f400041 	svcvc	0x00400041
 8005cc0:	01090909 	tsteq	r9, r9, lsl #18
 8005cc4:	413e4000 	teqmi	lr, r0
 8005cc8:	00735141 	rsbseq	r5, r3, r1, asr #2
 8005ccc:	08087f40 	stmdaeq	r8, {r6, r8, r9, sl, fp, ip, sp, lr}
 8005cd0:	40007f08 	andmi	r7, r0, r8, lsl #30
 8005cd4:	417f4100 	cmnmi	pc, r0, lsl #2
 8005cd8:	20400000 	subcs	r0, r0, r0
 8005cdc:	013f4140 	teqeq	pc, r0, asr #2
 8005ce0:	087f4000 	ldmdaeq	pc!, {lr}^	; <UNPREDICTABLE>
 8005ce4:	00412214 	subeq	r2, r1, r4, lsl r2
 8005ce8:	40407f40 	submi	r7, r0, r0, asr #30
 8005cec:	40004040 	andmi	r4, r0, r0, asr #32
 8005cf0:	021c027f 	andseq	r0, ip, #-268435449	; 0xf0000007
 8005cf4:	7f40007f 	svcvc	0x0040007f
 8005cf8:	7f100804 	svcvc	0x00100804
 8005cfc:	413e4000 	teqmi	lr, r0
 8005d00:	003e4141 	eorseq	r4, lr, r1, asr #2
 8005d04:	09097f40 	stmdbeq	r9, {r6, r8, r9, sl, fp, ip, sp, lr}
 8005d08:	40000609 	andmi	r0, r0, r9, lsl #12
 8005d0c:	2151413e 	cmpcs	r1, lr, lsr r1
 8005d10:	7f40005e 	svcvc	0x0040005e
 8005d14:	46291909 	strtmi	r1, [r9], -r9, lsl #18
 8005d18:	49264000 	stmdbmi	r6!, {lr}
 8005d1c:	00324949 	eorseq	r4, r2, r9, asr #18
 8005d20:	7f010340 	svcvc	0x00010340
 8005d24:	40000301 	andmi	r0, r0, r1, lsl #6
 8005d28:	4040403f 	submi	r4, r0, pc, lsr r0
 8005d2c:	1f40003f 	svcne	0x0040003f
 8005d30:	1f204020 	svcne	0x00204020
 8005d34:	403f4000 	eorsmi	r4, pc, r0
 8005d38:	003f4038 	eorseq	r4, pc, r8, lsr r0	; <UNPREDICTABLE>
 8005d3c:	08146340 	ldmdaeq	r4, {r6, r8, r9, sp, lr}
 8005d40:	40006314 	andmi	r6, r0, r4, lsl r3
 8005d44:	04780403 	ldrbteq	r0, [r8], #-1027	; 0xfffffbfd
 8005d48:	61400003 	cmpvs	r0, r3
 8005d4c:	434d4959 	movtmi	r4, #55641	; 0xd959
 8005d50:	7f004000 	svcvc	0x00004000
 8005d54:	00414141 	subeq	r4, r1, r1, asr #2
 8005d58:	08040240 	stmdaeq	r4, {r6, r9}
 8005d5c:	40002010 	andmi	r2, r0, r0, lsl r0
 8005d60:	41414100 	mrsmi	r4, (UNDEF: 81)
 8005d64:	0440007f 	strbeq	r0, [r0], #-127	; 0xffffff81
 8005d68:	04020102 	streq	r0, [r2], #-258	; 0xfffffefe
 8005d6c:	40404000 	submi	r4, r0, r0
 8005d70:	00404040 	subeq	r4, r0, r0, asr #32
 8005d74:	07030040 	streq	r0, [r3, -r0, asr #32]
 8005d78:	40000008 	andmi	r0, r0, r8
 8005d7c:	78545420 	ldmdavc	r4, {r5, sl, ip, lr}^
 8005d80:	7f400040 	svcvc	0x00400040
 8005d84:	38444428 	stmdacc	r4, {r3, r5, sl, lr}^
 8005d88:	44384000 	ldrtmi	r4, [r8], #-0
 8005d8c:	00284444 	eoreq	r4, r8, r4, asr #8
 8005d90:	44443840 	strbmi	r3, [r4], #-2112	; 0xfffff7c0
 8005d94:	40007f28 	andmi	r7, r0, r8, lsr #30
 8005d98:	54545438 	ldrbpl	r5, [r4], #-1080	; 0xfffffbc8
 8005d9c:	00400018 	subeq	r0, r0, r8, lsl r0
 8005da0:	02097e08 	andeq	r7, r9, #8, 28	; 0x80
 8005da4:	a4184000 	ldrge	r4, [r8], #-0
 8005da8:	00789ca4 	rsbseq	r9, r8, r4, lsr #25
 8005dac:	04087f40 	streq	r7, [r8], #-3904	; 0xfffff0c0
 8005db0:	40007804 	andmi	r7, r0, r4, lsl #16
 8005db4:	407d4400 	rsbsmi	r4, sp, r0, lsl #8
 8005db8:	20400000 	subcs	r0, r0, r0
 8005dbc:	003d4040 	eorseq	r4, sp, r0, asr #32
 8005dc0:	107f4000 	rsbsne	r4, pc, r0
 8005dc4:	00004428 	andeq	r4, r0, r8, lsr #8
 8005dc8:	7f410040 	svcvc	0x00410040
 8005dcc:	40000040 	andmi	r0, r0, r0, asr #32
 8005dd0:	0478047c 	ldrbteq	r0, [r8], #-1148	; 0xfffffb84
 8005dd4:	7c400078 	mcrrvc	0, 7, r0, r0, cr8
 8005dd8:	78040408 	stmdavc	r4, {r3, sl}
 8005ddc:	44384000 	ldrtmi	r4, [r8], #-0
 8005de0:	00384444 	eorseq	r4, r8, r4, asr #8
 8005de4:	2418fc40 	ldrcs	pc, [r8], #-3136	; 0xfffff3c0
 8005de8:	40001824 	andmi	r1, r0, r4, lsr #16
 8005dec:	18242418 	stmdane	r4!, {r3, r4, sl, sp}
 8005df0:	7c4000fc 	mcrrvc	0, 15, r0, r0, cr12
 8005df4:	08040408 	stmdaeq	r4, {r3, sl}
 8005df8:	54484000 	strbpl	r4, [r8], #-0
 8005dfc:	00245454 	eoreq	r5, r4, r4, asr r4
 8005e00:	3f040440 	svccc	0x00040440
 8005e04:	40002444 	andmi	r2, r0, r4, asr #8
 8005e08:	2040403c 	subcs	r4, r0, ip, lsr r0
 8005e0c:	1c40007c 	mcrrne	0, 7, r0, r0, cr12
 8005e10:	1c204020 	stcne	0, cr4, [r0], #-128	; 0xffffff80
 8005e14:	403c4000 	eorsmi	r4, ip, r0
 8005e18:	003c4030 	eorseq	r4, ip, r0, lsr r0
 8005e1c:	10284440 	eorne	r4, r8, r0, asr #8
 8005e20:	40004428 	andmi	r4, r0, r8, lsr #8
 8005e24:	9090904c 	addsls	r9, r0, ip, asr #32
 8005e28:	4440007c 	strbmi	r0, [r0], #-124	; 0xffffff84
 8005e2c:	444c5464 	strbmi	r5, [ip], #-1124	; 0xfffffb9c
 8005e30:	08004000 	stmdaeq	r0, {lr}
 8005e34:	00004136 	andeq	r4, r0, r6, lsr r1
 8005e38:	77000040 	strvc	r0, [r0, -r0, asr #32]
 8005e3c:	40000000 	andmi	r0, r0, r0
 8005e40:	08364100 	ldmdaeq	r6!, {r8, lr}
 8005e44:	02400000 	subeq	r0, r0, #0
 8005e48:	02040201 	andeq	r0, r4, #268435456	; 0x10000000
 8005e4c:	263c4000 	ldrtcs	r4, [ip], -r0
 8005e50:	003c2623 	eorseq	r2, ip, r3, lsr #12

08005e54 <oled_128x32_init>:
 8005e54:	a880d5ae 	stmge	r0, {r1, r2, r3, r5, r7, r8, sl, ip, lr, pc}
 8005e58:	4000d31f 	andmi	sp, r0, pc, lsl r3
 8005e5c:	0020148d 	eoreq	r1, r0, sp, lsl #9
 8005e60:	02dac8a1 	sbcseq	ip, sl, #10551296	; 0xa10000
 8005e64:	f1d97f81 			; <UNDEFINED> instruction: 0xf1d97f81
 8005e68:	a6a440db 	ssatge	r4, #5, fp, asr #1

08005e6c <oled_128x64_init>:
 8005e6c:	a880d5ae 	stmge	r0, {r1, r2, r3, r5, r7, r8, sl, ip, lr, pc}
 8005e70:	4000d33f 	andmi	sp, r0, pc, lsr r3
 8005e74:	0020148d 	eoreq	r1, r0, sp, lsl #9
 8005e78:	12dac8a1 	sbcsne	ip, sl, #10551296	; 0xa10000
 8005e7c:	f1d97f81 			; <UNDEFINED> instruction: 0xf1d97f81
 8005e80:	a6a440db 	ssatge	r4, #5, fp, asr #1

08005e84 <vtable for Ssd1306>:
	...
 8005e8c:	08003d31 	stmdaeq	r0, {r0, r4, r5, r8, sl, fp, ip, sp}
 8005e90:	08003d5d 	stmdaeq	r0, {r0, r2, r3, r4, r6, r8, sl, fp, ip, sp}
 8005e94:	08004075 	stmdaeq	r0, {r0, r2, r4, r5, r6, lr}
 8005e98:	08003ff9 	stmdaeq	r0, {r0, r3, r4, r5, r6, r7, r8, r9, sl, fp, ip, sp}
 8005e9c:	08003ec5 	stmdaeq	r0, {r0, r2, r6, r7, r9, sl, fp, ip, sp}
 8005ea0:	08003d7d 	stmdaeq	r0, {r0, r2, r3, r4, r5, r6, r8, sl, fp, ip, sp}
 8005ea4:	08003da5 	stmdaeq	r0, {r0, r2, r5, r7, r8, sl, fp, ip, sp}
 8005ea8:	08003e9b 	stmdaeq	r0, {r0, r1, r3, r4, r7, r9, sl, fp, ip, sp}
 8005eac:	08003e55 	stmdaeq	r0, {r0, r2, r4, r6, r9, sl, fp, ip, sp}
 8005eb0:	08003d33 	stmdaeq	r0, {r0, r1, r4, r5, r8, sl, fp, ip, sp}
 8005eb4:	08003f01 	stmdaeq	r0, {r0, r8, r9, sl, fp, ip, sp}
 8005eb8:	08003f0d 	stmdaeq	r0, {r0, r2, r3, r8, r9, sl, fp, ip, sp}
 8005ebc:	08003f27 	stmdaeq	r0, {r0, r1, r2, r5, r8, r9, sl, fp, ip, sp}
 8005ec0:	08003d35 	stmdaeq	r0, {r0, r2, r4, r5, r8, sl, fp, ip, sp}
 8005ec4:	6c6c616d 	stfvse	f6, [ip], #-436	; 0xfffffe4c
 8005ec8:	203a636f 	eorscs	r6, sl, pc, ror #6
 8005ecc:	000a7525 	andeq	r7, sl, r5, lsr #10
 8005ed0:	6c6c616d 	stfvse	f6, [ip], #-436	; 0xfffffe4c
 8005ed4:	203a636f 	eorscs	r6, sl, pc, ror #6
 8005ed8:	7478656e 	ldrbtvc	r6, [r8], #-1390	; 0xfffffa92
 8005edc:	62203e20 	eorvs	r3, r0, #32, 28	; 0x200
 8005ee0:	6b636f6c 	blvs	98e1c98 <__exidx_end+0x18dbd20>
 8005ee4:	6d696c5f 	stclvs	12, cr6, [r9, #-380]!	; 0xfffffe84
 8005ee8:	000a7469 	andeq	r7, sl, r9, ror #8
 8005eec:	6c6c616d 	stfvse	f6, [ip], #-436	; 0xfffffe4c
 8005ef0:	203a636f 	eorscs	r6, sl, pc, ror #6
 8005ef4:	6f6c4270 	svcvs	0x006c4270
 8005ef8:	65486b63 	strbvs	r6, [r8, #-2915]	; 0xfffff49d
 8005efc:	72656461 	rsbvc	r6, r5, #1627389952	; 0x61000000
 8005f00:	2c70253d 	cfldr64cs	mvdx2, [r0], #-244	; 0xffffff0c
 8005f04:	7a697320 	bvc	9a62b8c <__exidx_end+0x1a5cc14>
 8005f08:	64253d65 	strtvs	r3, [r5], #-3429	; 0xfffff29b
 8005f0c:	6164202c 	cmnvs	r4, ip, lsr #32
 8005f10:	253d6174 	ldrcs	r6, [sp, #-372]!	; 0xfffffe8c
 8005f14:	66000a70 			; <UNDEFINED> instruction: 0x66000a70
 8005f18:	3a656572 	bcc	995f4e8 <__exidx_end+0x1959570>
 8005f1c:	6c427020 	mcrrvs	0, 2, r7, r2, cr0
 8005f20:	486b636f 	stmdami	fp!, {r0, r1, r2, r3, r5, r6, r8, r9, sp, lr}^
 8005f24:	65646165 	strbvs	r6, [r4, #-357]!	; 0xfffffe9b
 8005f28:	203d2072 	eorscs	r2, sp, r2, ror r0
 8005f2c:	202c7025 	eorcs	r7, ip, r5, lsr #32
 8005f30:	6f6c4270 	svcvs	0x006c4270
 8005f34:	3d206b63 	fstmdbxcc	r0!, {d6-d54}	;@ Deprecated
 8005f38:	0a702520 	beq	9c0f3c0 <__exidx_end+0x1c09448>
 8005f3c:	00000000 	andeq	r0, r0, r0

08005f40 <days_of_month>:
 8005f40:	0000001f 	andeq	r0, r0, pc, lsl r0
 8005f44:	0000001c 	andeq	r0, r0, ip, lsl r0
 8005f48:	0000001f 	andeq	r0, r0, pc, lsl r0
 8005f4c:	0000001e 	andeq	r0, r0, lr, lsl r0
 8005f50:	0000001f 	andeq	r0, r0, pc, lsl r0
 8005f54:	0000001e 	andeq	r0, r0, lr, lsl r0
 8005f58:	0000001f 	andeq	r0, r0, pc, lsl r0
 8005f5c:	0000001f 	andeq	r0, r0, pc, lsl r0
 8005f60:	0000001e 	andeq	r0, r0, lr, lsl r0
 8005f64:	0000001f 	andeq	r0, r0, pc, lsl r0
 8005f68:	0000001e 	andeq	r0, r0, lr, lsl r0
 8005f6c:	0000001f 	andeq	r0, r0, pc, lsl r0

Disassembly of section .ARM:

08005f70 <__exidx_start>:
 8005f70:	7fffa74c 	svcvc	0x00ffa74c
 8005f74:	00000001 	andeq	r0, r0, r1

Disassembly of section .ARM.attributes:

08005f78 <.ARM.attributes>:
 8005f78:	00002e41 	andeq	r2, r0, r1, asr #28
 8005f7c:	61656100 	cmnvs	r5, r0, lsl #2
 8005f80:	01006962 	tsteq	r0, r2, ror #18
 8005f84:	00000024 	andeq	r0, r0, r4, lsr #32
 8005f88:	726f4305 	rsbvc	r4, pc, #335544320	; 0x14000000
 8005f8c:	2d786574 	cfldr64cs	mvdx6, [r8, #-464]!	; 0xfffffe30
 8005f90:	0600334d 	streq	r3, [r0], -sp, asr #6
 8005f94:	094d070a 	stmdbeq	sp, {r1, r3, r8, r9, sl}^
 8005f98:	14041202 	strne	r1, [r4], #-514	; 0xfffffdfe
 8005f9c:	17011501 	strne	r1, [r1, -r1, lsl #10]
 8005fa0:	1a011803 	bne	804bfb4 <__exidx_end+0x4603c>
 8005fa4:	Address 0x0000000008005fa4 is out of bounds.


Disassembly of section .data:

20000000 <WidgetConfiguration::s_nMabTime>:
20000000:	 	andeq	r0, r4, #16384	; 0x4000

20000001 <WidgetConfiguration::s_nBreakTime>:
20000001:	 	stmdacs	r2, {r0, r3, sl}

20000002 <WidgetConfiguration::s_nFirmwareLsb>:
20000002:	 			; <UNDEFINED> instruction: 0x01280204

20000003 <WidgetConfiguration::s_nFirmwareMsb>:
20000003:	 	andeq	r2, r1, r2, lsl #16

20000004 <WidgetConfiguration::s_nRefreshRate>:
20000004:	 	andeq	r0, r0, r8, lsr #2

20000005 <WidgetConfiguration::s_aDeviceTypeId>:
20000005:	 	stmdage	r0, {r0}

20000008 <s_nDmxTransmitPeriod>:
20000008:	000061a8 	andeq	r6, r0, r8, lsr #3

2000000c <s_nDmxTransmitMabTime>:
2000000c:	0000000c 	andeq	r0, r0, ip

20000010 <s_nDmxTransmitBreakTime>:
20000010:	0000005c 	andeq	r0, r0, ip, asr r0

20000014 <next_block>:
20000014:	2000a000 	andcs	sl, r0, r0

20000018 <s_block_bucket>:
20000018:	00000010 	andeq	r0, r0, r0, lsl r0
	...
20000028:	00000020 	andeq	r0, r0, r0, lsr #32
	...
20000038:	00000040 	andeq	r0, r0, r0, asr #32
	...
20000048:	00000060 	andeq	r0, r0, r0, rrx
	...
20000058:	00000080 	andeq	r0, r0, r0, lsl #1
	...
20000068:	00000100 	andeq	r0, r0, r0, lsl #2
	...
20000078:	00000140 	andeq	r0, r0, r0, asr #2
	...
20000088:	00000180 	andeq	r0, r0, r0, lsl #3
	...
20000098:	00000200 	andeq	r0, r0, r0, lsl #4
	...
200000a8:	00000300 	andeq	r0, r0, r0, lsl #6
	...
200000b8:	00000400 	andeq	r0, r0, r0, lsl #8
	...
200000c8:	00000500 	andeq	r0, r0, r0, lsl #10
	...

200000e8 <SystemCoreClock>:
200000e8:	066ff300 	strbteq	pc, [pc], -r0, lsl #6	; <UNPREDICTABLE>

Disassembly of section .bss:

200000f0 <outptr>:
200000f0:	00000000 	andeq	r0, r0, r0

200000f4 <Widget::s_pThis>:
200000f4:	00000000 	andeq	r0, r0, r0

200000f8 <s_RxBuffer>:
	...

20000308 <s_TxBuffer>:
	...

2000050c <sv_PortState>:
2000050c:	00000000 	andeq	r0, r0, r0

20000510 <s_RxDmxPrevious>:
	...

20000712 <s_nUartsSending>:
	...

20000714 <sv_nRxDmxPackets>:
	...

20000724 <Dmx::s_pThis>:
20000724:	00000000 	andeq	r0, r0, r0

20000728 <gv_RdmDataReceiveEnd>:
20000728:	00000000 	andeq	r0, r0, r0

2000072c <SpiFlashStore::s_nWaitMillis>:
2000072c:	00000000 	andeq	r0, r0, r0

20000730 <SpiFlashStore::s_SpiFlashData>:
	...

20001730 <SpiFlashStore::s_nStartAddress>:
20001730:	00000000 	andeq	r0, r0, r0

20001734 <SpiFlashStore::s_bHaveFlashChip>:
20001734:	00000000 	andeq	r0, r0, r0

20001738 <SpiFlashStore::s_nSpiFlashStoreSize>:
20001738:	00000000 	andeq	r0, r0, r0

2000173c <SpiFlashStore::s_State>:
2000173c:	00000000 	andeq	r0, r0, r0

20001740 <SpiFlashStore::s_pThis>:
20001740:	00000000 	andeq	r0, r0, r0

20001744 <SpiFlashStore::s_bIsNew>:
20001744:	00000000 	andeq	r0, r0, r0

20001748 <StoreRDMDevice::s_pThis>:
20001748:	00000000 	andeq	r0, r0, r0

2000174c <StoreWidget::s_pThis>:
2000174c:	00000000 	andeq	r0, r0, r0

20001750 <FlashRom::s_pThis>:
20001750:	00000000 	andeq	r0, r0, r0

20001754 <flashrom::s_nAddress>:
20001754:	00000000 	andeq	r0, r0, r0

20001758 <flashrom::s_State>:
20001758:	00000000 	andeq	r0, r0, r0

2000175c <flashrom::s_nPage>:
2000175c:	00000000 	andeq	r0, r0, r0

20001760 <flashrom::s_pData>:
20001760:	00000000 	andeq	r0, r0, r0

20001764 <flashrom::s_isBank0>:
20001764:	00000000 	andeq	r0, r0, r0

20001768 <flashrom::s_nLength>:
20001768:	00000000 	andeq	r0, r0, r0

2000176c <Network::s_pThis>:
2000176c:	00000000 	andeq	r0, r0, r0

20001770 <Display::s_pThis>:
20001770:	00000000 	andeq	r0, r0, r0

20001774 <Display7Segment::s_pThis>:
20001774:	00000000 	andeq	r0, r0, r0

20001778 <_ClearBuffer>:
	...

20001800 <Ssd1306::s_pThis>:
20001800:	00000000 	andeq	r0, r0, r0

20001804 <LedBlink::s_pThis>:
20001804:	00000000 	andeq	r0, r0, r0

20001808 <Hardware::s_pThis>:
	...

20001810 <s_micros>:
	...

20001818 <set_timer>:
20001818:	00000000 	andeq	r0, r0, r0

2000181c <s_nSysTickMillis>:
2000181c:	00000000 	andeq	r0, r0, r0

20001820 <s_nAddress>:
20001820:	00000000 	andeq	r0, r0, r0

Disassembly of section .heap:

2000a000 <heap_low>:
	...

Disassembly of section .stack:

2000b000 <_sp-0x1000>:
	...
