In archive lib_gd32/libws28xx.a:

pixelconfiguration.o:     file format elf32-littlearm


Disassembly of section .text._ZN18PixelConfiguration13GetRgbMappingEN5pixel4TypeE:

00000000 <PixelConfiguration::GetRgbMapping(pixel::Type)>:
   0:	f020 0308 	bic.w	r3, r0, #8
   4:	2b01      	cmp	r3, #1
   6:	d006      	beq.n	16 <PixelConfiguration::GetRgbMapping(pixel::Type)+0x16>
   8:	2808      	cmp	r0, #8
   a:	d006      	beq.n	1a <PixelConfiguration::GetRgbMapping(pixel::Type)+0x1a>
   c:	280a      	cmp	r0, #10
   e:	bf14      	ite	ne
  10:	2002      	movne	r0, #2
  12:	2005      	moveq	r0, #5
  14:	4770      	bx	lr
  16:	2000      	movs	r0, #0
  18:	4770      	bx	lr
  1a:	2004      	movs	r0, #4
  1c:	4770      	bx	lr

Disassembly of section .text._ZN18PixelConfiguration6GetTxHEN5pixel4TypeERhS2_:

00000000 <PixelConfiguration::GetTxH(pixel::Type, unsigned char&, unsigned char&)>:
   0:	23c0      	movs	r3, #192	; 0xc0
   2:	2803      	cmp	r0, #3
   4:	700b      	strb	r3, [r1, #0]
   6:	d006      	beq.n	16 <PixelConfiguration::GetTxH(pixel::Type, unsigned char&, unsigned char&)+0x16>
   8:	3808      	subs	r0, #8
   a:	2803      	cmp	r0, #3
   c:	bf34      	ite	cc
   e:	23fc      	movcc	r3, #252	; 0xfc
  10:	23f0      	movcs	r3, #240	; 0xf0
  12:	7013      	strb	r3, [r2, #0]
  14:	4770      	bx	lr
  16:	23f8      	movs	r3, #248	; 0xf8
  18:	e7fb      	b.n	12 <PixelConfiguration::GetTxH(pixel::Type, unsigned char&, unsigned char&)+0x12>

Disassembly of section .text._ZN18PixelConfiguration8ValidateERj:

00000000 <PixelConfiguration::Validate(unsigned int&)>:
   0:	b573      	push	{r0, r1, r4, r5, r6, lr}
   2:	4604      	mov	r4, r0
   4:	2329      	movs	r3, #41	; 0x29
   6:	460e      	mov	r6, r1
   8:	4a36      	ldr	r2, [pc, #216]	; (e4 <PixelConfiguration::Validate(unsigned int&)+0xe4>)
   a:	4937      	ldr	r1, [pc, #220]	; (e8 <PixelConfiguration::Validate(unsigned int&)+0xe8>)
   c:	4837      	ldr	r0, [pc, #220]	; (ec <PixelConfiguration::Validate(unsigned int&)+0xec>)
   e:	f7ff fffe 	bl	0 <printf>
  12:	6825      	ldr	r5, [r4, #0]
  14:	6863      	ldr	r3, [r4, #4]
  16:	2d07      	cmp	r5, #7
  18:	d12a      	bne.n	70 <PixelConfiguration::Validate(unsigned int&)+0x70>
  1a:	f5b3 7f00 	cmp.w	r3, #512	; 0x200
  1e:	bf28      	it	cs
  20:	f44f 7300 	movcs.w	r3, #512	; 0x200
  24:	6063      	str	r3, [r4, #4]
  26:	2304      	movs	r3, #4
  28:	6033      	str	r3, [r6, #0]
  2a:	2201      	movs	r2, #1
  2c:	68a3      	ldr	r3, [r4, #8]
  2e:	74e2      	strb	r2, [r4, #19]
  30:	2b06      	cmp	r3, #6
  32:	d103      	bne.n	3c <PixelConfiguration::Validate(unsigned int&)+0x3c>
  34:	4628      	mov	r0, r5
  36:	f7ff fffe 	bl	0 <PixelConfiguration::Validate(unsigned int&)>
  3a:	60a0      	str	r0, [r4, #8]
  3c:	7c63      	ldrb	r3, [r4, #17]
  3e:	7c22      	ldrb	r2, [r4, #16]
  40:	4628      	mov	r0, r5
  42:	429a      	cmp	r2, r3
  44:	bf28      	it	cs
  46:	2300      	movcs	r3, #0
  48:	f10d 0207 	add.w	r2, sp, #7
  4c:	bf28      	it	cs
  4e:	8223      	strhcs	r3, [r4, #16]
  50:	f10d 0106 	add.w	r1, sp, #6
  54:	f7ff fffe 	bl	0 <PixelConfiguration::Validate(unsigned int&)>
  58:	7c23      	ldrb	r3, [r4, #16]
  5a:	b913      	cbnz	r3, 62 <PixelConfiguration::Validate(unsigned int&)+0x62>
  5c:	f89d 3006 	ldrb.w	r3, [sp, #6]
  60:	7423      	strb	r3, [r4, #16]
  62:	7c63      	ldrb	r3, [r4, #17]
  64:	b913      	cbnz	r3, 6c <PixelConfiguration::Validate(unsigned int&)+0x6c>
  66:	f89d 3007 	ldrb.w	r3, [sp, #7]
  6a:	7463      	strb	r3, [r4, #17]
  6c:	4b20      	ldr	r3, [pc, #128]	; (f0 <PixelConfiguration::Validate(unsigned int&)+0xf0>)
  6e:	e021      	b.n	b4 <PixelConfiguration::Validate(unsigned int&)+0xb4>
  70:	f5b3 7f2a 	cmp.w	r3, #680	; 0x2a8
  74:	bf28      	it	cs
  76:	f44f 732a 	movcs.w	r3, #680	; 0x2a8
  7a:	6063      	str	r3, [r4, #4]
  7c:	2303      	movs	r3, #3
  7e:	6033      	str	r3, [r6, #0]
  80:	f1a5 030b 	sub.w	r3, r5, #11
  84:	2b01      	cmp	r3, #1
  86:	d806      	bhi.n	96 <PixelConfiguration::Validate(unsigned int&)+0x96>
  88:	7ca3      	ldrb	r3, [r4, #18]
  8a:	2b1f      	cmp	r3, #31
  8c:	d825      	bhi.n	da <PixelConfiguration::Validate(unsigned int&)+0xda>
  8e:	f043 03e0 	orr.w	r3, r3, #224	; 0xe0
  92:	74a3      	strb	r3, [r4, #18]
  94:	e000      	b.n	98 <PixelConfiguration::Validate(unsigned int&)+0x98>
  96:	bb15      	cbnz	r5, de <PixelConfiguration::Validate(unsigned int&)+0xde>
  98:	f44f 427f 	mov.w	r2, #65280	; 0xff00
  9c:	2300      	movs	r3, #0
  9e:	8222      	strh	r2, [r4, #16]
  a0:	68a2      	ldr	r2, [r4, #8]
  a2:	74e3      	strb	r3, [r4, #19]
  a4:	2a06      	cmp	r2, #6
  a6:	bf08      	it	eq
  a8:	60a3      	streq	r3, [r4, #8]
  aa:	2d0d      	cmp	r5, #13
  ac:	68e3      	ldr	r3, [r4, #12]
  ae:	d110      	bne.n	d2 <PixelConfiguration::Validate(unsigned int&)+0xd2>
  b0:	b913      	cbnz	r3, b8 <PixelConfiguration::Validate(unsigned int&)+0xb8>
  b2:	4b10      	ldr	r3, [pc, #64]	; (f4 <PixelConfiguration::Validate(unsigned int&)+0xf4>)
  b4:	60e3      	str	r3, [r4, #12]
  b6:	e003      	b.n	c0 <PixelConfiguration::Validate(unsigned int&)+0xc0>
  b8:	4a0f      	ldr	r2, [pc, #60]	; (f8 <PixelConfiguration::Validate(unsigned int&)+0xf8>)
  ba:	4293      	cmp	r3, r2
  bc:	d900      	bls.n	c0 <PixelConfiguration::Validate(unsigned int&)+0xc0>
  be:	60e2      	str	r2, [r4, #12]
  c0:	236c      	movs	r3, #108	; 0x6c
  c2:	4a08      	ldr	r2, [pc, #32]	; (e4 <PixelConfiguration::Validate(unsigned int&)+0xe4>)
  c4:	4908      	ldr	r1, [pc, #32]	; (e8 <PixelConfiguration::Validate(unsigned int&)+0xe8>)
  c6:	480d      	ldr	r0, [pc, #52]	; (fc <PixelConfiguration::Validate(unsigned int&)+0xfc>)
  c8:	b002      	add	sp, #8
  ca:	e8bd 4070 	ldmia.w	sp!, {r4, r5, r6, lr}
  ce:	f7ff bffe 	b.w	0 <printf>
  d2:	2b00      	cmp	r3, #0
  d4:	d0ed      	beq.n	b2 <PixelConfiguration::Validate(unsigned int&)+0xb2>
  d6:	4a0a      	ldr	r2, [pc, #40]	; (100 <PixelConfiguration::Validate(unsigned int&)+0x100>)
  d8:	e7ef      	b.n	ba <PixelConfiguration::Validate(unsigned int&)+0xba>
  da:	23ff      	movs	r3, #255	; 0xff
  dc:	e7d9      	b.n	92 <PixelConfiguration::Validate(unsigned int&)+0x92>
  de:	2d0d      	cmp	r5, #13
  e0:	d0da      	beq.n	98 <PixelConfiguration::Validate(unsigned int&)+0x98>
  e2:	e7a2      	b.n	2a <PixelConfiguration::Validate(unsigned int&)+0x2a>
  e4:	00000000 	.word	0x00000000
  e8:	00000009 	.word	0x00000009
  ec:	00000024 	.word	0x00000024
  f0:	0061a800 	.word	0x0061a800
  f4:	003d0900 	.word	0x003d0900
  f8:	00e4e1c0 	.word	0x00e4e1c0
  fc:	00000032 	.word	0x00000032
 100:	017d7840 	.word	0x017d7840

Disassembly of section .text._ZN18PixelConfiguration4DumpEv:

00000000 <PixelConfiguration::Dump()>:
   0:	b573      	push	{r0, r1, r4, r5, r6, lr}
   2:	4604      	mov	r4, r0
   4:	6800      	ldr	r0, [r0, #0]
   6:	f7ff fffe 	bl	0 <PixelType::GetType(pixel::Type)>
   a:	e9d4 2300 	ldrd	r2, r3, [r4]
   e:	4601      	mov	r1, r0
  10:	480f      	ldr	r0, [pc, #60]	; (50 <PixelConfiguration::Dump()+0x50>)
  12:	f7ff fffe 	bl	0 <printf>
  16:	68a0      	ldr	r0, [r4, #8]
  18:	7c25      	ldrb	r5, [r4, #16]
  1a:	7c66      	ldrb	r6, [r4, #17]
  1c:	f7ff fffe 	bl	0 <PixelType::GetMap(pixel::Map)>
  20:	68a2      	ldr	r2, [r4, #8]
  22:	4603      	mov	r3, r0
  24:	9200      	str	r2, [sp, #0]
  26:	4629      	mov	r1, r5
  28:	4632      	mov	r2, r6
  2a:	480a      	ldr	r0, [pc, #40]	; (54 <PixelConfiguration::Dump()+0x54>)
  2c:	f7ff fffe 	bl	0 <printf>
  30:	6823      	ldr	r3, [r4, #0]
  32:	3b0b      	subs	r3, #11
  34:	2b01      	cmp	r3, #1
  36:	d803      	bhi.n	40 <PixelConfiguration::Dump()+0x40>
  38:	7ca1      	ldrb	r1, [r4, #18]
  3a:	4807      	ldr	r0, [pc, #28]	; (58 <PixelConfiguration::Dump()+0x58>)
  3c:	f7ff fffe 	bl	0 <printf>
  40:	68e1      	ldr	r1, [r4, #12]
  42:	4806      	ldr	r0, [pc, #24]	; (5c <PixelConfiguration::Dump()+0x5c>)
  44:	b002      	add	sp, #8
  46:	e8bd 4070 	ldmia.w	sp!, {r4, r5, r6, lr}
  4a:	f7ff bffe 	b.w	0 <printf>
  4e:	bf00      	nop
  50:	00000000 	.word	0x00000000
  54:	00000018 	.word	0x00000018
  58:	00000037 	.word	0x00000037
  5c:	0000004d 	.word	0x0000004d

pixelpatterns.o:     file format elf32-littlearm


Disassembly of section .text._ZN13PixelPatterns14SetPixelColourEjjj.constprop.0:

00000000 <PixelPatterns::SetPixelColour(unsigned int, unsigned int, unsigned int) [clone .constprop.0]>:
   0:	b507      	push	{r0, r1, r2, lr}
   2:	b2cb      	uxtb	r3, r1
   4:	9300      	str	r3, [sp, #0]
   6:	f3c1 4207 	ubfx	r2, r1, #16, #8
   a:	f3c1 2307 	ubfx	r3, r1, #8, #8
   e:	4601      	mov	r1, r0
  10:	4803      	ldr	r0, [pc, #12]	; (20 <PixelPatterns::SetPixelColour(unsigned int, unsigned int, unsigned int) [clone .constprop.0]+0x20>)
  12:	6800      	ldr	r0, [r0, #0]
  14:	f7ff fffe 	bl	0 <WS28xx::SetPixel(unsigned int, unsigned char, unsigned char, unsigned char)>
  18:	b003      	add	sp, #12
  1a:	f85d fb04 	ldr.w	pc, [sp], #4
  1e:	bf00      	nop
  20:	00000000 	.word	0x00000000

Disassembly of section .text._ZN13PixelPatterns5ClearEj.isra.0:

00000000 <PixelPatterns::Clear(unsigned int) [clone .isra.0]>:
   0:	b538      	push	{r3, r4, r5, lr}
   2:	2400      	movs	r4, #0
   4:	4d05      	ldr	r5, [pc, #20]	; (1c <PixelPatterns::Clear(unsigned int) [clone .isra.0]+0x1c>)
   6:	682b      	ldr	r3, [r5, #0]
   8:	42a3      	cmp	r3, r4
   a:	d905      	bls.n	18 <PixelPatterns::Clear(unsigned int) [clone .isra.0]+0x18>
   c:	4620      	mov	r0, r4
   e:	2100      	movs	r1, #0
  10:	f7ff fffe 	bl	0 <PixelPatterns::Clear(unsigned int) [clone .isra.0]>
  14:	3401      	adds	r4, #1
  16:	e7f6      	b.n	6 <PixelPatterns::Clear(unsigned int) [clone .isra.0]+0x6>
  18:	bd38      	pop	{r3, r4, r5, pc}
  1a:	bf00      	nop
  1c:	00000000 	.word	0x00000000

Disassembly of section .text._ZN13PixelPatternsC2Ej:

00000000 <PixelPatterns::PixelPatterns(unsigned int)>:
   0:	4b0f      	ldr	r3, [pc, #60]	; (40 <PixelPatterns::PixelPatterns(unsigned int)+0x40>)
   2:	b570      	push	{r4, r5, r6, lr}
   4:	681b      	ldr	r3, [r3, #0]
   6:	4e0f      	ldr	r6, [pc, #60]	; (44 <PixelPatterns::PixelPatterns(unsigned int)+0x44>)
   8:	4605      	mov	r5, r0
   a:	460c      	mov	r4, r1
   c:	6033      	str	r3, [r6, #0]
   e:	b92b      	cbnz	r3, 1c <PixelPatterns::PixelPatterns(unsigned int)+0x1c>
  10:	213e      	movs	r1, #62	; 0x3e
  12:	4b0d      	ldr	r3, [pc, #52]	; (48 <PixelPatterns::PixelPatterns(unsigned int)+0x48>)
  14:	4a0d      	ldr	r2, [pc, #52]	; (4c <PixelPatterns::PixelPatterns(unsigned int)+0x4c>)
  16:	480e      	ldr	r0, [pc, #56]	; (50 <PixelPatterns::PixelPatterns(unsigned int)+0x50>)
  18:	f7ff fffe 	bl	0 <__assert_func>
  1c:	2c01      	cmp	r4, #1
  1e:	bf28      	it	cs
  20:	2401      	movcs	r4, #1
  22:	4b0c      	ldr	r3, [pc, #48]	; (54 <PixelPatterns::PixelPatterns(unsigned int)+0x54>)
  24:	4628      	mov	r0, r5
  26:	601c      	str	r4, [r3, #0]
  28:	6833      	ldr	r3, [r6, #0]
  2a:	685a      	ldr	r2, [r3, #4]
  2c:	4b0a      	ldr	r3, [pc, #40]	; (58 <PixelPatterns::PixelPatterns(unsigned int)+0x58>)
  2e:	601a      	str	r2, [r3, #0]
  30:	2200      	movs	r2, #0
  32:	4b0a      	ldr	r3, [pc, #40]	; (5c <PixelPatterns::PixelPatterns(unsigned int)+0x5c>)
  34:	6819      	ldr	r1, [r3, #0]
  36:	4b0a      	ldr	r3, [pc, #40]	; (60 <PixelPatterns::PixelPatterns(unsigned int)+0x60>)
  38:	61da      	str	r2, [r3, #28]
  3a:	6019      	str	r1, [r3, #0]
  3c:	619a      	str	r2, [r3, #24]
  3e:	bd70      	pop	{r4, r5, r6, pc}
	...
  4c:	00000015 	.word	0x00000015
  50:	00000023 	.word	0x00000023
	...

Disassembly of section .text._ZN13PixelPatterns7GetNameEN13pixelpatterns7PatternE:

00000000 <PixelPatterns::GetName(pixelpatterns::Pattern)>:
   0:	2805      	cmp	r0, #5
   2:	bfdd      	ittte	le
   4:	220e      	movle	r2, #14
   6:	4b02      	ldrle	r3, [pc, #8]	; (10 <PixelPatterns::GetName(pixelpatterns::Pattern)+0x10>)
   8:	fb02 3000 	mlale	r0, r2, r0, r3
   c:	4801      	ldrgt	r0, [pc, #4]	; (14 <PixelPatterns::GetName(pixelpatterns::Pattern)+0x14>)
   e:	4770      	bx	lr
	...

Disassembly of section .text._ZN13PixelPatterns12RainbowCycleEjjN13pixelpatterns9DirectionE:

00000000 <PixelPatterns::RainbowCycle(unsigned int, unsigned int, pixelpatterns::Direction)>:
   0:	b570      	push	{r4, r5, r6, lr}
   2:	460e      	mov	r6, r1
   4:	4615      	mov	r5, r2
   6:	461c      	mov	r4, r3
   8:	f7ff fffe 	bl	0 <PixelPatterns::RainbowCycle(unsigned int, unsigned int, pixelpatterns::Direction)>
   c:	2301      	movs	r3, #1
   e:	4905      	ldr	r1, [pc, #20]	; (24 <PixelPatterns::RainbowCycle(unsigned int, unsigned int, pixelpatterns::Direction)+0x24>)
  10:	22ff      	movs	r2, #255	; 0xff
  12:	eb01 1146 	add.w	r1, r1, r6, lsl #5
  16:	61cb      	str	r3, [r1, #28]
  18:	2300      	movs	r3, #0
  1a:	604d      	str	r5, [r1, #4]
  1c:	e9c1 2304 	strd	r2, r3, [r1, #16]
  20:	618c      	str	r4, [r1, #24]
  22:	bd70      	pop	{r4, r5, r6, pc}
  24:	00000000 	.word	0x00000000

Disassembly of section .text._ZN13PixelPatterns12TheaterChaseEjjjjN13pixelpatterns9DirectionE:

00000000 <PixelPatterns::TheaterChase(unsigned int, unsigned int, unsigned int, unsigned int, pixelpatterns::Direction)>:
   0:	b570      	push	{r4, r5, r6, lr}
   2:	460e      	mov	r6, r1
   4:	461c      	mov	r4, r3
   6:	4615      	mov	r5, r2
   8:	f7ff fffe 	bl	0 <PixelPatterns::TheaterChase(unsigned int, unsigned int, unsigned int, unsigned int, pixelpatterns::Direction)>
   c:	2302      	movs	r3, #2
   e:	4908      	ldr	r1, [pc, #32]	; (30 <PixelPatterns::TheaterChase(unsigned int, unsigned int, unsigned int, unsigned int, pixelpatterns::Direction)+0x30>)
  10:	eb01 1146 	add.w	r1, r1, r6, lsl #5
  14:	61cb      	str	r3, [r1, #28]
  16:	9b04      	ldr	r3, [sp, #16]
  18:	e9c1 5402 	strd	r5, r4, [r1, #8]
  1c:	604b      	str	r3, [r1, #4]
  1e:	4b05      	ldr	r3, [pc, #20]	; (34 <PixelPatterns::TheaterChase(unsigned int, unsigned int, unsigned int, unsigned int, pixelpatterns::Direction)+0x34>)
  20:	681b      	ldr	r3, [r3, #0]
  22:	610b      	str	r3, [r1, #16]
  24:	2300      	movs	r3, #0
  26:	614b      	str	r3, [r1, #20]
  28:	9b05      	ldr	r3, [sp, #20]
  2a:	618b      	str	r3, [r1, #24]
  2c:	bd70      	pop	{r4, r5, r6, pc}
  2e:	bf00      	nop
	...

Disassembly of section .text._ZN13PixelPatterns10ColourWipeEjjjN13pixelpatterns9DirectionE:

00000000 <PixelPatterns::ColourWipe(unsigned int, unsigned int, unsigned int, pixelpatterns::Direction)>:
   0:	b570      	push	{r4, r5, r6, lr}
   2:	460e      	mov	r6, r1
   4:	461d      	mov	r5, r3
   6:	4614      	mov	r4, r2
   8:	f7ff fffe 	bl	0 <PixelPatterns::ColourWipe(unsigned int, unsigned int, unsigned int, pixelpatterns::Direction)>
   c:	2303      	movs	r3, #3
   e:	4907      	ldr	r1, [pc, #28]	; (2c <PixelPatterns::ColourWipe(unsigned int, unsigned int, unsigned int, pixelpatterns::Direction)+0x2c>)
  10:	eb01 1146 	add.w	r1, r1, r6, lsl #5
  14:	61cb      	str	r3, [r1, #28]
  16:	4b06      	ldr	r3, [pc, #24]	; (30 <PixelPatterns::ColourWipe(unsigned int, unsigned int, unsigned int, pixelpatterns::Direction)+0x30>)
  18:	604d      	str	r5, [r1, #4]
  1a:	681b      	ldr	r3, [r3, #0]
  1c:	608c      	str	r4, [r1, #8]
  1e:	610b      	str	r3, [r1, #16]
  20:	2300      	movs	r3, #0
  22:	614b      	str	r3, [r1, #20]
  24:	9b04      	ldr	r3, [sp, #16]
  26:	618b      	str	r3, [r1, #24]
  28:	bd70      	pop	{r4, r5, r6, pc}
  2a:	bf00      	nop
	...

Disassembly of section .text._ZN13PixelPatterns7ScannerEjjj:

00000000 <PixelPatterns::Scanner(unsigned int, unsigned int, unsigned int)>:
   0:	b570      	push	{r4, r5, r6, lr}
   2:	460e      	mov	r6, r1
   4:	461d      	mov	r5, r3
   6:	4614      	mov	r4, r2
   8:	f7ff fffe 	bl	0 <PixelPatterns::Scanner(unsigned int, unsigned int, unsigned int)>
   c:	2304      	movs	r3, #4
   e:	4912      	ldr	r1, [pc, #72]	; (58 <PixelPatterns::Scanner(unsigned int, unsigned int, unsigned int)+0x58>)
  10:	eb01 1146 	add.w	r1, r1, r6, lsl #5
  14:	604d      	str	r5, [r1, #4]
  16:	4d11      	ldr	r5, [pc, #68]	; (5c <PixelPatterns::Scanner(unsigned int, unsigned int, unsigned int)+0x5c>)
  18:	61cb      	str	r3, [r1, #28]
  1a:	6828      	ldr	r0, [r5, #0]
  1c:	608c      	str	r4, [r1, #8]
  1e:	1e43      	subs	r3, r0, #1
  20:	005b      	lsls	r3, r3, #1
  22:	b29b      	uxth	r3, r3
  24:	610b      	str	r3, [r1, #16]
  26:	2300      	movs	r3, #0
  28:	4c0d      	ldr	r4, [pc, #52]	; (60 <PixelPatterns::Scanner(unsigned int, unsigned int, unsigned int)+0x60>)
  2a:	614b      	str	r3, [r1, #20]
  2c:	6823      	ldr	r3, [r4, #0]
  2e:	b993      	cbnz	r3, 56 <PixelPatterns::Scanner(unsigned int, unsigned int, unsigned int)+0x56>
  30:	f06f 4360 	mvn.w	r3, #3758096384	; 0xe0000000
  34:	4298      	cmp	r0, r3
  36:	bf2c      	ite	cs
  38:	f04f 30ff 	movcs.w	r0, #4294967295	; 0xffffffff
  3c:	0080      	lslcc	r0, r0, #2
  3e:	f7ff fffe 	bl	0 <operator new[](unsigned int)>
  42:	2300      	movs	r3, #0
  44:	461a      	mov	r2, r3
  46:	6829      	ldr	r1, [r5, #0]
  48:	6020      	str	r0, [r4, #0]
  4a:	4299      	cmp	r1, r3
  4c:	d903      	bls.n	56 <PixelPatterns::Scanner(unsigned int, unsigned int, unsigned int)+0x56>
  4e:	f840 2023 	str.w	r2, [r0, r3, lsl #2]
  52:	3301      	adds	r3, #1
  54:	e7f9      	b.n	4a <PixelPatterns::Scanner(unsigned int, unsigned int, unsigned int)+0x4a>
  56:	bd70      	pop	{r4, r5, r6, pc}
	...

Disassembly of section .text._ZN13PixelPatterns4FadeEjjjjjN13pixelpatterns9DirectionE:

00000000 <PixelPatterns::Fade(unsigned int, unsigned int, unsigned int, unsigned int, unsigned int, pixelpatterns::Direction)>:
   0:	b570      	push	{r4, r5, r6, lr}
   2:	460e      	mov	r6, r1
   4:	461c      	mov	r4, r3
   6:	4615      	mov	r5, r2
   8:	f7ff fffe 	bl	0 <PixelPatterns::Fade(unsigned int, unsigned int, unsigned int, unsigned int, unsigned int, pixelpatterns::Direction)>
   c:	2305      	movs	r3, #5
   e:	4907      	ldr	r1, [pc, #28]	; (2c <PixelPatterns::Fade(unsigned int, unsigned int, unsigned int, unsigned int, unsigned int, pixelpatterns::Direction)+0x2c>)
  10:	eb01 1146 	add.w	r1, r1, r6, lsl #5
  14:	61cb      	str	r3, [r1, #28]
  16:	9b05      	ldr	r3, [sp, #20]
  18:	e9c1 5402 	strd	r5, r4, [r1, #8]
  1c:	604b      	str	r3, [r1, #4]
  1e:	9b04      	ldr	r3, [sp, #16]
  20:	610b      	str	r3, [r1, #16]
  22:	2300      	movs	r3, #0
  24:	614b      	str	r3, [r1, #20]
  26:	9b06      	ldr	r3, [sp, #24]
  28:	618b      	str	r3, [r1, #24]
  2a:	bd70      	pop	{r4, r5, r6, pc}
  2c:	00000000 	.word	0x00000000

Disassembly of section .text._ZN13PixelPatterns5WheelEh:

00000000 <PixelPatterns::Wheel(unsigned char)>:
   0:	43c9      	mvns	r1, r1
   2:	b2c9      	uxtb	r1, r1
   4:	2954      	cmp	r1, #84	; 0x54
   6:	d809      	bhi.n	1c <PixelPatterns::Wheel(unsigned char)+0x1c>
   8:	eba1 0081 	sub.w	r0, r1, r1, lsl #2
   c:	3801      	subs	r0, #1
   e:	eb01 0141 	add.w	r1, r1, r1, lsl #1
  12:	b2c3      	uxtb	r3, r0
  14:	b2c8      	uxtb	r0, r1
  16:	ea40 4003 	orr.w	r0, r0, r3, lsl #16
  1a:	4770      	bx	lr
  1c:	29a9      	cmp	r1, #169	; 0xa9
  1e:	d80b      	bhi.n	38 <PixelPatterns::Wheel(unsigned char)+0x38>
  20:	3955      	subs	r1, #85	; 0x55
  22:	b2c9      	uxtb	r1, r1
  24:	eb01 0041 	add.w	r0, r1, r1, lsl #1
  28:	eba1 0181 	sub.w	r1, r1, r1, lsl #2
  2c:	b2c3      	uxtb	r3, r0
  2e:	1e48      	subs	r0, r1, #1
  30:	b2c0      	uxtb	r0, r0
  32:	ea40 2003 	orr.w	r0, r0, r3, lsl #8
  36:	4770      	bx	lr
  38:	3156      	adds	r1, #86	; 0x56
  3a:	b2c9      	uxtb	r1, r1
  3c:	eba1 0081 	sub.w	r0, r1, r1, lsl #2
  40:	3801      	subs	r0, #1
  42:	eb01 0141 	add.w	r1, r1, r1, lsl #1
  46:	b2c3      	uxtb	r3, r0
  48:	b2c8      	uxtb	r0, r1
  4a:	0400      	lsls	r0, r0, #16
  4c:	e7f1      	b.n	32 <PixelPatterns::Wheel(unsigned char)+0x32>

Disassembly of section .text._ZN13PixelPatterns9IncrementEj:

00000000 <PixelPatterns::Increment(unsigned int)>:
   0:	4a0d      	ldr	r2, [pc, #52]	; (38 <PixelPatterns::Increment(unsigned int)+0x38>)
   2:	b510      	push	{r4, lr}
   4:	014c      	lsls	r4, r1, #5
   6:	eb02 1141 	add.w	r1, r2, r1, lsl #5
   a:	e9d1 3005 	ldrd	r3, r0, [r1, #20]
   e:	b930      	cbnz	r0, 1e <PixelPatterns::Increment(unsigned int)+0x1e>
  10:	690a      	ldr	r2, [r1, #16]
  12:	3301      	adds	r3, #1
  14:	4293      	cmp	r3, r2
  16:	bf18      	it	ne
  18:	4618      	movne	r0, r3
  1a:	6148      	str	r0, [r1, #20]
  1c:	bd10      	pop	{r4, pc}
  1e:	b92b      	cbnz	r3, 2c <PixelPatterns::Increment(unsigned int)+0x2c>
  20:	4422      	add	r2, r4
  22:	6913      	ldr	r3, [r2, #16]
  24:	3b01      	subs	r3, #1
  26:	b29b      	uxth	r3, r3
  28:	6153      	str	r3, [r2, #20]
  2a:	e7f7      	b.n	1c <PixelPatterns::Increment(unsigned int)+0x1c>
  2c:	3b01      	subs	r3, #1
  2e:	614b      	str	r3, [r1, #20]
  30:	2b00      	cmp	r3, #0
  32:	d1f3      	bne.n	1c <PixelPatterns::Increment(unsigned int)+0x1c>
  34:	e7f4      	b.n	20 <PixelPatterns::Increment(unsigned int)+0x20>
  36:	bf00      	nop
  38:	00000000 	.word	0x00000000

Disassembly of section .text._ZN13PixelPatterns18RainbowCycleUpdateEj:

00000000 <PixelPatterns::RainbowCycleUpdate(unsigned int)>:
   0:	e92d 41f0 	stmdb	sp!, {r4, r5, r6, r7, r8, lr}
   4:	4604      	mov	r4, r0
   6:	460d      	mov	r5, r1
   8:	2600      	movs	r6, #0
   a:	4b10      	ldr	r3, [pc, #64]	; (4c <PixelPatterns::RainbowCycleUpdate(unsigned int)+0x4c>)
   c:	f8df 8040 	ldr.w	r8, [pc, #64]	; 50 <PixelPatterns::RainbowCycleUpdate(unsigned int)+0x50>
  10:	eb03 1341 	add.w	r3, r3, r1, lsl #5
  14:	695f      	ldr	r7, [r3, #20]
  16:	f8d8 1000 	ldr.w	r1, [r8]
  1a:	b2b2      	uxth	r2, r6
  1c:	4291      	cmp	r1, r2
  1e:	f106 0601 	add.w	r6, r6, #1
  22:	d90c      	bls.n	3e <PixelPatterns::RainbowCycleUpdate(unsigned int)+0x3e>
  24:	0213      	lsls	r3, r2, #8
  26:	fbb3 f3f1 	udiv	r3, r3, r1
  2a:	443b      	add	r3, r7
  2c:	b2d9      	uxtb	r1, r3
  2e:	4620      	mov	r0, r4
  30:	f7ff fffe 	bl	0 <PixelPatterns::RainbowCycleUpdate(unsigned int)>
  34:	4601      	mov	r1, r0
  36:	4610      	mov	r0, r2
  38:	f7ff fffe 	bl	0 <PixelPatterns::RainbowCycleUpdate(unsigned int)>
  3c:	e7eb      	b.n	16 <PixelPatterns::RainbowCycleUpdate(unsigned int)+0x16>
  3e:	4629      	mov	r1, r5
  40:	4620      	mov	r0, r4
  42:	e8bd 41f0 	ldmia.w	sp!, {r4, r5, r6, r7, r8, lr}
  46:	f7ff bffe 	b.w	0 <PixelPatterns::RainbowCycleUpdate(unsigned int)>
  4a:	bf00      	nop
	...

Disassembly of section .text._ZN13PixelPatterns18TheaterChaseUpdateEj:

00000000 <PixelPatterns::TheaterChaseUpdate(unsigned int)>:
   0:	e92d 4ff8 	stmdb	sp!, {r3, r4, r5, r6, r7, r8, r9, sl, fp, lr}
   4:	4605      	mov	r5, r0
   6:	460c      	mov	r4, r1
   8:	f04f 0b00 	mov.w	fp, #0
   c:	4b12      	ldr	r3, [pc, #72]	; (58 <PixelPatterns::TheaterChaseUpdate(unsigned int)+0x58>)
   e:	f8df 904c 	ldr.w	r9, [pc, #76]	; 5c <PixelPatterns::TheaterChaseUpdate(unsigned int)+0x5c>
  12:	eb03 1341 	add.w	r3, r3, r1, lsl #5
  16:	f8d3 8014 	ldr.w	r8, [r3, #20]
  1a:	f8df a044 	ldr.w	sl, [pc, #68]	; 60 <PixelPatterns::TheaterChaseUpdate(unsigned int)+0x60>
  1e:	e9d3 6702 	ldrd	r6, r7, [r3, #8]
  22:	f8d9 3000 	ldr.w	r3, [r9]
  26:	fa1f f08b 	uxth.w	r0, fp
  2a:	4283      	cmp	r3, r0
  2c:	d90d      	bls.n	4a <PixelPatterns::TheaterChaseUpdate(unsigned int)+0x4a>
  2e:	eb08 0300 	add.w	r3, r8, r0
  32:	fb0a f303 	mul.w	r3, sl, r3
  36:	f1b3 3f55 	cmp.w	r3, #1431655765	; 0x55555555
  3a:	bf94      	ite	ls
  3c:	4631      	movls	r1, r6
  3e:	4639      	movhi	r1, r7
  40:	f7ff fffe 	bl	0 <PixelPatterns::TheaterChaseUpdate(unsigned int)>
  44:	f10b 0b01 	add.w	fp, fp, #1
  48:	e7eb      	b.n	22 <PixelPatterns::TheaterChaseUpdate(unsigned int)+0x22>
  4a:	4621      	mov	r1, r4
  4c:	4628      	mov	r0, r5
  4e:	e8bd 4ff8 	ldmia.w	sp!, {r3, r4, r5, r6, r7, r8, r9, sl, fp, lr}
  52:	f7ff bffe 	b.w	0 <PixelPatterns::TheaterChaseUpdate(unsigned int)>
  56:	bf00      	nop
	...
  60:	aaaaaaab 	.word	0xaaaaaaab

Disassembly of section .text._ZN13PixelPatterns16ColourWipeUpdateEj:

00000000 <PixelPatterns::ColourWipeUpdate(unsigned int)>:
   0:	b538      	push	{r3, r4, r5, lr}
   2:	4605      	mov	r5, r0
   4:	460c      	mov	r4, r1
   6:	4b06      	ldr	r3, [pc, #24]	; (20 <PixelPatterns::ColourWipeUpdate(unsigned int)+0x20>)
   8:	eb03 1341 	add.w	r3, r3, r1, lsl #5
   c:	6899      	ldr	r1, [r3, #8]
   e:	6958      	ldr	r0, [r3, #20]
  10:	f7ff fffe 	bl	0 <PixelPatterns::ColourWipeUpdate(unsigned int)>
  14:	4621      	mov	r1, r4
  16:	4628      	mov	r0, r5
  18:	e8bd 4038 	ldmia.w	sp!, {r3, r4, r5, lr}
  1c:	f7ff bffe 	b.w	0 <PixelPatterns::ColourWipeUpdate(unsigned int)>
  20:	00000000 	.word	0x00000000

Disassembly of section .text._ZN13PixelPatterns13ScannerUpdateEj:

00000000 <PixelPatterns::ScannerUpdate(unsigned int)>:
   0:	e92d 4ff0 	stmdb	sp!, {r4, r5, r6, r7, r8, r9, sl, fp, lr}
   4:	460d      	mov	r5, r1
   6:	f04f 0900 	mov.w	r9, #0
   a:	4a27      	ldr	r2, [pc, #156]	; (a8 <PixelPatterns::ScannerUpdate(unsigned int)+0xa8>)
   c:	b085      	sub	sp, #20
   e:	eb02 1241 	add.w	r2, r2, r1, lsl #5
  12:	e9d2 7604 	ldrd	r7, r6, [r2, #16]
  16:	f8d2 a008 	ldr.w	sl, [r2, #8]
  1a:	00b3      	lsls	r3, r6, #2
  1c:	f8df b08c 	ldr.w	fp, [pc, #140]	; ac <PixelPatterns::ScannerUpdate(unsigned int)+0xac>
  20:	f8df 808c 	ldr.w	r8, [pc, #140]	; b0 <PixelPatterns::ScannerUpdate(unsigned int)+0xb0>
  24:	9002      	str	r0, [sp, #8]
  26:	9301      	str	r3, [sp, #4]
  28:	1bbf      	subs	r7, r7, r6
  2a:	f8db 1000 	ldr.w	r1, [fp]
  2e:	fa1f f489 	uxth.w	r4, r9
  32:	42a1      	cmp	r1, r4
  34:	d930      	bls.n	98 <PixelPatterns::ScannerUpdate(unsigned int)+0x98>
  36:	42a6      	cmp	r6, r4
  38:	d10b      	bne.n	52 <PixelPatterns::ScannerUpdate(unsigned int)+0x52>
  3a:	4651      	mov	r1, sl
  3c:	4630      	mov	r0, r6
  3e:	f7ff fffe 	bl	0 <PixelPatterns::ScannerUpdate(unsigned int)>
  42:	f8d8 1000 	ldr.w	r1, [r8]
  46:	9b01      	ldr	r3, [sp, #4]
  48:	f841 a003 	str.w	sl, [r1, r3]
  4c:	f109 0901 	add.w	r9, r9, #1
  50:	e7eb      	b.n	2a <PixelPatterns::ScannerUpdate(unsigned int)+0x2a>
  52:	42a7      	cmp	r7, r4
  54:	d108      	bne.n	68 <PixelPatterns::ScannerUpdate(unsigned int)+0x68>
  56:	4651      	mov	r1, sl
  58:	4638      	mov	r0, r7
  5a:	f7ff fffe 	bl	0 <PixelPatterns::ScannerUpdate(unsigned int)>
  5e:	f8d8 1000 	ldr.w	r1, [r8]
  62:	f841 a024 	str.w	sl, [r1, r4, lsl #2]
  66:	e7f1      	b.n	4c <PixelPatterns::ScannerUpdate(unsigned int)+0x4c>
  68:	f8d8 1000 	ldr.w	r1, [r8]
  6c:	f851 0024 	ldr.w	r0, [r1, r4, lsl #2]
  70:	f3c0 2146 	ubfx	r1, r0, #9, #7
  74:	f3c0 4c46 	ubfx	ip, r0, #17, #7
  78:	0209      	lsls	r1, r1, #8
  7a:	ea41 410c 	orr.w	r1, r1, ip, lsl #16
  7e:	f3c0 0046 	ubfx	r0, r0, #1, #7
  82:	4301      	orrs	r1, r0
  84:	4620      	mov	r0, r4
  86:	9103      	str	r1, [sp, #12]
  88:	f7ff fffe 	bl	0 <PixelPatterns::ScannerUpdate(unsigned int)>
  8c:	f8d8 0000 	ldr.w	r0, [r8]
  90:	9903      	ldr	r1, [sp, #12]
  92:	f840 1024 	str.w	r1, [r0, r4, lsl #2]
  96:	e7d9      	b.n	4c <PixelPatterns::ScannerUpdate(unsigned int)+0x4c>
  98:	4629      	mov	r1, r5
  9a:	9802      	ldr	r0, [sp, #8]
  9c:	b005      	add	sp, #20
  9e:	e8bd 4ff0 	ldmia.w	sp!, {r4, r5, r6, r7, r8, r9, sl, fp, lr}
  a2:	f7ff bffe 	b.w	0 <PixelPatterns::ScannerUpdate(unsigned int)>
  a6:	bf00      	nop
	...

Disassembly of section .text._ZN13PixelPatterns10FadeUpdateEj:

00000000 <PixelPatterns::FadeUpdate(unsigned int)>:
   0:	4a21      	ldr	r2, [pc, #132]	; (88 <PixelPatterns::FadeUpdate(unsigned int)+0x88>)
   2:	e92d 41f0 	stmdb	sp!, {r4, r5, r6, r7, r8, lr}
   6:	eb02 1241 	add.w	r2, r2, r1, lsl #5
   a:	4605      	mov	r5, r0
   c:	e9d2 3002 	ldrd	r3, r0, [r2, #8]
  10:	460c      	mov	r4, r1
  12:	e9d2 6104 	ldrd	r6, r1, [r2, #16]
  16:	f3c0 2207 	ubfx	r2, r0, #8, #8
  1a:	434a      	muls	r2, r1
  1c:	1a77      	subs	r7, r6, r1
  1e:	f3c3 2c07 	ubfx	ip, r3, #8, #8
  22:	fb07 220c 	mla	r2, r7, ip, r2
  26:	fbb2 f2f6 	udiv	r2, r2, r6
  2a:	0212      	lsls	r2, r2, #8
  2c:	fa1f fc82 	uxth.w	ip, r2
  30:	f3c0 4207 	ubfx	r2, r0, #16, #8
  34:	434a      	muls	r2, r1
  36:	f3c3 4e07 	ubfx	lr, r3, #16, #8
  3a:	fb07 220e 	mla	r2, r7, lr, r2
  3e:	fbb2 f2f6 	udiv	r2, r2, r6
  42:	0412      	lsls	r2, r2, #16
  44:	f402 027f 	and.w	r2, r2, #16711680	; 0xff0000
  48:	ea4c 0202 	orr.w	r2, ip, r2
  4c:	fa5f fc83 	uxtb.w	ip, r3
  50:	b2c3      	uxtb	r3, r0
  52:	434b      	muls	r3, r1
  54:	fb07 330c 	mla	r3, r7, ip, r3
  58:	fbb3 f3f6 	udiv	r3, r3, r6
  5c:	2700      	movs	r7, #0
  5e:	b2db      	uxtb	r3, r3
  60:	f8df 8028 	ldr.w	r8, [pc, #40]	; 8c <PixelPatterns::FadeUpdate(unsigned int)+0x8c>
  64:	ea42 0603 	orr.w	r6, r2, r3
  68:	f8d8 3000 	ldr.w	r3, [r8]
  6c:	42bb      	cmp	r3, r7
  6e:	d905      	bls.n	7c <PixelPatterns::FadeUpdate(unsigned int)+0x7c>
  70:	4638      	mov	r0, r7
  72:	4631      	mov	r1, r6
  74:	f7ff fffe 	bl	0 <PixelPatterns::FadeUpdate(unsigned int)>
  78:	3701      	adds	r7, #1
  7a:	e7f5      	b.n	68 <PixelPatterns::FadeUpdate(unsigned int)+0x68>
  7c:	4621      	mov	r1, r4
  7e:	4628      	mov	r0, r5
  80:	e8bd 41f0 	ldmia.w	sp!, {r4, r5, r6, r7, r8, lr}
  84:	f7ff bffe 	b.w	0 <PixelPatterns::FadeUpdate(unsigned int)>
	...

Disassembly of section .text._ZN13PixelPatterns10PortUpdateEjj:

00000000 <PixelPatterns::PortUpdate(unsigned int, unsigned int)>:
   0:	b5f8      	push	{r3, r4, r5, r6, r7, lr}
   2:	4b12      	ldr	r3, [pc, #72]	; (4c <PixelPatterns::PortUpdate(unsigned int, unsigned int)+0x4c>)
   4:	014e      	lsls	r6, r1, #5
   6:	599c      	ldr	r4, [r3, r6]
   8:	eb03 1541 	add.w	r5, r3, r1, lsl #5
   c:	686f      	ldr	r7, [r5, #4]
   e:	1b14      	subs	r4, r2, r4
  10:	42bc      	cmp	r4, r7
  12:	d319      	bcc.n	48 <PixelPatterns::PortUpdate(unsigned int, unsigned int)+0x48>
  14:	519a      	str	r2, [r3, r6]
  16:	69eb      	ldr	r3, [r5, #28]
  18:	3b01      	subs	r3, #1
  1a:	2b04      	cmp	r3, #4
  1c:	d814      	bhi.n	48 <PixelPatterns::PortUpdate(unsigned int, unsigned int)+0x48>
  1e:	e8df f003 	tbb	[pc, r3]
  22:	0703      	.short	0x0703
  24:	0d0a      	.short	0x0d0a
  26:	10          	.byte	0x10
  27:	00          	.byte	0x00
  28:	f7ff fffe 	bl	0 <PixelPatterns::PortUpdate(unsigned int, unsigned int)>
  2c:	2001      	movs	r0, #1
  2e:	bdf8      	pop	{r3, r4, r5, r6, r7, pc}
  30:	f7ff fffe 	bl	0 <PixelPatterns::PortUpdate(unsigned int, unsigned int)>
  34:	e7fa      	b.n	2c <PixelPatterns::PortUpdate(unsigned int, unsigned int)+0x2c>
  36:	f7ff fffe 	bl	0 <PixelPatterns::PortUpdate(unsigned int, unsigned int)>
  3a:	e7f7      	b.n	2c <PixelPatterns::PortUpdate(unsigned int, unsigned int)+0x2c>
  3c:	f7ff fffe 	bl	0 <PixelPatterns::PortUpdate(unsigned int, unsigned int)>
  40:	e7f4      	b.n	2c <PixelPatterns::PortUpdate(unsigned int, unsigned int)+0x2c>
  42:	f7ff fffe 	bl	0 <PixelPatterns::PortUpdate(unsigned int, unsigned int)>
  46:	e7f1      	b.n	2c <PixelPatterns::PortUpdate(unsigned int, unsigned int)+0x2c>
  48:	2000      	movs	r0, #0
  4a:	e7f0      	b.n	2e <PixelPatterns::PortUpdate(unsigned int, unsigned int)+0x2e>
  4c:	00000000 	.word	0x00000000

Disassembly of section .text._ZN13PixelPatterns3RunEv:

00000000 <PixelPatterns::Run()>:
   0:	e92d 41f0 	stmdb	sp!, {r4, r5, r6, r7, r8, lr}
   4:	4605      	mov	r5, r0
   6:	f7ff fffe 	bl	0 <gd32_spi_dma_tx_is_active>
   a:	4604      	mov	r4, r0
   c:	b9c8      	cbnz	r0, 42 <PixelPatterns::Run()+0x42>
   e:	4606      	mov	r6, r0
  10:	4b0d      	ldr	r3, [pc, #52]	; (48 <PixelPatterns::Run()+0x48>)
  12:	f8df 8038 	ldr.w	r8, [pc, #56]	; 4c <PixelPatterns::Run()+0x4c>
  16:	681f      	ldr	r7, [r3, #0]
  18:	f8d8 3000 	ldr.w	r3, [r8]
  1c:	b2f1      	uxtb	r1, r6
  1e:	428b      	cmp	r3, r1
  20:	f106 0601 	add.w	r6, r6, #1
  24:	d906      	bls.n	34 <PixelPatterns::Run()+0x34>
  26:	463a      	mov	r2, r7
  28:	4628      	mov	r0, r5
  2a:	f7ff fffe 	bl	0 <PixelPatterns::Run()>
  2e:	4304      	orrs	r4, r0
  30:	b2e4      	uxtb	r4, r4
  32:	e7f1      	b.n	18 <PixelPatterns::Run()+0x18>
  34:	b12c      	cbz	r4, 42 <PixelPatterns::Run()+0x42>
  36:	e8bd 41f0 	ldmia.w	sp!, {r4, r5, r6, r7, r8, lr}
  3a:	4b05      	ldr	r3, [pc, #20]	; (50 <PixelPatterns::Run()+0x50>)
  3c:	6818      	ldr	r0, [r3, #0]
  3e:	f7ff bffe 	b.w	0 <WS28xx::Update()>
  42:	e8bd 81f0 	ldmia.w	sp!, {r4, r5, r6, r7, r8, pc}
  46:	bf00      	nop
	...

Disassembly of section .text._ZN13PixelPatterns7ReverseEj:

00000000 <PixelPatterns::Reverse(unsigned int)>:
   0:	4b07      	ldr	r3, [pc, #28]	; (20 <PixelPatterns::Reverse(unsigned int)+0x20>)
   2:	eb03 1141 	add.w	r1, r3, r1, lsl #5
   6:	698b      	ldr	r3, [r1, #24]
   8:	b933      	cbnz	r3, 18 <PixelPatterns::Reverse(unsigned int)+0x18>
   a:	2301      	movs	r3, #1
   c:	618b      	str	r3, [r1, #24]
   e:	690b      	ldr	r3, [r1, #16]
  10:	3b01      	subs	r3, #1
  12:	b29b      	uxth	r3, r3
  14:	614b      	str	r3, [r1, #20]
  16:	4770      	bx	lr
  18:	2300      	movs	r3, #0
  1a:	618b      	str	r3, [r1, #24]
  1c:	e7fa      	b.n	14 <PixelPatterns::Reverse(unsigned int)+0x14>
  1e:	bf00      	nop
  20:	00000000 	.word	0x00000000

pixeltestpattern.o:     file format elf32-littlearm


pixeltype.o:     file format elf32-littlearm


Disassembly of section .text._ZN9PixelType7GetTypeEN5pixel4TypeE:

00000000 <PixelType::GetType(pixel::Type)>:
   0:	280d      	cmp	r0, #13
   2:	bfda      	itte	le
   4:	4b02      	ldrle	r3, [pc, #8]	; (10 <PixelType::GetType(pixel::Type)+0x10>)
   6:	eb03 00c0 	addle.w	r0, r3, r0, lsl #3
   a:	4802      	ldrgt	r0, [pc, #8]	; (14 <PixelType::GetType(pixel::Type)+0x14>)
   c:	4770      	bx	lr
   e:	bf00      	nop
	...

Disassembly of section .text._ZN9PixelType7GetTypeEPKc:

00000000 <PixelType::GetType(char const*)>:
   0:	b5f8      	push	{r3, r4, r5, r6, r7, lr}
   2:	4604      	mov	r4, r0
   4:	b928      	cbnz	r0, 12 <PixelType::GetType(char const*)+0x12>
   6:	213c      	movs	r1, #60	; 0x3c
   8:	4b12      	ldr	r3, [pc, #72]	; (54 <PixelType::GetType(char const*)+0x54>)
   a:	4a13      	ldr	r2, [pc, #76]	; (58 <PixelType::GetType(char const*)+0x58>)
   c:	4813      	ldr	r0, [pc, #76]	; (5c <PixelType::GetType(char const*)+0x5c>)
   e:	f7ff fffe 	bl	0 <__assert_func>
  12:	2000      	movs	r0, #0
  14:	4912      	ldr	r1, [pc, #72]	; (60 <PixelType::GetType(char const*)+0x60>)
  16:	1e66      	subs	r6, r4, #1
  18:	1e4d      	subs	r5, r1, #1
  1a:	f816 3f01 	ldrb.w	r3, [r6, #1]!
  1e:	461f      	mov	r7, r3
  20:	f1a3 0241 	sub.w	r2, r3, #65	; 0x41
  24:	2a19      	cmp	r2, #25
  26:	f815 2f01 	ldrb.w	r2, [r5, #1]!
  2a:	bf98      	it	ls
  2c:	f103 0720 	addls.w	r7, r3, #32
  30:	f1a2 0c41 	sub.w	ip, r2, #65	; 0x41
  34:	f1bc 0f19 	cmp.w	ip, #25
  38:	bf98      	it	ls
  3a:	3220      	addls	r2, #32
  3c:	42ba      	cmp	r2, r7
  3e:	d102      	bne.n	46 <PixelType::GetType(char const*)+0x46>
  40:	2b00      	cmp	r3, #0
  42:	d1ea      	bne.n	1a <PixelType::GetType(char const*)+0x1a>
  44:	bdf8      	pop	{r3, r4, r5, r6, r7, pc}
  46:	3001      	adds	r0, #1
  48:	280e      	cmp	r0, #14
  4a:	f101 0108 	add.w	r1, r1, #8
  4e:	d1e2      	bne.n	16 <PixelType::GetType(char const*)+0x16>
  50:	e7f8      	b.n	44 <PixelType::GetType(char const*)+0x44>
  52:	bf00      	nop
  54:	00000000 	.word	0x00000000
  58:	00000013 	.word	0x00000013
  5c:	0000001b 	.word	0x0000001b
  60:	00000000 	.word	0x00000000

Disassembly of section .text._ZN9PixelType6GetMapEPKc:

00000000 <PixelType::GetMap(char const*)>:
   0:	b5f8      	push	{r3, r4, r5, r6, r7, lr}
   2:	4604      	mov	r4, r0
   4:	b928      	cbnz	r0, 12 <PixelType::GetMap(char const*)+0x12>
   6:	2148      	movs	r1, #72	; 0x48
   8:	4b14      	ldr	r3, [pc, #80]	; (5c <PixelType::GetMap(char const*)+0x5c>)
   a:	4a15      	ldr	r2, [pc, #84]	; (60 <PixelType::GetMap(char const*)+0x60>)
   c:	4815      	ldr	r0, [pc, #84]	; (64 <PixelType::GetMap(char const*)+0x64>)
   e:	f7ff fffe 	bl	0 <__assert_func>
  12:	2000      	movs	r0, #0
  14:	4b14      	ldr	r3, [pc, #80]	; (68 <PixelType::GetMap(char const*)+0x68>)
  16:	1e5d      	subs	r5, r3, #1
  18:	1e66      	subs	r6, r4, #1
  1a:	f103 0c02 	add.w	ip, r3, #2
  1e:	f815 2f01 	ldrb.w	r2, [r5, #1]!
  22:	4617      	mov	r7, r2
  24:	f1a2 0141 	sub.w	r1, r2, #65	; 0x41
  28:	2919      	cmp	r1, #25
  2a:	f816 1f01 	ldrb.w	r1, [r6, #1]!
  2e:	bf98      	it	ls
  30:	f102 0720 	addls.w	r7, r2, #32
  34:	f1a1 0e41 	sub.w	lr, r1, #65	; 0x41
  38:	f1be 0f19 	cmp.w	lr, #25
  3c:	bf98      	it	ls
  3e:	3120      	addls	r1, #32
  40:	42b9      	cmp	r1, r7
  42:	d005      	beq.n	50 <PixelType::GetMap(char const*)+0x50>
  44:	3001      	adds	r0, #1
  46:	2806      	cmp	r0, #6
  48:	f103 0304 	add.w	r3, r3, #4
  4c:	d1e3      	bne.n	16 <PixelType::GetMap(char const*)+0x16>
  4e:	bdf8      	pop	{r3, r4, r5, r6, r7, pc}
  50:	2a00      	cmp	r2, #0
  52:	d0fc      	beq.n	4e <PixelType::GetMap(char const*)+0x4e>
  54:	45ac      	cmp	ip, r5
  56:	d1e2      	bne.n	1e <PixelType::GetMap(char const*)+0x1e>
  58:	e7f9      	b.n	4e <PixelType::GetMap(char const*)+0x4e>
  5a:	bf00      	nop
	...
  64:	0000001b 	.word	0x0000001b
  68:	00000000 	.word	0x00000000

Disassembly of section .text._ZN9PixelType6GetMapEN5pixel3MapE:

00000000 <PixelType::GetMap(pixel::Map)>:
   0:	2805      	cmp	r0, #5
   2:	bfda      	itte	le
   4:	4b02      	ldrle	r3, [pc, #8]	; (10 <PixelType::GetMap(pixel::Map)+0x10>)
   6:	eb03 0080 	addle.w	r0, r3, r0, lsl #2
   a:	4802      	ldrgt	r0, [pc, #8]	; (14 <PixelType::GetMap(pixel::Map)+0x14>)
   c:	4770      	bx	lr
   e:	bf00      	nop
	...

Disassembly of section .text._ZN9PixelType10ConvertTxHEh:

00000000 <PixelType::ConvertTxH(unsigned char)>:
   0:	28f0      	cmp	r0, #240	; 0xf0
   2:	d010      	beq.n	26 <PixelType::ConvertTxH(unsigned char)+0x26>
   4:	d807      	bhi.n	16 <PixelType::ConvertTxH(unsigned char)+0x16>
   6:	28c0      	cmp	r0, #192	; 0xc0
   8:	d00f      	beq.n	2a <PixelType::ConvertTxH(unsigned char)+0x2a>
   a:	28e0      	cmp	r0, #224	; 0xe0
   c:	d00f      	beq.n	2e <PixelType::ConvertTxH(unsigned char)+0x2e>
   e:	2880      	cmp	r0, #128	; 0x80
  10:	d113      	bne.n	3a <PixelType::ConvertTxH(unsigned char)+0x3a>
  12:	480b      	ldr	r0, [pc, #44]	; (40 <PixelType::ConvertTxH(unsigned char)+0x40>)
  14:	4770      	bx	lr
  16:	28fc      	cmp	r0, #252	; 0xfc
  18:	d00b      	beq.n	32 <PixelType::ConvertTxH(unsigned char)+0x32>
  1a:	28fe      	cmp	r0, #254	; 0xfe
  1c:	d00b      	beq.n	36 <PixelType::ConvertTxH(unsigned char)+0x36>
  1e:	28f8      	cmp	r0, #248	; 0xf8
  20:	d10b      	bne.n	3a <PixelType::ConvertTxH(unsigned char)+0x3a>
  22:	4808      	ldr	r0, [pc, #32]	; (44 <PixelType::ConvertTxH(unsigned char)+0x44>)
  24:	4770      	bx	lr
  26:	4808      	ldr	r0, [pc, #32]	; (48 <PixelType::ConvertTxH(unsigned char)+0x48>)
  28:	4770      	bx	lr
  2a:	4808      	ldr	r0, [pc, #32]	; (4c <PixelType::ConvertTxH(unsigned char)+0x4c>)
  2c:	4770      	bx	lr
  2e:	4808      	ldr	r0, [pc, #32]	; (50 <PixelType::ConvertTxH(unsigned char)+0x50>)
  30:	4770      	bx	lr
  32:	4808      	ldr	r0, [pc, #32]	; (54 <PixelType::ConvertTxH(unsigned char)+0x54>)
  34:	4770      	bx	lr
  36:	4808      	ldr	r0, [pc, #32]	; (58 <PixelType::ConvertTxH(unsigned char)+0x58>)
  38:	4770      	bx	lr
  3a:	2000      	movs	r0, #0
  3c:	4770      	bx	lr
  3e:	bf00      	nop
  40:	3e200000 	.word	0x3e200000
  44:	3f480000 	.word	0x3f480000
  48:	3f200000 	.word	0x3f200000
  4c:	3ea00000 	.word	0x3ea00000
  50:	3ef00000 	.word	0x3ef00000
  54:	3f700000 	.word	0x3f700000
  58:	3f8c0000 	.word	0x3f8c0000

Disassembly of section .text._ZN9PixelType10ConvertTxHEf:

00000000 <PixelType::ConvertTxH(float)>:
   0:	b510      	push	{r4, lr}
   2:	491d      	ldr	r1, [pc, #116]	; (78 <PixelType::ConvertTxH(float)+0x78>)
   4:	4604      	mov	r4, r0
   6:	f7ff fffe 	bl	0 <__aeabi_fcmplt>
   a:	bb30      	cbnz	r0, 5a <PixelType::ConvertTxH(float)+0x5a>
   c:	4620      	mov	r0, r4
   e:	491b      	ldr	r1, [pc, #108]	; (7c <PixelType::ConvertTxH(float)+0x7c>)
  10:	f7ff fffe 	bl	0 <__aeabi_fcmplt>
  14:	bb18      	cbnz	r0, 5e <PixelType::ConvertTxH(float)+0x5e>
  16:	4620      	mov	r0, r4
  18:	4919      	ldr	r1, [pc, #100]	; (80 <PixelType::ConvertTxH(float)+0x80>)
  1a:	f7ff fffe 	bl	0 <__aeabi_fcmplt>
  1e:	bb00      	cbnz	r0, 62 <PixelType::ConvertTxH(float)+0x62>
  20:	4620      	mov	r0, r4
  22:	4918      	ldr	r1, [pc, #96]	; (84 <PixelType::ConvertTxH(float)+0x84>)
  24:	f7ff fffe 	bl	0 <__aeabi_fcmplt>
  28:	b9e8      	cbnz	r0, 66 <PixelType::ConvertTxH(float)+0x66>
  2a:	4620      	mov	r0, r4
  2c:	4916      	ldr	r1, [pc, #88]	; (88 <PixelType::ConvertTxH(float)+0x88>)
  2e:	f7ff fffe 	bl	0 <__aeabi_fcmplt>
  32:	b9d0      	cbnz	r0, 6a <PixelType::ConvertTxH(float)+0x6a>
  34:	4620      	mov	r0, r4
  36:	4915      	ldr	r1, [pc, #84]	; (8c <PixelType::ConvertTxH(float)+0x8c>)
  38:	f7ff fffe 	bl	0 <__aeabi_fcmplt>
  3c:	b9b8      	cbnz	r0, 6e <PixelType::ConvertTxH(float)+0x6e>
  3e:	4620      	mov	r0, r4
  40:	4913      	ldr	r1, [pc, #76]	; (90 <PixelType::ConvertTxH(float)+0x90>)
  42:	f7ff fffe 	bl	0 <__aeabi_fcmplt>
  46:	b9a0      	cbnz	r0, 72 <PixelType::ConvertTxH(float)+0x72>
  48:	4620      	mov	r0, r4
  4a:	4912      	ldr	r1, [pc, #72]	; (94 <PixelType::ConvertTxH(float)+0x94>)
  4c:	f7ff fffe 	bl	0 <__aeabi_fcmplt>
  50:	2800      	cmp	r0, #0
  52:	bf14      	ite	ne
  54:	20fe      	movne	r0, #254	; 0xfe
  56:	2000      	moveq	r0, #0
  58:	bd10      	pop	{r4, pc}
  5a:	2000      	movs	r0, #0
  5c:	e7fc      	b.n	58 <PixelType::ConvertTxH(float)+0x58>
  5e:	2080      	movs	r0, #128	; 0x80
  60:	e7fa      	b.n	58 <PixelType::ConvertTxH(float)+0x58>
  62:	20c0      	movs	r0, #192	; 0xc0
  64:	e7f8      	b.n	58 <PixelType::ConvertTxH(float)+0x58>
  66:	20e0      	movs	r0, #224	; 0xe0
  68:	e7f6      	b.n	58 <PixelType::ConvertTxH(float)+0x58>
  6a:	20f0      	movs	r0, #240	; 0xf0
  6c:	e7f4      	b.n	58 <PixelType::ConvertTxH(float)+0x58>
  6e:	20f8      	movs	r0, #248	; 0xf8
  70:	e7f2      	b.n	58 <PixelType::ConvertTxH(float)+0x58>
  72:	20fc      	movs	r0, #252	; 0xfc
  74:	e7f0      	b.n	58 <PixelType::ConvertTxH(float)+0x58>
  76:	bf00      	nop
  78:	3da00000 	.word	0x3da00000
  7c:	3e700000 	.word	0x3e700000
  80:	3ec80000 	.word	0x3ec80000
  84:	3f0c0000 	.word	0x3f0c0000
  88:	3f340000 	.word	0x3f340000
  8c:	3f5c0000 	.word	0x3f5c0000
  90:	3f820000 	.word	0x3f820000
  94:	3f960000 	.word	0x3f960000

ws28xx.o:     file format elf32-littlearm


Disassembly of section .text._ZN6WS28xxD2Ev:

00000000 <WS28xx::~WS28xx()>:
   0:	2200      	movs	r2, #0
   2:	4b01      	ldr	r3, [pc, #4]	; (8 <WS28xx::~WS28xx()+0x8>)
   4:	601a      	str	r2, [r3, #0]
   6:	4770      	bx	lr
   8:	00000000 	.word	0x00000000

Disassembly of section .text._ZN6WS28xx6UpdateEv:

00000000 <WS28xx::Update()>:
   0:	6943      	ldr	r3, [r0, #20]
   2:	b510      	push	{r4, lr}
   4:	4604      	mov	r4, r0
   6:	b92b      	cbnz	r3, 14 <WS28xx::Update()+0x14>
   8:	21aa      	movs	r1, #170	; 0xaa
   a:	4b10      	ldr	r3, [pc, #64]	; (4c <WS28xx::Update()+0x4c>)
   c:	4a10      	ldr	r2, [pc, #64]	; (50 <WS28xx::Update()+0x50>)
   e:	4811      	ldr	r0, [pc, #68]	; (54 <WS28xx::Update()+0x54>)
  10:	f7ff fffe 	bl	0 <__assert_func>
  14:	f7ff fffe 	bl	0 <gd32_spi_dma_tx_is_active>
  18:	b128      	cbz	r0, 26 <WS28xx::Update()+0x26>
  1a:	21ac      	movs	r1, #172	; 0xac
  1c:	4b0e      	ldr	r3, [pc, #56]	; (58 <WS28xx::Update()+0x58>)
  1e:	4a0c      	ldr	r2, [pc, #48]	; (50 <WS28xx::Update()+0x50>)
  20:	480c      	ldr	r0, [pc, #48]	; (54 <WS28xx::Update()+0x54>)
  22:	f7ff fffe 	bl	0 <__assert_func>
  26:	2200      	movs	r2, #0
  28:	6963      	ldr	r3, [r4, #20]
  2a:	701a      	strb	r2, [r3, #0]
  2c:	6960      	ldr	r0, [r4, #20]
  2e:	68e1      	ldr	r1, [r4, #12]
  30:	4603      	mov	r3, r0
  32:	eb00 0441 	add.w	r4, r0, r1, lsl #1
  36:	42a3      	cmp	r3, r4
  38:	d004      	beq.n	44 <WS28xx::Update()+0x44>
  3a:	881a      	ldrh	r2, [r3, #0]
  3c:	ba52      	rev16	r2, r2
  3e:	f823 2b02 	strh.w	r2, [r3], #2
  42:	e7f8      	b.n	36 <WS28xx::Update()+0x36>
  44:	e8bd 4010 	ldmia.w	sp!, {r4, lr}
  48:	f7ff bffe 	b.w	0 <gd32_spi_dma_tx_start>
  4c:	00000000 	.word	0x00000000
  50:	00000015 	.word	0x00000015
  54:	0000001c 	.word	0x0000001c
  58:	0000002b 	.word	0x0000002b

Disassembly of section .text._ZN6WS28xx8BlackoutEv:

00000000 <WS28xx::Blackout()>:
   0:	b510      	push	{r4, lr}
   2:	4604      	mov	r4, r0
   4:	23c0      	movs	r3, #192	; 0xc0
   6:	4a14      	ldr	r2, [pc, #80]	; (58 <WS28xx::Blackout()+0x58>)
   8:	4914      	ldr	r1, [pc, #80]	; (5c <WS28xx::Blackout()+0x5c>)
   a:	4815      	ldr	r0, [pc, #84]	; (60 <WS28xx::Blackout()+0x60>)
   c:	f7ff fffe 	bl	0 <printf>
  10:	69a3      	ldr	r3, [r4, #24]
  12:	b92b      	cbnz	r3, 20 <WS28xx::Blackout()+0x20>
  14:	21c2      	movs	r1, #194	; 0xc2
  16:	4b13      	ldr	r3, [pc, #76]	; (64 <WS28xx::Blackout()+0x64>)
  18:	4a0f      	ldr	r2, [pc, #60]	; (58 <WS28xx::Blackout()+0x58>)
  1a:	4810      	ldr	r0, [pc, #64]	; (5c <WS28xx::Blackout()+0x5c>)
  1c:	f7ff fffe 	bl	0 <__assert_func>
  20:	f7ff fffe 	bl	0 <gd32_spi_dma_tx_is_active>
  24:	b128      	cbz	r0, 32 <WS28xx::Blackout()+0x32>
  26:	21c4      	movs	r1, #196	; 0xc4
  28:	4b0f      	ldr	r3, [pc, #60]	; (68 <WS28xx::Blackout()+0x68>)
  2a:	4a0b      	ldr	r2, [pc, #44]	; (58 <WS28xx::Blackout()+0x58>)
  2c:	480b      	ldr	r0, [pc, #44]	; (5c <WS28xx::Blackout()+0x5c>)
  2e:	f7ff fffe 	bl	0 <__assert_func>
  32:	68e1      	ldr	r1, [r4, #12]
  34:	69a0      	ldr	r0, [r4, #24]
  36:	f7ff fffe 	bl	0 <gd32_spi_dma_tx_start>
  3a:	f3bf 8f6f 	isb	sy
  3e:	f7ff fffe 	bl	0 <gd32_spi_dma_tx_is_active>
  42:	2800      	cmp	r0, #0
  44:	d1f9      	bne.n	3a <WS28xx::Blackout()+0x3a>
  46:	e8bd 4010 	ldmia.w	sp!, {r4, lr}
  4a:	23d0      	movs	r3, #208	; 0xd0
  4c:	4a02      	ldr	r2, [pc, #8]	; (58 <WS28xx::Blackout()+0x58>)
  4e:	4903      	ldr	r1, [pc, #12]	; (5c <WS28xx::Blackout()+0x5c>)
  50:	4806      	ldr	r0, [pc, #24]	; (6c <WS28xx::Blackout()+0x6c>)
  52:	f7ff bffe 	b.w	0 <printf>
  56:	bf00      	nop
  58:	00000000 	.word	0x00000000
  5c:	0000001c 	.word	0x0000001c
  60:	00000009 	.word	0x00000009
  64:	00000017 	.word	0x00000017
  68:	0000002b 	.word	0x0000002b
  6c:	00000034 	.word	0x00000034

Disassembly of section .text._ZN6WS28xx5PrintEv:

00000000 <WS28xx::Print()>:
   0:	b513      	push	{r0, r1, r4, lr}
   2:	4604      	mov	r4, r0
   4:	4819      	ldr	r0, [pc, #100]	; (6c <WS28xx::Print()+0x6c>)
   6:	f7ff fffe 	bl	0 <printf>
   a:	6820      	ldr	r0, [r4, #0]
   c:	f7ff fffe 	bl	0 <PixelType::GetType(pixel::Type)>
  10:	6822      	ldr	r2, [r4, #0]
  12:	4601      	mov	r1, r0
  14:	4816      	ldr	r0, [pc, #88]	; (70 <WS28xx::Print()+0x70>)
  16:	f7ff fffe 	bl	0 <printf>
  1a:	6861      	ldr	r1, [r4, #4]
  1c:	4815      	ldr	r0, [pc, #84]	; (74 <WS28xx::Print()+0x74>)
  1e:	f7ff fffe 	bl	0 <printf>
  22:	7ca3      	ldrb	r3, [r4, #18]
  24:	b1fb      	cbz	r3, 66 <WS28xx::Print()+0x66>
  26:	68a0      	ldr	r0, [r4, #8]
  28:	f7ff fffe 	bl	0 <PixelType::GetMap(pixel::Map)>
  2c:	68a2      	ldr	r2, [r4, #8]
  2e:	4601      	mov	r1, r0
  30:	4811      	ldr	r0, [pc, #68]	; (78 <WS28xx::Print()+0x78>)
  32:	f7ff fffe 	bl	0 <printf>
  36:	7c20      	ldrb	r0, [r4, #16]
  38:	f7ff fffe 	bl	0 <PixelType::ConvertTxH(unsigned char)>
  3c:	f7ff fffe 	bl	0 <__aeabi_f2d>
  40:	460b      	mov	r3, r1
  42:	7c21      	ldrb	r1, [r4, #16]
  44:	4602      	mov	r2, r0
  46:	9100      	str	r1, [sp, #0]
  48:	480c      	ldr	r0, [pc, #48]	; (7c <WS28xx::Print()+0x7c>)
  4a:	f7ff fffe 	bl	0 <printf>
  4e:	7c60      	ldrb	r0, [r4, #17]
  50:	f7ff fffe 	bl	0 <PixelType::ConvertTxH(unsigned char)>
  54:	f7ff fffe 	bl	0 <__aeabi_f2d>
  58:	460b      	mov	r3, r1
  5a:	7c61      	ldrb	r1, [r4, #17]
  5c:	4602      	mov	r2, r0
  5e:	9100      	str	r1, [sp, #0]
  60:	4807      	ldr	r0, [pc, #28]	; (80 <WS28xx::Print()+0x80>)
  62:	f7ff fffe 	bl	0 <printf>
  66:	b002      	add	sp, #8
  68:	bd10      	pop	{r4, pc}
  6a:	bf00      	nop
  6c:	00000000 	.word	0x00000000
  70:	00000012 	.word	0x00000012
  74:	00000026 	.word	0x00000026
  78:	00000035 	.word	0x00000035
  7c:	00000049 	.word	0x00000049
  80:	00000061 	.word	0x00000061

Disassembly of section .text._ZN6WS28xx14SetColorWS28xxEjh:

00000000 <WS28xx::SetColorWS28xx(unsigned int, unsigned char)>:
   0:	6943      	ldr	r3, [r0, #20]
   2:	b570      	push	{r4, r5, r6, lr}
   4:	4604      	mov	r4, r0
   6:	460d      	mov	r5, r1
   8:	4616      	mov	r6, r2
   a:	b933      	cbnz	r3, 1a <WS28xx::SetColorWS28xx(unsigned int, unsigned char)+0x1a>
   c:	f240 114b 	movw	r1, #331	; 0x14b
  10:	4b13      	ldr	r3, [pc, #76]	; (60 <WS28xx::SetColorWS28xx(unsigned int, unsigned char)+0x60>)
  12:	4a14      	ldr	r2, [pc, #80]	; (64 <WS28xx::SetColorWS28xx(unsigned int, unsigned char)+0x64>)
  14:	4814      	ldr	r0, [pc, #80]	; (68 <WS28xx::SetColorWS28xx(unsigned int, unsigned char)+0x68>)
  16:	f7ff fffe 	bl	0 <__assert_func>
  1a:	6823      	ldr	r3, [r4, #0]
  1c:	b933      	cbnz	r3, 2c <WS28xx::SetColorWS28xx(unsigned int, unsigned char)+0x2c>
  1e:	f44f 71a6 	mov.w	r1, #332	; 0x14c
  22:	4b12      	ldr	r3, [pc, #72]	; (6c <WS28xx::SetColorWS28xx(unsigned int, unsigned char)+0x6c>)
  24:	4a0f      	ldr	r2, [pc, #60]	; (64 <WS28xx::SetColorWS28xx(unsigned int, unsigned char)+0x64>)
  26:	4810      	ldr	r0, [pc, #64]	; (68 <WS28xx::SetColorWS28xx(unsigned int, unsigned char)+0x68>)
  28:	f7ff fffe 	bl	0 <__assert_func>
  2c:	68e2      	ldr	r2, [r4, #12]
  2e:	1deb      	adds	r3, r5, #7
  30:	4293      	cmp	r3, r2
  32:	d306      	bcc.n	42 <WS28xx::SetColorWS28xx(unsigned int, unsigned char)+0x42>
  34:	f240 114d 	movw	r1, #333	; 0x14d
  38:	4b0d      	ldr	r3, [pc, #52]	; (70 <WS28xx::SetColorWS28xx(unsigned int, unsigned char)+0x70>)
  3a:	4a0a      	ldr	r2, [pc, #40]	; (64 <WS28xx::SetColorWS28xx(unsigned int, unsigned char)+0x64>)
  3c:	480a      	ldr	r0, [pc, #40]	; (68 <WS28xx::SetColorWS28xx(unsigned int, unsigned char)+0x68>)
  3e:	f7ff fffe 	bl	0 <__assert_func>
  42:	2180      	movs	r1, #128	; 0x80
  44:	1c6b      	adds	r3, r5, #1
  46:	3509      	adds	r5, #9
  48:	420e      	tst	r6, r1
  4a:	bf14      	ite	ne
  4c:	7c60      	ldrbne	r0, [r4, #17]
  4e:	7c20      	ldrbeq	r0, [r4, #16]
  50:	6962      	ldr	r2, [r4, #20]
  52:	0849      	lsrs	r1, r1, #1
  54:	54d0      	strb	r0, [r2, r3]
  56:	3301      	adds	r3, #1
  58:	429d      	cmp	r5, r3
  5a:	d1f5      	bne.n	48 <WS28xx::SetColorWS28xx(unsigned int, unsigned char)+0x48>
  5c:	bd70      	pop	{r4, r5, r6, pc}
  5e:	bf00      	nop
	...
  68:	0000001c 	.word	0x0000001c
  6c:	0000000f 	.word	0x0000000f
  70:	00000026 	.word	0x00000026

Disassembly of section .text._ZN6WS28xx8SetPixelEjhhh:

00000000 <WS28xx::SetPixel(unsigned int, unsigned char, unsigned char, unsigned char)>:
   0:	e92d 47f0 	stmdb	sp!, {r4, r5, r6, r7, r8, r9, sl, lr}
   4:	461f      	mov	r7, r3
   6:	6943      	ldr	r3, [r0, #20]
   8:	4604      	mov	r4, r0
   a:	460d      	mov	r5, r1
   c:	4616      	mov	r6, r2
   e:	f89d 8020 	ldrb.w	r8, [sp, #32]
  12:	b92b      	cbnz	r3, 20 <WS28xx::SetPixel(unsigned int, unsigned char, unsigned char, unsigned char)+0x20>
  14:	21e1      	movs	r1, #225	; 0xe1
  16:	4b63      	ldr	r3, [pc, #396]	; (1a4 <WS28xx::SetPixel(unsigned int, unsigned char, unsigned char, unsigned char)+0x1a4>)
  18:	4a63      	ldr	r2, [pc, #396]	; (1a8 <WS28xx::SetPixel(unsigned int, unsigned char, unsigned char, unsigned char)+0x1a8>)
  1a:	4864      	ldr	r0, [pc, #400]	; (1ac <WS28xx::SetPixel(unsigned int, unsigned char, unsigned char, unsigned char)+0x1ac>)
  1c:	f7ff fffe 	bl	0 <__assert_func>
  20:	6863      	ldr	r3, [r4, #4]
  22:	42ab      	cmp	r3, r5
  24:	d805      	bhi.n	32 <WS28xx::SetPixel(unsigned int, unsigned char, unsigned char, unsigned char)+0x32>
  26:	21e2      	movs	r1, #226	; 0xe2
  28:	4b61      	ldr	r3, [pc, #388]	; (1b0 <WS28xx::SetPixel(unsigned int, unsigned char, unsigned char, unsigned char)+0x1b0>)
  2a:	4a5f      	ldr	r2, [pc, #380]	; (1a8 <WS28xx::SetPixel(unsigned int, unsigned char, unsigned char, unsigned char)+0x1a8>)
  2c:	485f      	ldr	r0, [pc, #380]	; (1ac <WS28xx::SetPixel(unsigned int, unsigned char, unsigned char, unsigned char)+0x1ac>)
  2e:	f7ff fffe 	bl	0 <__assert_func>
  32:	7ca3      	ldrb	r3, [r4, #18]
  34:	2b00      	cmp	r3, #0
  36:	d047      	beq.n	c8 <WS28xx::SetPixel(unsigned int, unsigned char, unsigned char, unsigned char)+0xc8>
  38:	2318      	movs	r3, #24
  3a:	fb03 f105 	mul.w	r1, r3, r5
  3e:	68a3      	ldr	r3, [r4, #8]
  40:	f101 0908 	add.w	r9, r1, #8
  44:	3b01      	subs	r3, #1
  46:	f101 0510 	add.w	r5, r1, #16
  4a:	2b04      	cmp	r3, #4
  4c:	d836      	bhi.n	bc <WS28xx::SetPixel(unsigned int, unsigned char, unsigned char, unsigned char)+0xbc>
  4e:	e8df f003 	tbb	[pc, r3]
  52:	1303      	.short	0x1303
  54:	291e      	.short	0x291e
  56:	2f          	.byte	0x2f
  57:	00          	.byte	0x00
  58:	4632      	mov	r2, r6
  5a:	4620      	mov	r0, r4
  5c:	f7ff fffe 	bl	0 <WS28xx::SetPixel(unsigned int, unsigned char, unsigned char, unsigned char)>
  60:	4642      	mov	r2, r8
  62:	4649      	mov	r1, r9
  64:	4620      	mov	r0, r4
  66:	f7ff fffe 	bl	0 <WS28xx::SetPixel(unsigned int, unsigned char, unsigned char, unsigned char)>
  6a:	463a      	mov	r2, r7
  6c:	4629      	mov	r1, r5
  6e:	4620      	mov	r0, r4
  70:	e8bd 47f0 	ldmia.w	sp!, {r4, r5, r6, r7, r8, r9, sl, lr}
  74:	f7ff bffe 	b.w	0 <WS28xx::SetPixel(unsigned int, unsigned char, unsigned char, unsigned char)>
  78:	463a      	mov	r2, r7
  7a:	4620      	mov	r0, r4
  7c:	f7ff fffe 	bl	0 <WS28xx::SetPixel(unsigned int, unsigned char, unsigned char, unsigned char)>
  80:	4632      	mov	r2, r6
  82:	4649      	mov	r1, r9
  84:	4620      	mov	r0, r4
  86:	f7ff fffe 	bl	0 <WS28xx::SetPixel(unsigned int, unsigned char, unsigned char, unsigned char)>
  8a:	4642      	mov	r2, r8
  8c:	e7ee      	b.n	6c <WS28xx::SetPixel(unsigned int, unsigned char, unsigned char, unsigned char)+0x6c>
  8e:	463a      	mov	r2, r7
  90:	4620      	mov	r0, r4
  92:	f7ff fffe 	bl	0 <WS28xx::SetPixel(unsigned int, unsigned char, unsigned char, unsigned char)>
  96:	4642      	mov	r2, r8
  98:	4649      	mov	r1, r9
  9a:	4620      	mov	r0, r4
  9c:	f7ff fffe 	bl	0 <WS28xx::SetPixel(unsigned int, unsigned char, unsigned char, unsigned char)>
  a0:	4632      	mov	r2, r6
  a2:	e7e3      	b.n	6c <WS28xx::SetPixel(unsigned int, unsigned char, unsigned char, unsigned char)+0x6c>
  a4:	4642      	mov	r2, r8
  a6:	4620      	mov	r0, r4
  a8:	f7ff fffe 	bl	0 <WS28xx::SetPixel(unsigned int, unsigned char, unsigned char, unsigned char)>
  ac:	4632      	mov	r2, r6
  ae:	e7d8      	b.n	62 <WS28xx::SetPixel(unsigned int, unsigned char, unsigned char, unsigned char)+0x62>
  b0:	4642      	mov	r2, r8
  b2:	4620      	mov	r0, r4
  b4:	f7ff fffe 	bl	0 <WS28xx::SetPixel(unsigned int, unsigned char, unsigned char, unsigned char)>
  b8:	463a      	mov	r2, r7
  ba:	e7ed      	b.n	98 <WS28xx::SetPixel(unsigned int, unsigned char, unsigned char, unsigned char)+0x98>
  bc:	4632      	mov	r2, r6
  be:	4620      	mov	r0, r4
  c0:	f7ff fffe 	bl	0 <WS28xx::SetPixel(unsigned int, unsigned char, unsigned char, unsigned char)>
  c4:	463a      	mov	r2, r7
  c6:	e7dc      	b.n	82 <WS28xx::SetPixel(unsigned int, unsigned char, unsigned char, unsigned char)+0x82>
  c8:	6823      	ldr	r3, [r4, #0]
  ca:	f1a3 020b 	sub.w	r2, r3, #11
  ce:	2a01      	cmp	r2, #1
  d0:	d81d      	bhi.n	10e <WS28xx::SetPixel(unsigned int, unsigned char, unsigned char, unsigned char)+0x10e>
  d2:	3501      	adds	r5, #1
  d4:	68e3      	ldr	r3, [r4, #12]
  d6:	ea4f 0a85 	mov.w	sl, r5, lsl #2
  da:	f10a 0903 	add.w	r9, sl, #3
  de:	4599      	cmp	r9, r3
  e0:	d306      	bcc.n	f0 <WS28xx::SetPixel(unsigned int, unsigned char, unsigned char, unsigned char)+0xf0>
  e2:	f240 1113 	movw	r1, #275	; 0x113
  e6:	4b33      	ldr	r3, [pc, #204]	; (1b4 <WS28xx::SetPixel(unsigned int, unsigned char, unsigned char, unsigned char)+0x1b4>)
  e8:	4a2f      	ldr	r2, [pc, #188]	; (1a8 <WS28xx::SetPixel(unsigned int, unsigned char, unsigned char, unsigned char)+0x1a8>)
  ea:	4830      	ldr	r0, [pc, #192]	; (1ac <WS28xx::SetPixel(unsigned int, unsigned char, unsigned char, unsigned char)+0x1ac>)
  ec:	f7ff fffe 	bl	0 <__assert_func>
  f0:	6963      	ldr	r3, [r4, #20]
  f2:	7ce2      	ldrb	r2, [r4, #19]
  f4:	f803 2025 	strb.w	r2, [r3, r5, lsl #2]
  f8:	6963      	ldr	r3, [r4, #20]
  fa:	4453      	add	r3, sl
  fc:	705e      	strb	r6, [r3, #1]
  fe:	6963      	ldr	r3, [r4, #20]
 100:	4453      	add	r3, sl
 102:	709f      	strb	r7, [r3, #2]
 104:	6963      	ldr	r3, [r4, #20]
 106:	f803 8009 	strb.w	r8, [r3, r9]
 10a:	e8bd 87f0 	ldmia.w	sp!, {r4, r5, r6, r7, r8, r9, sl, pc}
 10e:	b99b      	cbnz	r3, 138 <WS28xx::SetPixel(unsigned int, unsigned char, unsigned char, unsigned char)+0x138>
 110:	68e3      	ldr	r3, [r4, #12]
 112:	eb05 0545 	add.w	r5, r5, r5, lsl #1
 116:	f105 0902 	add.w	r9, r5, #2
 11a:	4599      	cmp	r9, r3
 11c:	d306      	bcc.n	12c <WS28xx::SetPixel(unsigned int, unsigned char, unsigned char, unsigned char)+0x12c>
 11e:	f240 111f 	movw	r1, #287	; 0x11f
 122:	4b25      	ldr	r3, [pc, #148]	; (1b8 <WS28xx::SetPixel(unsigned int, unsigned char, unsigned char, unsigned char)+0x1b8>)
 124:	4a20      	ldr	r2, [pc, #128]	; (1a8 <WS28xx::SetPixel(unsigned int, unsigned char, unsigned char, unsigned char)+0x1a8>)
 126:	4821      	ldr	r0, [pc, #132]	; (1ac <WS28xx::SetPixel(unsigned int, unsigned char, unsigned char, unsigned char)+0x1ac>)
 128:	f7ff fffe 	bl	0 <__assert_func>
 12c:	6963      	ldr	r3, [r4, #20]
 12e:	555e      	strb	r6, [r3, r5]
 130:	6961      	ldr	r1, [r4, #20]
 132:	440d      	add	r5, r1
 134:	706f      	strb	r7, [r5, #1]
 136:	e7e5      	b.n	104 <WS28xx::SetPixel(unsigned int, unsigned char, unsigned char, unsigned char)+0x104>
 138:	2b0d      	cmp	r3, #13
 13a:	d12b      	bne.n	194 <WS28xx::SetPixel(unsigned int, unsigned char, unsigned char, unsigned char)+0x194>
 13c:	3501      	adds	r5, #1
 13e:	68e3      	ldr	r3, [r4, #12]
 140:	ea4f 0985 	mov.w	r9, r5, lsl #2
 144:	f109 0a03 	add.w	sl, r9, #3
 148:	459a      	cmp	sl, r3
 14a:	d306      	bcc.n	15a <WS28xx::SetPixel(unsigned int, unsigned char, unsigned char, unsigned char)+0x15a>
 14c:	f44f 7195 	mov.w	r1, #298	; 0x12a
 150:	4b1a      	ldr	r3, [pc, #104]	; (1bc <WS28xx::SetPixel(unsigned int, unsigned char, unsigned char, unsigned char)+0x1bc>)
 152:	4a15      	ldr	r2, [pc, #84]	; (1a8 <WS28xx::SetPixel(unsigned int, unsigned char, unsigned char, unsigned char)+0x1a8>)
 154:	4815      	ldr	r0, [pc, #84]	; (1ac <WS28xx::SetPixel(unsigned int, unsigned char, unsigned char, unsigned char)+0x1ac>)
 156:	f7ff fffe 	bl	0 <__assert_func>
 15a:	ea6f 0398 	mvn.w	r3, r8, lsr #2
 15e:	f086 01c0 	eor.w	r1, r6, #192	; 0xc0
 162:	f003 0330 	and.w	r3, r3, #48	; 0x30
 166:	ea43 1391 	orr.w	r3, r3, r1, lsr #6
 16a:	ea6f 1117 	mvn.w	r1, r7, lsr #4
 16e:	f001 010c 	and.w	r1, r1, #12
 172:	6962      	ldr	r2, [r4, #20]
 174:	430b      	orrs	r3, r1
 176:	f063 033f 	orn	r3, r3, #63	; 0x3f
 17a:	f802 3025 	strb.w	r3, [r2, r5, lsl #2]
 17e:	6963      	ldr	r3, [r4, #20]
 180:	444b      	add	r3, r9
 182:	f883 8001 	strb.w	r8, [r3, #1]
 186:	6963      	ldr	r3, [r4, #20]
 188:	444b      	add	r3, r9
 18a:	709f      	strb	r7, [r3, #2]
 18c:	6963      	ldr	r3, [r4, #20]
 18e:	f803 600a 	strb.w	r6, [r3, sl]
 192:	e7ba      	b.n	10a <WS28xx::SetPixel(unsigned int, unsigned char, unsigned char, unsigned char)+0x10a>
 194:	f44f 719b 	mov.w	r1, #310	; 0x136
 198:	4b09      	ldr	r3, [pc, #36]	; (1c0 <WS28xx::SetPixel(unsigned int, unsigned char, unsigned char, unsigned char)+0x1c0>)
 19a:	4a03      	ldr	r2, [pc, #12]	; (1a8 <WS28xx::SetPixel(unsigned int, unsigned char, unsigned char, unsigned char)+0x1a8>)
 19c:	4803      	ldr	r0, [pc, #12]	; (1ac <WS28xx::SetPixel(unsigned int, unsigned char, unsigned char, unsigned char)+0x1ac>)
 19e:	f7ff fffe 	bl	0 <__assert_func>
 1a2:	bf00      	nop
	...
 1ac:	0000001c 	.word	0x0000001c
 1b0:	00000009 	.word	0x00000009
 1b4:	00000020 	.word	0x00000020
 1b8:	0000003a 	.word	0x0000003a
 1bc:	00000054 	.word	0x00000054
 1c0:	0000006d 	.word	0x0000006d

Disassembly of section .text._ZN6WS28xx12SetupBuffersEv:

00000000 <WS28xx::SetupBuffers()>:
   0:	b570      	push	{r4, r5, r6, lr}
   2:	2369      	movs	r3, #105	; 0x69
   4:	b086      	sub	sp, #24
   6:	4604      	mov	r4, r0
   8:	4a49      	ldr	r2, [pc, #292]	; (130 <WS28xx::SetupBuffers()+0x130>)
   a:	494a      	ldr	r1, [pc, #296]	; (134 <WS28xx::SetupBuffers()+0x134>)
   c:	484a      	ldr	r0, [pc, #296]	; (138 <WS28xx::SetupBuffers()+0x138>)
   e:	f7ff fffe 	bl	0 <printf>
  12:	a805      	add	r0, sp, #20
  14:	f7ff fffe 	bl	0 <gd32_spi_dma_tx_prepare>
  18:	6160      	str	r0, [r4, #20]
  1a:	b928      	cbnz	r0, 28 <WS28xx::SetupBuffers()+0x28>
  1c:	216e      	movs	r1, #110	; 0x6e
  1e:	4b47      	ldr	r3, [pc, #284]	; (13c <WS28xx::SetupBuffers()+0x13c>)
  20:	4a43      	ldr	r2, [pc, #268]	; (130 <WS28xx::SetupBuffers()+0x130>)
  22:	4844      	ldr	r0, [pc, #272]	; (134 <WS28xx::SetupBuffers()+0x134>)
  24:	f7ff fffe 	bl	0 <__assert_func>
  28:	9b05      	ldr	r3, [sp, #20]
  2a:	68e2      	ldr	r2, [r4, #12]
  2c:	085d      	lsrs	r5, r3, #1
  2e:	ebb2 0f53 	cmp.w	r2, r3, lsr #1
  32:	d905      	bls.n	40 <WS28xx::SetupBuffers()+0x40>
  34:	2171      	movs	r1, #113	; 0x71
  36:	4b42      	ldr	r3, [pc, #264]	; (140 <WS28xx::SetupBuffers()+0x140>)
  38:	4a3d      	ldr	r2, [pc, #244]	; (130 <WS28xx::SetupBuffers()+0x130>)
  3a:	483e      	ldr	r0, [pc, #248]	; (134 <WS28xx::SetupBuffers()+0x134>)
  3c:	f7ff fffe 	bl	0 <__assert_func>
  40:	6962      	ldr	r2, [r4, #20]
  42:	f025 0303 	bic.w	r3, r5, #3
  46:	4413      	add	r3, r2
  48:	e9cd 2301 	strd	r2, r3, [sp, #4]
  4c:	61a3      	str	r3, [r4, #24]
  4e:	68e3      	ldr	r3, [r4, #12]
  50:	4937      	ldr	r1, [pc, #220]	; (130 <WS28xx::SetupBuffers()+0x130>)
  52:	9300      	str	r3, [sp, #0]
  54:	4a37      	ldr	r2, [pc, #220]	; (134 <WS28xx::SetupBuffers()+0x134>)
  56:	237e      	movs	r3, #126	; 0x7e
  58:	483a      	ldr	r0, [pc, #232]	; (144 <WS28xx::SetupBuffers()+0x144>)
  5a:	f7ff fffe 	bl	0 <printf>
  5e:	2100      	movs	r1, #0
  60:	6823      	ldr	r3, [r4, #0]
  62:	3b0b      	subs	r3, #11
  64:	2b02      	cmp	r3, #2
  66:	6963      	ldr	r3, [r4, #20]
  68:	7019      	strb	r1, [r3, #0]
  6a:	d82c      	bhi.n	c6 <WS28xx::SetupBuffers()+0xc6>
  6c:	460d      	mov	r5, r1
  6e:	460e      	mov	r6, r1
  70:	7059      	strb	r1, [r3, #1]
  72:	7099      	strb	r1, [r3, #2]
  74:	70d9      	strb	r1, [r3, #3]
  76:	6863      	ldr	r3, [r4, #4]
  78:	42ab      	cmp	r3, r5
  7a:	d908      	bls.n	8e <WS28xx::SetupBuffers()+0x8e>
  7c:	2300      	movs	r3, #0
  7e:	4629      	mov	r1, r5
  80:	461a      	mov	r2, r3
  82:	4620      	mov	r0, r4
  84:	9600      	str	r6, [sp, #0]
  86:	f7ff fffe 	bl	0 <WS28xx::SetupBuffers()>
  8a:	3501      	adds	r5, #1
  8c:	e7f3      	b.n	76 <WS28xx::SetupBuffers()+0x76>
  8e:	6821      	ldr	r1, [r4, #0]
  90:	68e2      	ldr	r2, [r4, #12]
  92:	390b      	subs	r1, #11
  94:	2901      	cmp	r1, #1
  96:	bf94      	ite	ls
  98:	21ff      	movls	r1, #255	; 0xff
  9a:	2100      	movhi	r1, #0
  9c:	6960      	ldr	r0, [r4, #20]
  9e:	3a04      	subs	r2, #4
  a0:	1883      	adds	r3, r0, r2
  a2:	5481      	strb	r1, [r0, r2]
  a4:	7059      	strb	r1, [r3, #1]
  a6:	7099      	strb	r1, [r3, #2]
  a8:	70d9      	strb	r1, [r3, #3]
  aa:	68e3      	ldr	r3, [r4, #12]
  ac:	2000      	movs	r0, #0
  ae:	1cda      	adds	r2, r3, #3
  b0:	f022 0203 	bic.w	r2, r2, #3
  b4:	60e2      	str	r2, [r4, #12]
  b6:	461a      	mov	r2, r3
  b8:	68e1      	ldr	r1, [r4, #12]
  ba:	4291      	cmp	r1, r2
  bc:	d910      	bls.n	e0 <WS28xx::SetupBuffers()+0xe0>
  be:	6961      	ldr	r1, [r4, #20]
  c0:	5488      	strb	r0, [r1, r2]
  c2:	3201      	adds	r2, #1
  c4:	e7f8      	b.n	b8 <WS28xx::SetupBuffers()+0xb8>
  c6:	6963      	ldr	r3, [r4, #20]
  c8:	6821      	ldr	r1, [r4, #0]
  ca:	1c5a      	adds	r2, r3, #1
  cc:	b101      	cbz	r1, d0 <WS28xx::SetupBuffers()+0xd0>
  ce:	7c21      	ldrb	r1, [r4, #16]
  d0:	68e0      	ldr	r0, [r4, #12]
  d2:	3001      	adds	r0, #1
  d4:	4403      	add	r3, r0
  d6:	429a      	cmp	r2, r3
  d8:	d0e7      	beq.n	aa <WS28xx::SetupBuffers()+0xaa>
  da:	f802 1b01 	strb.w	r1, [r2], #1
  de:	e7fa      	b.n	d6 <WS28xx::SetupBuffers()+0xd6>
  e0:	1acb      	subs	r3, r1, r3
  e2:	e9cd 1300 	strd	r1, r3, [sp]
  e6:	4a13      	ldr	r2, [pc, #76]	; (134 <WS28xx::SetupBuffers()+0x134>)
  e8:	2399      	movs	r3, #153	; 0x99
  ea:	4911      	ldr	r1, [pc, #68]	; (130 <WS28xx::SetupBuffers()+0x130>)
  ec:	4816      	ldr	r0, [pc, #88]	; (148 <WS28xx::SetupBuffers()+0x148>)
  ee:	f7ff fffe 	bl	0 <printf>
  f2:	e9d4 2305 	ldrd	r2, r3, [r4, #20]
  f6:	68e1      	ldr	r1, [r4, #12]
  f8:	3b01      	subs	r3, #1
  fa:	4411      	add	r1, r2
  fc:	428a      	cmp	r2, r1
  fe:	d004      	beq.n	10a <WS28xx::SetupBuffers()+0x10a>
 100:	f812 0b01 	ldrb.w	r0, [r2], #1
 104:	f803 0f01 	strb.w	r0, [r3, #1]!
 108:	e7f8      	b.n	fc <WS28xx::SetupBuffers()+0xfc>
 10a:	69a3      	ldr	r3, [r4, #24]
 10c:	68e1      	ldr	r1, [r4, #12]
 10e:	eb03 0141 	add.w	r1, r3, r1, lsl #1
 112:	4299      	cmp	r1, r3
 114:	d004      	beq.n	120 <WS28xx::SetupBuffers()+0x120>
 116:	881a      	ldrh	r2, [r3, #0]
 118:	ba52      	rev16	r2, r2
 11a:	f823 2b02 	strh.w	r2, [r3], #2
 11e:	e7f8      	b.n	112 <WS28xx::SetupBuffers()+0x112>
 120:	23a6      	movs	r3, #166	; 0xa6
 122:	4a03      	ldr	r2, [pc, #12]	; (130 <WS28xx::SetupBuffers()+0x130>)
 124:	4903      	ldr	r1, [pc, #12]	; (134 <WS28xx::SetupBuffers()+0x134>)
 126:	4809      	ldr	r0, [pc, #36]	; (14c <WS28xx::SetupBuffers()+0x14c>)
 128:	f7ff fffe 	bl	0 <printf>
 12c:	b006      	add	sp, #24
 12e:	bd70      	pop	{r4, r5, r6, pc}
 130:	00000000 	.word	0x00000000
 134:	0000001c 	.word	0x0000001c
 138:	00000009 	.word	0x00000009
 13c:	00000000 	.word	0x00000000
 140:	0000000d 	.word	0x0000000d
 144:	00000025 	.word	0x00000025
 148:	0000006a 	.word	0x0000006a
 14c:	00000034 	.word	0x00000034

Disassembly of section .text._ZN6WS28xxC2ER18PixelConfiguration:

00000000 <WS28xx::WS28xx(PixelConfiguration&)>:
   0:	2203      	movs	r2, #3
   2:	23aa      	movs	r3, #170	; 0xaa
   4:	b573      	push	{r0, r1, r4, r5, r6, lr}
   6:	e9c0 2300 	strd	r2, r3, [r0]
   a:	2306      	movs	r3, #6
   c:	6083      	str	r3, [r0, #8]
   e:	f44f 437f 	mov.w	r3, #65280	; 0xff00
  12:	8243      	strh	r3, [r0, #18]
  14:	2300      	movs	r3, #0
  16:	4e23      	ldr	r6, [pc, #140]	; (a4 <WS28xx::WS28xx(PixelConfiguration&)+0xa4>)
  18:	e9c0 3305 	strd	r3, r3, [r0, #20]
  1c:	4604      	mov	r4, r0
  1e:	232c      	movs	r3, #44	; 0x2c
  20:	460d      	mov	r5, r1
  22:	4a21      	ldr	r2, [pc, #132]	; (a8 <WS28xx::WS28xx(PixelConfiguration&)+0xa8>)
  24:	4921      	ldr	r1, [pc, #132]	; (ac <WS28xx::WS28xx(PixelConfiguration&)+0xac>)
  26:	4822      	ldr	r0, [pc, #136]	; (b0 <WS28xx::WS28xx(PixelConfiguration&)+0xb0>)
  28:	f7ff fffe 	bl	0 <printf>
  2c:	6833      	ldr	r3, [r6, #0]
  2e:	b12b      	cbz	r3, 3c <WS28xx::WS28xx(PixelConfiguration&)+0x3c>
  30:	212e      	movs	r1, #46	; 0x2e
  32:	4b20      	ldr	r3, [pc, #128]	; (b4 <WS28xx::WS28xx(PixelConfiguration&)+0xb4>)
  34:	4a1c      	ldr	r2, [pc, #112]	; (a8 <WS28xx::WS28xx(PixelConfiguration&)+0xa8>)
  36:	481d      	ldr	r0, [pc, #116]	; (ac <WS28xx::WS28xx(PixelConfiguration&)+0xac>)
  38:	f7ff fffe 	bl	0 <__assert_func>
  3c:	a901      	add	r1, sp, #4
  3e:	4628      	mov	r0, r5
  40:	6034      	str	r4, [r6, #0]
  42:	f7ff fffe 	bl	0 <PixelConfiguration::Validate(unsigned int&)>
  46:	4628      	mov	r0, r5
  48:	f7ff fffe 	bl	0 <PixelConfiguration::Dump()>
  4c:	68ab      	ldr	r3, [r5, #8]
  4e:	686a      	ldr	r2, [r5, #4]
  50:	60a3      	str	r3, [r4, #8]
  52:	8a2b      	ldrh	r3, [r5, #16]
  54:	6829      	ldr	r1, [r5, #0]
  56:	8223      	strh	r3, [r4, #16]
  58:	7cab      	ldrb	r3, [r5, #18]
  5a:	7ce8      	ldrb	r0, [r5, #19]
  5c:	74e3      	strb	r3, [r4, #19]
  5e:	9b01      	ldr	r3, [sp, #4]
  60:	6021      	str	r1, [r4, #0]
  62:	4353      	muls	r3, r2
  64:	6062      	str	r2, [r4, #4]
  66:	74a0      	strb	r0, [r4, #18]
  68:	b9c0      	cbnz	r0, 9c <WS28xx::WS28xx(PixelConfiguration&)+0x9c>
  6a:	390b      	subs	r1, #11
  6c:	2902      	cmp	r1, #2
  6e:	60e3      	str	r3, [r4, #12]
  70:	bf9f      	itttt	ls
  72:	68e3      	ldrls	r3, [r4, #12]
  74:	3208      	addls	r2, #8
  76:	18d2      	addls	r2, r2, r3
  78:	60e2      	strls	r2, [r4, #12]
  7a:	4620      	mov	r0, r4
  7c:	f7ff fffe 	bl	0 <WS28xx::WS28xx(PixelConfiguration&)>
  80:	f7ff fffe 	bl	0 <gd32_spi_dma_begin>
  84:	68e8      	ldr	r0, [r5, #12]
  86:	f7ff fffe 	bl	0 <gd32_spi_dma_set_speed_hz>
  8a:	2352      	movs	r3, #82	; 0x52
  8c:	4a06      	ldr	r2, [pc, #24]	; (a8 <WS28xx::WS28xx(PixelConfiguration&)+0xa8>)
  8e:	4907      	ldr	r1, [pc, #28]	; (ac <WS28xx::WS28xx(PixelConfiguration&)+0xac>)
  90:	4809      	ldr	r0, [pc, #36]	; (b8 <WS28xx::WS28xx(PixelConfiguration&)+0xb8>)
  92:	f7ff fffe 	bl	0 <printf>
  96:	4620      	mov	r0, r4
  98:	b002      	add	sp, #8
  9a:	bd70      	pop	{r4, r5, r6, pc}
  9c:	00db      	lsls	r3, r3, #3
  9e:	3301      	adds	r3, #1
  a0:	e7e3      	b.n	6a <WS28xx::WS28xx(PixelConfiguration&)+0x6a>
  a2:	bf00      	nop
	...
  ac:	0000001c 	.word	0x0000001c
  b0:	00000009 	.word	0x00000009
  b4:	00000007 	.word	0x00000007
  b8:	00000034 	.word	0x00000034

Disassembly of section .text._ZN6WS28xx8SetPixelEjhhhh:

00000000 <WS28xx::SetPixel(unsigned int, unsigned char, unsigned char, unsigned char, unsigned char)>:
   0:	e92d 43f8 	stmdb	sp!, {r3, r4, r5, r6, r7, r8, r9, lr}
   4:	461f      	mov	r7, r3
   6:	6843      	ldr	r3, [r0, #4]
   8:	4604      	mov	r4, r0
   a:	428b      	cmp	r3, r1
   c:	460d      	mov	r5, r1
   e:	4616      	mov	r6, r2
  10:	f89d 8020 	ldrb.w	r8, [sp, #32]
  14:	f89d 9024 	ldrb.w	r9, [sp, #36]	; 0x24
  18:	d806      	bhi.n	28 <WS28xx::SetPixel(unsigned int, unsigned char, unsigned char, unsigned char, unsigned char)+0x28>
  1a:	f240 113b 	movw	r1, #315	; 0x13b
  1e:	4b17      	ldr	r3, [pc, #92]	; (7c <WS28xx::SetPixel(unsigned int, unsigned char, unsigned char, unsigned char, unsigned char)+0x7c>)
  20:	4a17      	ldr	r2, [pc, #92]	; (80 <WS28xx::SetPixel(unsigned int, unsigned char, unsigned char, unsigned char, unsigned char)+0x80>)
  22:	4818      	ldr	r0, [pc, #96]	; (84 <WS28xx::SetPixel(unsigned int, unsigned char, unsigned char, unsigned char, unsigned char)+0x84>)
  24:	f7ff fffe 	bl	0 <__assert_func>
  28:	6823      	ldr	r3, [r4, #0]
  2a:	2b07      	cmp	r3, #7
  2c:	d119      	bne.n	62 <WS28xx::SetPixel(unsigned int, unsigned char, unsigned char, unsigned char, unsigned char)+0x62>
  2e:	016d      	lsls	r5, r5, #5
  30:	463a      	mov	r2, r7
  32:	4629      	mov	r1, r5
  34:	4620      	mov	r0, r4
  36:	f7ff fffe 	bl	0 <WS28xx::SetPixel(unsigned int, unsigned char, unsigned char, unsigned char, unsigned char)>
  3a:	4632      	mov	r2, r6
  3c:	4620      	mov	r0, r4
  3e:	f105 0108 	add.w	r1, r5, #8
  42:	f7ff fffe 	bl	0 <WS28xx::SetPixel(unsigned int, unsigned char, unsigned char, unsigned char, unsigned char)>
  46:	4642      	mov	r2, r8
  48:	4620      	mov	r0, r4
  4a:	f105 0110 	add.w	r1, r5, #16
  4e:	f7ff fffe 	bl	0 <WS28xx::SetPixel(unsigned int, unsigned char, unsigned char, unsigned char, unsigned char)>
  52:	464a      	mov	r2, r9
  54:	4620      	mov	r0, r4
  56:	f105 0118 	add.w	r1, r5, #24
  5a:	e8bd 43f8 	ldmia.w	sp!, {r3, r4, r5, r6, r7, r8, r9, lr}
  5e:	f7ff bffe 	b.w	0 <WS28xx::SetPixel(unsigned int, unsigned char, unsigned char, unsigned char, unsigned char)>
  62:	4b09      	ldr	r3, [pc, #36]	; (88 <WS28xx::SetPixel(unsigned int, unsigned char, unsigned char, unsigned char, unsigned char)+0x88>)
  64:	f44f 719e 	mov.w	r1, #316	; 0x13c
  68:	4a05      	ldr	r2, [pc, #20]	; (80 <WS28xx::SetPixel(unsigned int, unsigned char, unsigned char, unsigned char, unsigned char)+0x80>)
  6a:	4806      	ldr	r0, [pc, #24]	; (84 <WS28xx::SetPixel(unsigned int, unsigned char, unsigned char, unsigned char, unsigned char)+0x84>)
  6c:	f7ff fffe 	bl	0 <__assert_func>
  70:	6823      	ldr	r3, [r4, #0]
  72:	2b07      	cmp	r3, #7
  74:	d0db      	beq.n	2e <WS28xx::SetPixel(unsigned int, unsigned char, unsigned char, unsigned char, unsigned char)+0x2e>
  76:	e8bd 83f8 	ldmia.w	sp!, {r3, r4, r5, r6, r7, r8, r9, pc}
  7a:	bf00      	nop
  7c:	00000009 	.word	0x00000009
  80:	00000000 	.word	0x00000000
  84:	0000001c 	.word	0x0000001c
  88:	00000000 	.word	0x00000000

ws28xxmulti.o:     file format elf32-littlearm


Disassembly of section .text.TIMER4_IRQHandler:

00000000 <TIMER4_IRQHandler>:
   0:	b510      	push	{r4, lr}
   2:	f3bf 8f5f 	dmb	sy
   6:	f04f 4380 	mov.w	r3, #1073741824	; 0x40000000
   a:	f8d3 4c10 	ldr.w	r4, [r3, #3088]	; 0xc10
   e:	07a3      	lsls	r3, r4, #30
  10:	d518      	bpl.n	44 <TIMER4_IRQHandler+0x44>
  12:	4810      	ldr	r0, [pc, #64]	; (54 <TIMER4_IRQHandler+0x54>)
  14:	f7ff fffe 	bl	0 <timer_disable>
  18:	f44f 7100 	mov.w	r1, #512	; 0x200
  1c:	480d      	ldr	r0, [pc, #52]	; (54 <TIMER4_IRQHandler+0x54>)
  1e:	f7ff fffe 	bl	0 <timer_dma_disable>
  22:	f44f 6180 	mov.w	r1, #1024	; 0x400
  26:	480b      	ldr	r0, [pc, #44]	; (54 <TIMER4_IRQHandler+0x54>)
  28:	f7ff fffe 	bl	0 <timer_dma_disable>
  2c:	f44f 6100 	mov.w	r1, #2048	; 0x800
  30:	4808      	ldr	r0, [pc, #32]	; (54 <TIMER4_IRQHandler+0x54>)
  32:	f7ff fffe 	bl	0 <timer_dma_disable>
  36:	2103      	movs	r1, #3
  38:	4807      	ldr	r0, [pc, #28]	; (58 <TIMER4_IRQHandler+0x58>)
  3a:	f7ff fffe 	bl	0 <gpio_bit_reset>
  3e:	2200      	movs	r2, #0
  40:	4b06      	ldr	r3, [pc, #24]	; (5c <TIMER4_IRQHandler+0x5c>)
  42:	701a      	strb	r2, [r3, #0]
  44:	4621      	mov	r1, r4
  46:	4806      	ldr	r0, [pc, #24]	; (60 <TIMER4_IRQHandler+0x60>)
  48:	f7ff fffe 	bl	0 <timer_interrupt_flag_clear>
  4c:	f3bf 8f5f 	dmb	sy
  50:	bd10      	pop	{r4, pc}
  52:	bf00      	nop
  54:	40013400 	.word	0x40013400
  58:	40011800 	.word	0x40011800
  5c:	00000000 	.word	0x00000000
  60:	40000c00 	.word	0x40000c00

Disassembly of section .text._ZN11WS28xxMultiC2ER18PixelConfiguration:

00000000 <WS28xxMulti::WS28xxMulti(PixelConfiguration&)>:
   0:	2203      	movs	r2, #3
   2:	23aa      	movs	r3, #170	; 0xaa
   4:	e92d 4ff0 	stmdb	sp!, {r4, r5, r6, r7, r8, r9, sl, fp, lr}
   8:	e9c0 2300 	strd	r2, r3, [r0]
   c:	460c      	mov	r4, r1
   e:	2300      	movs	r3, #0
  10:	2106      	movs	r1, #6
  12:	4e96      	ldr	r6, [pc, #600]	; (26c <WS28xxMulti::WS28xxMulti(PixelConfiguration&)+0x26c>)
  14:	e9c0 1302 	strd	r1, r3, [r0, #8]
  18:	6103      	str	r3, [r0, #16]
  1a:	4605      	mov	r5, r0
  1c:	2347      	movs	r3, #71	; 0x47
  1e:	4a94      	ldr	r2, [pc, #592]	; (270 <WS28xxMulti::WS28xxMulti(PixelConfiguration&)+0x270>)
  20:	4994      	ldr	r1, [pc, #592]	; (274 <WS28xxMulti::WS28xxMulti(PixelConfiguration&)+0x274>)
  22:	4895      	ldr	r0, [pc, #596]	; (278 <WS28xxMulti::WS28xxMulti(PixelConfiguration&)+0x278>)
  24:	b08f      	sub	sp, #60	; 0x3c
  26:	f7ff fffe 	bl	0 <printf>
  2a:	6833      	ldr	r3, [r6, #0]
  2c:	b12b      	cbz	r3, 3a <WS28xxMulti::WS28xxMulti(PixelConfiguration&)+0x3a>
  2e:	2149      	movs	r1, #73	; 0x49
  30:	4b92      	ldr	r3, [pc, #584]	; (27c <WS28xxMulti::WS28xxMulti(PixelConfiguration&)+0x27c>)
  32:	4a8f      	ldr	r2, [pc, #572]	; (270 <WS28xxMulti::WS28xxMulti(PixelConfiguration&)+0x270>)
  34:	488f      	ldr	r0, [pc, #572]	; (274 <WS28xxMulti::WS28xxMulti(PixelConfiguration&)+0x274>)
  36:	f7ff fffe 	bl	0 <__assert_func>
  3a:	a902      	add	r1, sp, #8
  3c:	4620      	mov	r0, r4
  3e:	6035      	str	r5, [r6, #0]
  40:	f7ff fffe 	bl	0 <PixelConfiguration::Validate(unsigned int&)>
  44:	4620      	mov	r0, r4
  46:	f7ff fffe 	bl	0 <PixelConfiguration::Dump()>
  4a:	6823      	ldr	r3, [r4, #0]
  4c:	68a2      	ldr	r2, [r4, #8]
  4e:	602b      	str	r3, [r5, #0]
  50:	60aa      	str	r2, [r5, #8]
  52:	6863      	ldr	r3, [r4, #4]
  54:	9a02      	ldr	r2, [sp, #8]
  56:	606b      	str	r3, [r5, #4]
  58:	4353      	muls	r3, r2
  5a:	00db      	lsls	r3, r3, #3
  5c:	f503 6280 	add.w	r2, r3, #1024	; 0x400
  60:	0a92      	lsrs	r2, r2, #10
  62:	e9cd 3200 	strd	r3, r2, [sp]
  66:	4982      	ldr	r1, [pc, #520]	; (270 <WS28xxMulti::WS28xxMulti(PixelConfiguration&)+0x270>)
  68:	4a82      	ldr	r2, [pc, #520]	; (274 <WS28xxMulti::WS28xxMulti(PixelConfiguration&)+0x274>)
  6a:	60eb      	str	r3, [r5, #12]
  6c:	4884      	ldr	r0, [pc, #528]	; (280 <WS28xxMulti::WS28xxMulti(PixelConfiguration&)+0x280>)
  6e:	2357      	movs	r3, #87	; 0x57
  70:	f7ff fffe 	bl	0 <printf>
  74:	f240 6006 	movw	r0, #1542	; 0x606
  78:	f7ff fffe 	bl	0 <rcu_periph_clock_enable>
  7c:	2303      	movs	r3, #3
  7e:	2400      	movs	r4, #0
  80:	461a      	mov	r2, r3
  82:	2110      	movs	r1, #16
  84:	487f      	ldr	r0, [pc, #508]	; (284 <WS28xxMulti::WS28xxMulti(PixelConfiguration&)+0x284>)
  86:	f7ff fffe 	bl	0 <gpio_init>
  8a:	f240 6005 	movw	r0, #1541	; 0x605
  8e:	f7ff fffe 	bl	0 <rcu_periph_clock_enable>
  92:	2203      	movs	r2, #3
  94:	2380      	movs	r3, #128	; 0x80
  96:	2110      	movs	r1, #16
  98:	487b      	ldr	r0, [pc, #492]	; (288 <WS28xxMulti::WS28xxMulti(PixelConfiguration&)+0x288>)
  9a:	f7ff fffe 	bl	0 <gpio_init>
  9e:	f240 600d 	movw	r0, #1549	; 0x60d
  a2:	f7ff fffe 	bl	0 <rcu_periph_clock_enable>
  a6:	4879      	ldr	r0, [pc, #484]	; (28c <WS28xxMulti::WS28xxMulti(PixelConfiguration&)+0x28c>)
  a8:	f7ff fffe 	bl	0 <timer_deinit>
  ac:	4b78      	ldr	r3, [pc, #480]	; (290 <WS28xxMulti::WS28xxMulti(PixelConfiguration&)+0x290>)
  ae:	a903      	add	r1, sp, #12
  b0:	f8c3 4424 	str.w	r4, [r3, #1060]	; 0x424
  b4:	2395      	movs	r3, #149	; 0x95
  b6:	4875      	ldr	r0, [pc, #468]	; (28c <WS28xxMulti::WS28xxMulti(PixelConfiguration&)+0x28c>)
  b8:	9305      	str	r3, [sp, #20]
  ba:	9403      	str	r4, [sp, #12]
  bc:	f8ad 4010 	strh.w	r4, [sp, #16]
  c0:	f8ad 4018 	strh.w	r4, [sp, #24]
  c4:	f7ff fffe 	bl	0 <timer_init>
  c8:	4621      	mov	r1, r4
  ca:	4870      	ldr	r0, [pc, #448]	; (28c <WS28xxMulti::WS28xxMulti(PixelConfiguration&)+0x28c>)
  cc:	f7ff fffe 	bl	0 <timer_master_slave_mode_config>
  d0:	2130      	movs	r1, #48	; 0x30
  d2:	486e      	ldr	r0, [pc, #440]	; (28c <WS28xxMulti::WS28xxMulti(PixelConfiguration&)+0x28c>)
  d4:	f7ff fffe 	bl	0 <timer_master_output_trigger_source_select>
  d8:	4621      	mov	r1, r4
  da:	2210      	movs	r2, #16
  dc:	486b      	ldr	r0, [pc, #428]	; (28c <WS28xxMulti::WS28xxMulti(PixelConfiguration&)+0x28c>)
  de:	f7ff fffe 	bl	0 <timer_channel_output_mode_config>
  e2:	2210      	movs	r2, #16
  e4:	2101      	movs	r1, #1
  e6:	4869      	ldr	r0, [pc, #420]	; (28c <WS28xxMulti::WS28xxMulti(PixelConfiguration&)+0x28c>)
  e8:	f7ff fffe 	bl	0 <timer_channel_output_mode_config>
  ec:	2210      	movs	r2, #16
  ee:	2102      	movs	r1, #2
  f0:	4866      	ldr	r0, [pc, #408]	; (28c <WS28xxMulti::WS28xxMulti(PixelConfiguration&)+0x28c>)
  f2:	f7ff fffe 	bl	0 <timer_channel_output_mode_config>
  f6:	4622      	mov	r2, r4
  f8:	4621      	mov	r1, r4
  fa:	4864      	ldr	r0, [pc, #400]	; (28c <WS28xxMulti::WS28xxMulti(PixelConfiguration&)+0x28c>)
  fc:	f7ff fffe 	bl	0 <timer_channel_output_pulse_value_config>
 100:	2234      	movs	r2, #52	; 0x34
 102:	2101      	movs	r1, #1
 104:	4861      	ldr	r0, [pc, #388]	; (28c <WS28xxMulti::WS28xxMulti(PixelConfiguration&)+0x28c>)
 106:	f7ff fffe 	bl	0 <timer_channel_output_pulse_value_config>
 10a:	2264      	movs	r2, #100	; 0x64
 10c:	2102      	movs	r1, #2
 10e:	485f      	ldr	r0, [pc, #380]	; (28c <WS28xxMulti::WS28xxMulti(PixelConfiguration&)+0x28c>)
 110:	f7ff fffe 	bl	0 <timer_channel_output_pulse_value_config>
 114:	f240 7003 	movw	r0, #1795	; 0x703
 118:	f7ff fffe 	bl	0 <rcu_periph_clock_enable>
 11c:	485d      	ldr	r0, [pc, #372]	; (294 <WS28xxMulti::WS28xxMulti(PixelConfiguration&)+0x294>)
 11e:	f7ff fffe 	bl	0 <timer_deinit>
 122:	f04f 4380 	mov.w	r3, #1073741824	; 0x40000000
 126:	f8c3 4c24 	str.w	r4, [r3, #3108]	; 0xc24
 12a:	f04f 33ff 	mov.w	r3, #4294967295	; 0xffffffff
 12e:	a903      	add	r1, sp, #12
 130:	4858      	ldr	r0, [pc, #352]	; (294 <WS28xxMulti::WS28xxMulti(PixelConfiguration&)+0x294>)
 132:	9305      	str	r3, [sp, #20]
 134:	9403      	str	r4, [sp, #12]
 136:	f8ad 4010 	strh.w	r4, [sp, #16]
 13a:	f8ad 4018 	strh.w	r4, [sp, #24]
 13e:	f7ff fffe 	bl	0 <timer_init>
 142:	4621      	mov	r1, r4
 144:	4853      	ldr	r0, [pc, #332]	; (294 <WS28xxMulti::WS28xxMulti(PixelConfiguration&)+0x294>)
 146:	f7ff fffe 	bl	0 <timer_master_slave_mode_config>
 14a:	2107      	movs	r1, #7
 14c:	4851      	ldr	r0, [pc, #324]	; (294 <WS28xxMulti::WS28xxMulti(PixelConfiguration&)+0x294>)
 14e:	f7ff fffe 	bl	0 <timer_slave_mode_select>
 152:	2130      	movs	r1, #48	; 0x30
 154:	484f      	ldr	r0, [pc, #316]	; (294 <WS28xxMulti::WS28xxMulti(PixelConfiguration&)+0x294>)
 156:	f7ff fffe 	bl	0 <timer_input_trigger_source_select>
 15a:	4621      	mov	r1, r4
 15c:	2210      	movs	r2, #16
 15e:	484d      	ldr	r0, [pc, #308]	; (294 <WS28xxMulti::WS28xxMulti(PixelConfiguration&)+0x294>)
 160:	f7ff fffe 	bl	0 <timer_channel_output_mode_config>
 164:	68ea      	ldr	r2, [r5, #12]
 166:	4621      	mov	r1, r4
 168:	3201      	adds	r2, #1
 16a:	b292      	uxth	r2, r2
 16c:	4849      	ldr	r0, [pc, #292]	; (294 <WS28xxMulti::WS28xxMulti(PixelConfiguration&)+0x294>)
 16e:	f7ff fffe 	bl	0 <timer_channel_output_pulse_value_config>
 172:	2102      	movs	r1, #2
 174:	4847      	ldr	r0, [pc, #284]	; (294 <WS28xxMulti::WS28xxMulti(PixelConfiguration&)+0x294>)
 176:	f7ff fffe 	bl	0 <timer_interrupt_enable>
 17a:	f44f 2280 	mov.w	r2, #262144	; 0x40000
 17e:	f44f 7800 	mov.w	r8, #512	; 0x200
 182:	f44f 5700 	mov.w	r7, #8192	; 0x2000
 186:	2601      	movs	r6, #1
 188:	f44f 6a00 	mov.w	sl, #2048	; 0x800
 18c:	4b42      	ldr	r3, [pc, #264]	; (298 <WS28xxMulti::WS28xxMulti(PixelConfiguration&)+0x298>)
 18e:	4841      	ldr	r0, [pc, #260]	; (294 <WS28xxMulti::WS28xxMulti(PixelConfiguration&)+0x294>)
 190:	f883 4332 	strb.w	r4, [r3, #818]	; 0x332
 194:	605a      	str	r2, [r3, #4]
 196:	f7ff fffe 	bl	0 <timer_enable>
 19a:	f240 5001 	movw	r0, #1281	; 0x501
 19e:	f7ff fffe 	bl	0 <rcu_periph_clock_enable>
 1a2:	2102      	movs	r1, #2
 1a4:	483d      	ldr	r0, [pc, #244]	; (29c <WS28xxMulti::WS28xxMulti(PixelConfiguration&)+0x29c>)
 1a6:	f7ff fffe 	bl	0 <dma_deinit>
 1aa:	f8df b0f4 	ldr.w	fp, [pc, #244]	; 2a0 <WS28xxMulti::WS28xxMulti(PixelConfiguration&)+0x2a0>
 1ae:	4b3d      	ldr	r3, [pc, #244]	; (2a4 <WS28xxMulti::WS28xxMulti(PixelConfiguration&)+0x2a4>)
 1b0:	aa07      	add	r2, sp, #28
 1b2:	2102      	movs	r1, #2
 1b4:	4839      	ldr	r0, [pc, #228]	; (29c <WS28xxMulti::WS28xxMulti(PixelConfiguration&)+0x29c>)
 1b6:	e9cd 3807 	strd	r3, r8, [sp, #28]
 1ba:	f8cd b024 	str.w	fp, [sp, #36]	; 0x24
 1be:	f8cd a028 	str.w	sl, [sp, #40]	; 0x28
 1c2:	970c      	str	r7, [sp, #48]	; 0x30
 1c4:	f8ad 4034 	strh.w	r4, [sp, #52]	; 0x34
 1c8:	f88d 6036 	strb.w	r6, [sp, #54]	; 0x36
 1cc:	f7ff fffe 	bl	0 <dma_init>
 1d0:	2102      	movs	r1, #2
 1d2:	4832      	ldr	r0, [pc, #200]	; (29c <WS28xxMulti::WS28xxMulti(PixelConfiguration&)+0x29c>)
 1d4:	f7ff fffe 	bl	0 <dma_circulation_disable>
 1d8:	2102      	movs	r1, #2
 1da:	4830      	ldr	r0, [pc, #192]	; (29c <WS28xxMulti::WS28xxMulti(PixelConfiguration&)+0x29c>)
 1dc:	f7ff fffe 	bl	0 <dma_memory_to_memory_disable>
 1e0:	2104      	movs	r1, #4
 1e2:	482e      	ldr	r0, [pc, #184]	; (29c <WS28xxMulti::WS28xxMulti(PixelConfiguration&)+0x29c>)
 1e4:	f7ff fffe 	bl	0 <dma_deinit>
 1e8:	4b2f      	ldr	r3, [pc, #188]	; (2a8 <WS28xxMulti::WS28xxMulti(PixelConfiguration&)+0x2a8>)
 1ea:	f8df 90c0 	ldr.w	r9, [pc, #192]	; 2ac <WS28xxMulti::WS28xxMulti(PixelConfiguration&)+0x2ac>
 1ee:	9309      	str	r3, [sp, #36]	; 0x24
 1f0:	f44f 6380 	mov.w	r3, #1024	; 0x400
 1f4:	930a      	str	r3, [sp, #40]	; 0x28
 1f6:	f44f 7380 	mov.w	r3, #256	; 0x100
 1fa:	aa07      	add	r2, sp, #28
 1fc:	2104      	movs	r1, #4
 1fe:	4827      	ldr	r0, [pc, #156]	; (29c <WS28xxMulti::WS28xxMulti(PixelConfiguration&)+0x29c>)
 200:	f8ad 3034 	strh.w	r3, [sp, #52]	; 0x34
 204:	e9cd 9807 	strd	r9, r8, [sp, #28]
 208:	970c      	str	r7, [sp, #48]	; 0x30
 20a:	f88d 6036 	strb.w	r6, [sp, #54]	; 0x36
 20e:	f7ff fffe 	bl	0 <dma_init>
 212:	2104      	movs	r1, #4
 214:	4821      	ldr	r0, [pc, #132]	; (29c <WS28xxMulti::WS28xxMulti(PixelConfiguration&)+0x29c>)
 216:	f7ff fffe 	bl	0 <dma_circulation_disable>
 21a:	2104      	movs	r1, #4
 21c:	481f      	ldr	r0, [pc, #124]	; (29c <WS28xxMulti::WS28xxMulti(PixelConfiguration&)+0x29c>)
 21e:	f7ff fffe 	bl	0 <dma_memory_to_memory_disable>
 222:	4621      	mov	r1, r4
 224:	481d      	ldr	r0, [pc, #116]	; (29c <WS28xxMulti::WS28xxMulti(PixelConfiguration&)+0x29c>)
 226:	f7ff fffe 	bl	0 <dma_deinit>
 22a:	aa07      	add	r2, sp, #28
 22c:	4621      	mov	r1, r4
 22e:	481b      	ldr	r0, [pc, #108]	; (29c <WS28xxMulti::WS28xxMulti(PixelConfiguration&)+0x29c>)
 230:	e9cd ba09 	strd	fp, sl, [sp, #36]	; 0x24
 234:	e9cd 9807 	strd	r9, r8, [sp, #28]
 238:	970c      	str	r7, [sp, #48]	; 0x30
 23a:	f8ad 4034 	strh.w	r4, [sp, #52]	; 0x34
 23e:	f88d 6036 	strb.w	r6, [sp, #54]	; 0x36
 242:	f7ff fffe 	bl	0 <dma_init>
 246:	4621      	mov	r1, r4
 248:	4814      	ldr	r0, [pc, #80]	; (29c <WS28xxMulti::WS28xxMulti(PixelConfiguration&)+0x29c>)
 24a:	f7ff fffe 	bl	0 <dma_circulation_disable>
 24e:	4621      	mov	r1, r4
 250:	4812      	ldr	r0, [pc, #72]	; (29c <WS28xxMulti::WS28xxMulti(PixelConfiguration&)+0x29c>)
 252:	f7ff fffe 	bl	0 <dma_memory_to_memory_disable>
 256:	23e2      	movs	r3, #226	; 0xe2
 258:	4a05      	ldr	r2, [pc, #20]	; (270 <WS28xxMulti::WS28xxMulti(PixelConfiguration&)+0x270>)
 25a:	4906      	ldr	r1, [pc, #24]	; (274 <WS28xxMulti::WS28xxMulti(PixelConfiguration&)+0x274>)
 25c:	4814      	ldr	r0, [pc, #80]	; (2b0 <WS28xxMulti::WS28xxMulti(PixelConfiguration&)+0x2b0>)
 25e:	f7ff fffe 	bl	0 <printf>
 262:	4628      	mov	r0, r5
 264:	b00f      	add	sp, #60	; 0x3c
 266:	e8bd 8ff0 	ldmia.w	sp!, {r4, r5, r6, r7, r8, r9, sl, fp, pc}
 26a:	bf00      	nop
	...
 274:	0000000c 	.word	0x0000000c
 278:	00000025 	.word	0x00000025
 27c:	00000033 	.word	0x00000033
 280:	00000046 	.word	0x00000046
 284:	40011800 	.word	0x40011800
 288:	40011400 	.word	0x40011400
 28c:	40013400 	.word	0x40013400
 290:	40013000 	.word	0x40013000
 294:	40000c00 	.word	0x40000c00
 298:	e000e100 	.word	0xe000e100
 29c:	40020400 	.word	0x40020400
 2a0:	00000000 	.word	0x00000000
 2a4:	40011810 	.word	0x40011810
 2a8:	00000000 	.word	0x00000000
 2ac:	40011814 	.word	0x40011814
 2b0:	0000006c 	.word	0x0000006c

Disassembly of section .text._ZN11WS28xxMultiD2Ev:

00000000 <WS28xxMulti::~WS28xxMulti()>:
   0:	2200      	movs	r2, #0
   2:	4b01      	ldr	r3, [pc, #4]	; (8 <WS28xxMulti::~WS28xxMulti()+0x8>)
   4:	601a      	str	r2, [r3, #0]
   6:	4770      	bx	lr
   8:	00000000 	.word	0x00000000

Disassembly of section .text._ZN11WS28xxMulti5PrintEv:

00000000 <WS28xxMulti::Print()>:
   0:	b573      	push	{r0, r1, r4, r5, r6, lr}
   2:	4604      	mov	r4, r0
   4:	480c      	ldr	r0, [pc, #48]	; (38 <WS28xxMulti::Print()+0x38>)
   6:	f7ff fffe 	bl	0 <printf>
   a:	6820      	ldr	r0, [r4, #0]
   c:	f7ff fffe 	bl	0 <PixelType::GetType(pixel::Type)>
  10:	4605      	mov	r5, r0
  12:	68a0      	ldr	r0, [r4, #8]
  14:	6826      	ldr	r6, [r4, #0]
  16:	f7ff fffe 	bl	0 <PixelType::GetMap(pixel::Map)>
  1a:	68a2      	ldr	r2, [r4, #8]
  1c:	4603      	mov	r3, r0
  1e:	4629      	mov	r1, r5
  20:	9200      	str	r2, [sp, #0]
  22:	4806      	ldr	r0, [pc, #24]	; (3c <WS28xxMulti::Print()+0x3c>)
  24:	4632      	mov	r2, r6
  26:	f7ff fffe 	bl	0 <printf>
  2a:	6861      	ldr	r1, [r4, #4]
  2c:	4804      	ldr	r0, [pc, #16]	; (40 <WS28xxMulti::Print()+0x40>)
  2e:	b002      	add	sp, #8
  30:	e8bd 4070 	ldmia.w	sp!, {r4, r5, r6, lr}
  34:	f7ff bffe 	b.w	0 <printf>
  38:	00000000 	.word	0x00000000
  3c:	00000012 	.word	0x00000012
  40:	00000030 	.word	0x00000030

Disassembly of section .text._ZN11WS28xxMulti6UpdateEv:

00000000 <WS28xxMulti::Update()>:
   0:	2201      	movs	r2, #1
   2:	b5f8      	push	{r3, r4, r5, r6, r7, lr}
   4:	4e32      	ldr	r6, [pc, #200]	; (d0 <WS28xxMulti::Update()+0xd0>)
   6:	4b33      	ldr	r3, [pc, #204]	; (d4 <WS28xxMulti::Update()+0xd4>)
   8:	4605      	mov	r5, r0
   a:	4630      	mov	r0, r6
   c:	701a      	strb	r2, [r3, #0]
   e:	2700      	movs	r7, #0
  10:	f7ff fffe 	bl	0 <timer_disable>
  14:	f04f 4380 	mov.w	r3, #1073741824	; 0x40000000
  18:	4c2f      	ldr	r4, [pc, #188]	; (d8 <WS28xxMulti::Update()+0xd8>)
  1a:	f8c3 7c24 	str.w	r7, [r3, #3108]	; 0xc24
  1e:	4620      	mov	r0, r4
  20:	f7ff fffe 	bl	0 <timer_disable>
  24:	4b2d      	ldr	r3, [pc, #180]	; (dc <WS28xxMulti::Update()+0xdc>)
  26:	492e      	ldr	r1, [pc, #184]	; (e0 <WS28xxMulti::Update()+0xe0>)
  28:	f8c3 7424 	str.w	r7, [r3, #1060]	; 0x424
  2c:	f503 4350 	add.w	r3, r3, #53248	; 0xd000
  30:	f8d3 2430 	ldr.w	r2, [r3, #1072]	; 0x430
  34:	4620      	mov	r0, r4
  36:	f022 0201 	bic.w	r2, r2, #1
  3a:	f8c3 2430 	str.w	r2, [r3, #1072]	; 0x430
  3e:	f8c3 143c 	str.w	r1, [r3, #1084]	; 0x43c
  42:	89aa      	ldrh	r2, [r5, #12]
  44:	f8c3 2434 	str.w	r2, [r3, #1076]	; 0x434
  48:	f8d3 2430 	ldr.w	r2, [r3, #1072]	; 0x430
  4c:	f042 0201 	orr.w	r2, r2, #1
  50:	f8c3 2430 	str.w	r2, [r3, #1072]	; 0x430
  54:	f8d3 2458 	ldr.w	r2, [r3, #1112]	; 0x458
  58:	f022 0201 	bic.w	r2, r2, #1
  5c:	f8c3 2458 	str.w	r2, [r3, #1112]	; 0x458
  60:	4a20      	ldr	r2, [pc, #128]	; (e4 <WS28xxMulti::Update()+0xe4>)
  62:	f8c3 2464 	str.w	r2, [r3, #1124]	; 0x464
  66:	68ea      	ldr	r2, [r5, #12]
  68:	3201      	adds	r2, #1
  6a:	b292      	uxth	r2, r2
  6c:	f8c3 245c 	str.w	r2, [r3, #1116]	; 0x45c
  70:	f8d3 2458 	ldr.w	r2, [r3, #1112]	; 0x458
  74:	f042 0201 	orr.w	r2, r2, #1
  78:	f8c3 2458 	str.w	r2, [r3, #1112]	; 0x458
  7c:	f8d3 2408 	ldr.w	r2, [r3, #1032]	; 0x408
  80:	f022 0201 	bic.w	r2, r2, #1
  84:	f8c3 2408 	str.w	r2, [r3, #1032]	; 0x408
  88:	f8c3 1414 	str.w	r1, [r3, #1044]	; 0x414
  8c:	68ea      	ldr	r2, [r5, #12]
  8e:	f44f 7100 	mov.w	r1, #512	; 0x200
  92:	3201      	adds	r2, #1
  94:	b292      	uxth	r2, r2
  96:	f8c3 240c 	str.w	r2, [r3, #1036]	; 0x40c
  9a:	f8d3 2408 	ldr.w	r2, [r3, #1032]	; 0x408
  9e:	f042 0201 	orr.w	r2, r2, #1
  a2:	f8c3 2408 	str.w	r2, [r3, #1032]	; 0x408
  a6:	f7ff fffe 	bl	0 <timer_dma_enable>
  aa:	4620      	mov	r0, r4
  ac:	f44f 6180 	mov.w	r1, #1024	; 0x400
  b0:	f7ff fffe 	bl	0 <timer_dma_enable>
  b4:	4620      	mov	r0, r4
  b6:	f44f 6100 	mov.w	r1, #2048	; 0x800
  ba:	f7ff fffe 	bl	0 <timer_dma_enable>
  be:	4630      	mov	r0, r6
  c0:	f7ff fffe 	bl	0 <timer_enable>
  c4:	4620      	mov	r0, r4
  c6:	e8bd 40f8 	ldmia.w	sp!, {r3, r4, r5, r6, r7, lr}
  ca:	f7ff bffe 	b.w	0 <timer_enable>
  ce:	bf00      	nop
  d0:	40000c00 	.word	0x40000c00
  d4:	00000000 	.word	0x00000000
  d8:	40013400 	.word	0x40013400
  dc:	40013000 	.word	0x40013000
	...

Disassembly of section .text._ZN11WS28xxMulti8BlackoutEv:

00000000 <WS28xxMulti::Blackout()>:
   0:	b570      	push	{r4, r5, r6, lr}
   2:	4a2f      	ldr	r2, [pc, #188]	; (c0 <WS28xxMulti::Blackout()+0xc0>)
   4:	492f      	ldr	r1, [pc, #188]	; (c4 <WS28xxMulti::Blackout()+0xc4>)
   6:	4604      	mov	r4, r0
   8:	f240 1311 	movw	r3, #273	; 0x111
   c:	482e      	ldr	r0, [pc, #184]	; (c8 <WS28xxMulti::Blackout()+0xc8>)
   e:	f7ff fffe 	bl	0 <printf>
  12:	2301      	movs	r3, #1
  14:	4d2d      	ldr	r5, [pc, #180]	; (cc <WS28xxMulti::Blackout()+0xcc>)
  16:	482e      	ldr	r0, [pc, #184]	; (d0 <WS28xxMulti::Blackout()+0xd0>)
  18:	2600      	movs	r6, #0
  1a:	702b      	strb	r3, [r5, #0]
  1c:	f7ff fffe 	bl	0 <timer_disable>
  20:	f04f 4380 	mov.w	r3, #1073741824	; 0x40000000
  24:	482b      	ldr	r0, [pc, #172]	; (d4 <WS28xxMulti::Blackout()+0xd4>)
  26:	f8c3 6c24 	str.w	r6, [r3, #3108]	; 0xc24
  2a:	f7ff fffe 	bl	0 <timer_disable>
  2e:	4b2a      	ldr	r3, [pc, #168]	; (d8 <WS28xxMulti::Blackout()+0xd8>)
  30:	492a      	ldr	r1, [pc, #168]	; (dc <WS28xxMulti::Blackout()+0xdc>)
  32:	f8c3 6424 	str.w	r6, [r3, #1060]	; 0x424
  36:	f503 4350 	add.w	r3, r3, #53248	; 0xd000
  3a:	f8d3 2430 	ldr.w	r2, [r3, #1072]	; 0x430
  3e:	4825      	ldr	r0, [pc, #148]	; (d4 <WS28xxMulti::Blackout()+0xd4>)
  40:	f022 0201 	bic.w	r2, r2, #1
  44:	f8c3 2430 	str.w	r2, [r3, #1072]	; 0x430
  48:	f8c3 143c 	str.w	r1, [r3, #1084]	; 0x43c
  4c:	68e2      	ldr	r2, [r4, #12]
  4e:	3201      	adds	r2, #1
  50:	b292      	uxth	r2, r2
  52:	f8c3 2434 	str.w	r2, [r3, #1076]	; 0x434
  56:	f8d3 2430 	ldr.w	r2, [r3, #1072]	; 0x430
  5a:	f042 0201 	orr.w	r2, r2, #1
  5e:	f8c3 2430 	str.w	r2, [r3, #1072]	; 0x430
  62:	f8d3 2458 	ldr.w	r2, [r3, #1112]	; 0x458
  66:	f022 0201 	bic.w	r2, r2, #1
  6a:	f8c3 2458 	str.w	r2, [r3, #1112]	; 0x458
  6e:	f8c3 1464 	str.w	r1, [r3, #1124]	; 0x464
  72:	68e2      	ldr	r2, [r4, #12]
  74:	f44f 7100 	mov.w	r1, #512	; 0x200
  78:	3201      	adds	r2, #1
  7a:	b292      	uxth	r2, r2
  7c:	f8c3 245c 	str.w	r2, [r3, #1116]	; 0x45c
  80:	f8d3 2458 	ldr.w	r2, [r3, #1112]	; 0x458
  84:	f042 0201 	orr.w	r2, r2, #1
  88:	f8c3 2458 	str.w	r2, [r3, #1112]	; 0x458
  8c:	f7ff fffe 	bl	0 <timer_dma_enable>
  90:	f44f 6180 	mov.w	r1, #1024	; 0x400
  94:	480f      	ldr	r0, [pc, #60]	; (d4 <WS28xxMulti::Blackout()+0xd4>)
  96:	f7ff fffe 	bl	0 <timer_dma_enable>
  9a:	480d      	ldr	r0, [pc, #52]	; (d0 <WS28xxMulti::Blackout()+0xd0>)
  9c:	f7ff fffe 	bl	0 <timer_enable>
  a0:	480c      	ldr	r0, [pc, #48]	; (d4 <WS28xxMulti::Blackout()+0xd4>)
  a2:	f7ff fffe 	bl	0 <timer_enable>
  a6:	782b      	ldrb	r3, [r5, #0]
  a8:	2b00      	cmp	r3, #0
  aa:	d1fc      	bne.n	a6 <WS28xxMulti::Blackout()+0xa6>
  ac:	e8bd 4070 	ldmia.w	sp!, {r4, r5, r6, lr}
  b0:	f240 132b 	movw	r3, #299	; 0x12b
  b4:	4a02      	ldr	r2, [pc, #8]	; (c0 <WS28xxMulti::Blackout()+0xc0>)
  b6:	4903      	ldr	r1, [pc, #12]	; (c4 <WS28xxMulti::Blackout()+0xc4>)
  b8:	4809      	ldr	r0, [pc, #36]	; (e0 <WS28xxMulti::Blackout()+0xe0>)
  ba:	f7ff bffe 	b.w	0 <printf>
  be:	bf00      	nop
  c0:	00000000 	.word	0x00000000
  c4:	0000000c 	.word	0x0000000c
  c8:	00000025 	.word	0x00000025
  cc:	00000000 	.word	0x00000000
  d0:	40000c00 	.word	0x40000c00
  d4:	40013400 	.word	0x40013400
  d8:	40013000 	.word	0x40013000
  dc:	00000000 	.word	0x00000000
  e0:	0000006c 	.word	0x0000006c

Disassembly of section .text._ZN11WS28xxMulti10IsUpdatingEv:

00000000 <WS28xxMulti::IsUpdating()>:
   0:	f3bf 8f5f 	dmb	sy
   4:	4b01      	ldr	r3, [pc, #4]	; (c <WS28xxMulti::IsUpdating()+0xc>)
   6:	7818      	ldrb	r0, [r3, #0]
   8:	4770      	bx	lr
   a:	bf00      	nop
   c:	00000000 	.word	0x00000000

Disassembly of section .text._ZN11WS28xxMulti9SetColourEjjhhh:

00000000 <WS28xxMulti::SetColour(unsigned int, unsigned int, unsigned char, unsigned char, unsigned char)>:
   0:	e92d 43f8 	stmdb	sp!, {r3, r4, r5, r6, r7, r8, r9, lr}
   4:	2907      	cmp	r1, #7
   6:	4688      	mov	r8, r1
   8:	4681      	mov	r9, r0
   a:	4614      	mov	r4, r2
   c:	461f      	mov	r7, r3
   e:	f89d 6020 	ldrb.w	r6, [sp, #32]
  12:	f89d 5024 	ldrb.w	r5, [sp, #36]	; 0x24
  16:	f200 80ac 	bhi.w	172 <WS28xxMulti::SetColour(unsigned int, unsigned int, unsigned char, unsigned char, unsigned char)+0x172>
  1a:	f8d9 300c 	ldr.w	r3, [r9, #12]
  1e:	ebb4 0fd3 	cmp.w	r4, r3, lsr #3
  22:	f080 80b3 	bcs.w	18c <WS28xxMulti::SetColour(unsigned int, unsigned int, unsigned char, unsigned char, unsigned char)+0x18c>
  26:	2101      	movs	r1, #1
  28:	fa01 f108 	lsl.w	r1, r1, r8
  2c:	b2c9      	uxtb	r1, r1
  2e:	43c8      	mvns	r0, r1
  30:	eb04 0444 	add.w	r4, r4, r4, lsl #1
  34:	4b59      	ldr	r3, [pc, #356]	; (19c <WS28xxMulti::SetColour(unsigned int, unsigned int, unsigned char, unsigned char, unsigned char)+0x19c>)
  36:	00e4      	lsls	r4, r4, #3
  38:	3401      	adds	r4, #1
  3a:	f833 c014 	ldrh.w	ip, [r3, r4, lsl #1]
  3e:	b289      	uxth	r1, r1
  40:	b2c0      	uxtb	r0, r0
  42:	f017 0f80 	tst.w	r7, #128	; 0x80
  46:	bf14      	ite	ne
  48:	ea00 0c0c 	andne.w	ip, r0, ip
  4c:	ea41 0c0c 	orreq.w	ip, r1, ip
  50:	eb03 0244 	add.w	r2, r3, r4, lsl #1
  54:	f823 c014 	strh.w	ip, [r3, r4, lsl #1]
  58:	8a13      	ldrh	r3, [r2, #16]
  5a:	0634      	lsls	r4, r6, #24
  5c:	bf4c      	ite	mi
  5e:	4003      	andmi	r3, r0
  60:	430b      	orrpl	r3, r1
  62:	8213      	strh	r3, [r2, #16]
  64:	8c13      	ldrh	r3, [r2, #32]
  66:	062c      	lsls	r4, r5, #24
  68:	bf4c      	ite	mi
  6a:	4003      	andmi	r3, r0
  6c:	430b      	orrpl	r3, r1
  6e:	8413      	strh	r3, [r2, #32]
  70:	8853      	ldrh	r3, [r2, #2]
  72:	067c      	lsls	r4, r7, #25
  74:	bf4c      	ite	mi
  76:	4003      	andmi	r3, r0
  78:	430b      	orrpl	r3, r1
  7a:	8053      	strh	r3, [r2, #2]
  7c:	8a53      	ldrh	r3, [r2, #18]
  7e:	0674      	lsls	r4, r6, #25
  80:	bf4c      	ite	mi
  82:	4003      	andmi	r3, r0
  84:	430b      	orrpl	r3, r1
  86:	8253      	strh	r3, [r2, #18]
  88:	8c53      	ldrh	r3, [r2, #34]	; 0x22
  8a:	066c      	lsls	r4, r5, #25
  8c:	bf4c      	ite	mi
  8e:	4003      	andmi	r3, r0
  90:	430b      	orrpl	r3, r1
  92:	8453      	strh	r3, [r2, #34]	; 0x22
  94:	8893      	ldrh	r3, [r2, #4]
  96:	06bc      	lsls	r4, r7, #26
  98:	bf4c      	ite	mi
  9a:	4003      	andmi	r3, r0
  9c:	430b      	orrpl	r3, r1
  9e:	8093      	strh	r3, [r2, #4]
  a0:	8a93      	ldrh	r3, [r2, #20]
  a2:	06b4      	lsls	r4, r6, #26
  a4:	bf4c      	ite	mi
  a6:	4003      	andmi	r3, r0
  a8:	430b      	orrpl	r3, r1
  aa:	8293      	strh	r3, [r2, #20]
  ac:	8c93      	ldrh	r3, [r2, #36]	; 0x24
  ae:	06ac      	lsls	r4, r5, #26
  b0:	bf4c      	ite	mi
  b2:	4003      	andmi	r3, r0
  b4:	430b      	orrpl	r3, r1
  b6:	8493      	strh	r3, [r2, #36]	; 0x24
  b8:	88d3      	ldrh	r3, [r2, #6]
  ba:	06fc      	lsls	r4, r7, #27
  bc:	bf4c      	ite	mi
  be:	4003      	andmi	r3, r0
  c0:	430b      	orrpl	r3, r1
  c2:	80d3      	strh	r3, [r2, #6]
  c4:	8ad3      	ldrh	r3, [r2, #22]
  c6:	06f4      	lsls	r4, r6, #27
  c8:	bf4c      	ite	mi
  ca:	4003      	andmi	r3, r0
  cc:	430b      	orrpl	r3, r1
  ce:	82d3      	strh	r3, [r2, #22]
  d0:	8cd3      	ldrh	r3, [r2, #38]	; 0x26
  d2:	06ec      	lsls	r4, r5, #27
  d4:	bf4c      	ite	mi
  d6:	4003      	andmi	r3, r0
  d8:	430b      	orrpl	r3, r1
  da:	84d3      	strh	r3, [r2, #38]	; 0x26
  dc:	8913      	ldrh	r3, [r2, #8]
  de:	073c      	lsls	r4, r7, #28
  e0:	bf4c      	ite	mi
  e2:	4003      	andmi	r3, r0
  e4:	430b      	orrpl	r3, r1
  e6:	8113      	strh	r3, [r2, #8]
  e8:	8b13      	ldrh	r3, [r2, #24]
  ea:	0734      	lsls	r4, r6, #28
  ec:	bf4c      	ite	mi
  ee:	4003      	andmi	r3, r0
  f0:	430b      	orrpl	r3, r1
  f2:	8313      	strh	r3, [r2, #24]
  f4:	8d13      	ldrh	r3, [r2, #40]	; 0x28
  f6:	072c      	lsls	r4, r5, #28
  f8:	bf4c      	ite	mi
  fa:	4003      	andmi	r3, r0
  fc:	430b      	orrpl	r3, r1
  fe:	8513      	strh	r3, [r2, #40]	; 0x28
 100:	8953      	ldrh	r3, [r2, #10]
 102:	077c      	lsls	r4, r7, #29
 104:	bf4c      	ite	mi
 106:	4003      	andmi	r3, r0
 108:	430b      	orrpl	r3, r1
 10a:	8153      	strh	r3, [r2, #10]
 10c:	8b53      	ldrh	r3, [r2, #26]
 10e:	0774      	lsls	r4, r6, #29
 110:	bf4c      	ite	mi
 112:	4003      	andmi	r3, r0
 114:	430b      	orrpl	r3, r1
 116:	8353      	strh	r3, [r2, #26]
 118:	8d53      	ldrh	r3, [r2, #42]	; 0x2a
 11a:	076c      	lsls	r4, r5, #29
 11c:	bf4c      	ite	mi
 11e:	4003      	andmi	r3, r0
 120:	430b      	orrpl	r3, r1
 122:	8553      	strh	r3, [r2, #42]	; 0x2a
 124:	8993      	ldrh	r3, [r2, #12]
 126:	07bc      	lsls	r4, r7, #30
 128:	bf4c      	ite	mi
 12a:	4003      	andmi	r3, r0
 12c:	430b      	orrpl	r3, r1
 12e:	8193      	strh	r3, [r2, #12]
 130:	8b93      	ldrh	r3, [r2, #28]
 132:	07b4      	lsls	r4, r6, #30
 134:	bf4c      	ite	mi
 136:	4003      	andmi	r3, r0
 138:	430b      	orrpl	r3, r1
 13a:	8393      	strh	r3, [r2, #28]
 13c:	8d93      	ldrh	r3, [r2, #44]	; 0x2c
 13e:	07ac      	lsls	r4, r5, #30
 140:	bf4c      	ite	mi
 142:	4003      	andmi	r3, r0
 144:	430b      	orrpl	r3, r1
 146:	8593      	strh	r3, [r2, #44]	; 0x2c
 148:	89d3      	ldrh	r3, [r2, #14]
 14a:	07ff      	lsls	r7, r7, #31
 14c:	bf54      	ite	pl
 14e:	430b      	orrpl	r3, r1
 150:	4003      	andmi	r3, r0
 152:	81d3      	strh	r3, [r2, #14]
 154:	8bd3      	ldrh	r3, [r2, #30]
 156:	07f6      	lsls	r6, r6, #31
 158:	bf54      	ite	pl
 15a:	430b      	orrpl	r3, r1
 15c:	4003      	andmi	r3, r0
 15e:	83d3      	strh	r3, [r2, #30]
 160:	8dd3      	ldrh	r3, [r2, #46]	; 0x2e
 162:	07ec      	lsls	r4, r5, #31
 164:	bf55      	itete	pl
 166:	4319      	orrpl	r1, r3
 168:	4018      	andmi	r0, r3
 16a:	85d1      	strhpl	r1, [r2, #46]	; 0x2e
 16c:	85d0      	strhmi	r0, [r2, #46]	; 0x2e
 16e:	e8bd 83f8 	ldmia.w	sp!, {r3, r4, r5, r6, r7, r8, r9, pc}
 172:	4b0b      	ldr	r3, [pc, #44]	; (1a0 <WS28xxMulti::SetColour(unsigned int, unsigned int, unsigned char, unsigned char, unsigned char)+0x1a0>)
 174:	f44f 719d 	mov.w	r1, #314	; 0x13a
 178:	4a0a      	ldr	r2, [pc, #40]	; (1a4 <WS28xxMulti::SetColour(unsigned int, unsigned int, unsigned char, unsigned char, unsigned char)+0x1a4>)
 17a:	480b      	ldr	r0, [pc, #44]	; (1a8 <WS28xxMulti::SetColour(unsigned int, unsigned int, unsigned char, unsigned char, unsigned char)+0x1a8>)
 17c:	f7ff fffe 	bl	0 <__assert_func>
 180:	f8d9 300c 	ldr.w	r3, [r9, #12]
 184:	ebb4 0fd3 	cmp.w	r4, r3, lsr #3
 188:	f4ff af4d 	bcc.w	26 <WS28xxMulti::SetColour(unsigned int, unsigned int, unsigned char, unsigned char, unsigned char)+0x26>
 18c:	f240 113b 	movw	r1, #315	; 0x13b
 190:	4b06      	ldr	r3, [pc, #24]	; (1ac <WS28xxMulti::SetColour(unsigned int, unsigned int, unsigned char, unsigned char, unsigned char)+0x1ac>)
 192:	4a04      	ldr	r2, [pc, #16]	; (1a4 <WS28xxMulti::SetColour(unsigned int, unsigned int, unsigned char, unsigned char, unsigned char)+0x1a4>)
 194:	4804      	ldr	r0, [pc, #16]	; (1a8 <WS28xxMulti::SetColour(unsigned int, unsigned int, unsigned char, unsigned char, unsigned char)+0x1a8>)
 196:	f7ff fffe 	bl	0 <__assert_func>
 19a:	e744      	b.n	26 <WS28xxMulti::SetColour(unsigned int, unsigned int, unsigned char, unsigned char, unsigned char)+0x26>
	...
 1a4:	00000010 	.word	0x00000010
 1a8:	0000000c 	.word	0x0000000c
 1ac:	0000001c 	.word	0x0000001c

Disassembly of section .text._ZN11WS28xxMulti8SetPixelEjjhhh:

00000000 <WS28xxMulti::SetPixel(unsigned int, unsigned int, unsigned char, unsigned char, unsigned char)>:
   0:	e92d 47f0 	stmdb	sp!, {r4, r5, r6, r7, r8, r9, sl, lr}
   4:	2907      	cmp	r1, #7
   6:	460d      	mov	r5, r1
   8:	4604      	mov	r4, r0
   a:	4616      	mov	r6, r2
   c:	461f      	mov	r7, r3
   e:	f89d 8020 	ldrb.w	r8, [sp, #32]
  12:	f89d 9024 	ldrb.w	r9, [sp, #36]	; 0x24
  16:	d840      	bhi.n	9a <WS28xxMulti::SetPixel(unsigned int, unsigned int, unsigned char, unsigned char, unsigned char)+0x9a>
  18:	68e3      	ldr	r3, [r4, #12]
  1a:	ebb6 0fd3 	cmp.w	r6, r3, lsr #3
  1e:	d234      	bcs.n	8a <WS28xxMulti::SetPixel(unsigned int, unsigned int, unsigned char, unsigned char, unsigned char)+0x8a>
  20:	68a3      	ldr	r3, [r4, #8]
  22:	2b05      	cmp	r3, #5
  24:	d841      	bhi.n	aa <WS28xxMulti::SetPixel(unsigned int, unsigned int, unsigned char, unsigned char, unsigned char)+0xaa>
  26:	e8df f003 	tbb	[pc, r3]
  2a:	120e      	.short	0x120e
  2c:	032c291e 	.word	0x032c291e
  30:	464b      	mov	r3, r9
  32:	9709      	str	r7, [sp, #36]	; 0x24
  34:	4632      	mov	r2, r6
  36:	4629      	mov	r1, r5
  38:	4620      	mov	r0, r4
  3a:	f8cd 8020 	str.w	r8, [sp, #32]
  3e:	e8bd 47f0 	ldmia.w	sp!, {r4, r5, r6, r7, r8, r9, sl, lr}
  42:	f7ff bffe 	b.w	0 <WS28xxMulti::SetPixel(unsigned int, unsigned int, unsigned char, unsigned char, unsigned char)>
  46:	463b      	mov	r3, r7
  48:	f8cd 9024 	str.w	r9, [sp, #36]	; 0x24
  4c:	e7f2      	b.n	34 <WS28xxMulti::SetPixel(unsigned int, unsigned int, unsigned char, unsigned char, unsigned char)+0x34>
  4e:	463b      	mov	r3, r7
  50:	f8cd 8024 	str.w	r8, [sp, #36]	; 0x24
  54:	4632      	mov	r2, r6
  56:	4629      	mov	r1, r5
  58:	4620      	mov	r0, r4
  5a:	f8cd 9020 	str.w	r9, [sp, #32]
  5e:	e8bd 47f0 	ldmia.w	sp!, {r4, r5, r6, r7, r8, r9, sl, lr}
  62:	f7ff bffe 	b.w	0 <WS28xxMulti::SetPixel(unsigned int, unsigned int, unsigned char, unsigned char, unsigned char)>
  66:	4643      	mov	r3, r8
  68:	f8cd 9024 	str.w	r9, [sp, #36]	; 0x24
  6c:	4632      	mov	r2, r6
  6e:	4629      	mov	r1, r5
  70:	4620      	mov	r0, r4
  72:	9708      	str	r7, [sp, #32]
  74:	e8bd 47f0 	ldmia.w	sp!, {r4, r5, r6, r7, r8, r9, sl, lr}
  78:	f7ff bffe 	b.w	0 <WS28xxMulti::SetPixel(unsigned int, unsigned int, unsigned char, unsigned char, unsigned char)>
  7c:	4643      	mov	r3, r8
  7e:	9709      	str	r7, [sp, #36]	; 0x24
  80:	e7e8      	b.n	54 <WS28xxMulti::SetPixel(unsigned int, unsigned int, unsigned char, unsigned char, unsigned char)+0x54>
  82:	464b      	mov	r3, r9
  84:	f8cd 8024 	str.w	r8, [sp, #36]	; 0x24
  88:	e7f0      	b.n	6c <WS28xxMulti::SetPixel(unsigned int, unsigned int, unsigned char, unsigned char, unsigned char)+0x6c>
  8a:	f240 1159 	movw	r1, #345	; 0x159
  8e:	4b0a      	ldr	r3, [pc, #40]	; (b8 <WS28xxMulti::SetPixel(unsigned int, unsigned int, unsigned char, unsigned char, unsigned char)+0xb8>)
  90:	4a0a      	ldr	r2, [pc, #40]	; (bc <WS28xxMulti::SetPixel(unsigned int, unsigned int, unsigned char, unsigned char, unsigned char)+0xbc>)
  92:	480b      	ldr	r0, [pc, #44]	; (c0 <WS28xxMulti::SetPixel(unsigned int, unsigned int, unsigned char, unsigned char, unsigned char)+0xc0>)
  94:	f7ff fffe 	bl	0 <__assert_func>
  98:	e7c2      	b.n	20 <WS28xxMulti::SetPixel(unsigned int, unsigned int, unsigned char, unsigned char, unsigned char)+0x20>
  9a:	f44f 71ac 	mov.w	r1, #344	; 0x158
  9e:	4b09      	ldr	r3, [pc, #36]	; (c4 <WS28xxMulti::SetPixel(unsigned int, unsigned int, unsigned char, unsigned char, unsigned char)+0xc4>)
  a0:	4a06      	ldr	r2, [pc, #24]	; (bc <WS28xxMulti::SetPixel(unsigned int, unsigned int, unsigned char, unsigned char, unsigned char)+0xbc>)
  a2:	4807      	ldr	r0, [pc, #28]	; (c0 <WS28xxMulti::SetPixel(unsigned int, unsigned int, unsigned char, unsigned char, unsigned char)+0xc0>)
  a4:	f7ff fffe 	bl	0 <__assert_func>
  a8:	e7b6      	b.n	18 <WS28xxMulti::SetPixel(unsigned int, unsigned int, unsigned char, unsigned char, unsigned char)+0x18>
  aa:	f240 116f 	movw	r1, #367	; 0x16f
  ae:	4b06      	ldr	r3, [pc, #24]	; (c8 <WS28xxMulti::SetPixel(unsigned int, unsigned int, unsigned char, unsigned char, unsigned char)+0xc8>)
  b0:	4a02      	ldr	r2, [pc, #8]	; (bc <WS28xxMulti::SetPixel(unsigned int, unsigned int, unsigned char, unsigned char, unsigned char)+0xbc>)
  b2:	4803      	ldr	r0, [pc, #12]	; (c0 <WS28xxMulti::SetPixel(unsigned int, unsigned int, unsigned char, unsigned char, unsigned char)+0xc0>)
  b4:	f7ff fffe 	bl	0 <__assert_func>
  b8:	0000001c 	.word	0x0000001c
  bc:	00000000 	.word	0x00000000
  c0:	0000000c 	.word	0x0000000c
  c4:	00000000 	.word	0x00000000
  c8:	0000000c 	.word	0x0000000c

Disassembly of section .text._ZN11WS28xxMulti8SetPixelEjjhhhh:

00000000 <WS28xxMulti::SetPixel(unsigned int, unsigned int, unsigned char, unsigned char, unsigned char, unsigned char)>:
   0:	e92d 47f0 	stmdb	sp!, {r4, r5, r6, r7, r8, r9, sl, lr}
   4:	2907      	cmp	r1, #7
   6:	4689      	mov	r9, r1
   8:	4682      	mov	sl, r0
   a:	4690      	mov	r8, r2
   c:	461c      	mov	r4, r3
   e:	f89d 5020 	ldrb.w	r5, [sp, #32]
  12:	f89d 6024 	ldrb.w	r6, [sp, #36]	; 0x24
  16:	f89d 7028 	ldrb.w	r7, [sp, #40]	; 0x28
  1a:	d83a      	bhi.n	92 <WS28xxMulti::SetPixel(unsigned int, unsigned int, unsigned char, unsigned char, unsigned char, unsigned char)+0x92>
  1c:	f8da 300c 	ldr.w	r3, [sl, #12]
  20:	ebb8 0fd3 	cmp.w	r8, r3, lsr #3
  24:	d241      	bcs.n	aa <WS28xxMulti::SetPixel(unsigned int, unsigned int, unsigned char, unsigned char, unsigned char, unsigned char)+0xaa>
  26:	f8da 3000 	ldr.w	r3, [sl]
  2a:	2b07      	cmp	r3, #7
  2c:	d148      	bne.n	c0 <WS28xxMulti::SetPixel(unsigned int, unsigned int, unsigned char, unsigned char, unsigned char, unsigned char)+0xc0>
  2e:	2001      	movs	r0, #1
  30:	fa00 f009 	lsl.w	r0, r0, r9
  34:	b2c0      	uxtb	r0, r0
  36:	ea6f 0c00 	mvn.w	ip, r0
  3a:	2180      	movs	r1, #128	; 0x80
  3c:	4a26      	ldr	r2, [pc, #152]	; (d8 <WS28xxMulti::SetPixel(unsigned int, unsigned int, unsigned char, unsigned char, unsigned char, unsigned char)+0xd8>)
  3e:	b280      	uxth	r0, r0
  40:	eb02 1288 	add.w	r2, r2, r8, lsl #6
  44:	f102 0e10 	add.w	lr, r2, #16
  48:	fa5f fc8c 	uxtb.w	ip, ip
  4c:	8813      	ldrh	r3, [r2, #0]
  4e:	4229      	tst	r1, r5
  50:	bf0c      	ite	eq
  52:	4303      	orreq	r3, r0
  54:	ea0c 0303 	andne.w	r3, ip, r3
  58:	8013      	strh	r3, [r2, #0]
  5a:	8a13      	ldrh	r3, [r2, #16]
  5c:	4221      	tst	r1, r4
  5e:	bf0c      	ite	eq
  60:	4303      	orreq	r3, r0
  62:	ea0c 0303 	andne.w	r3, ip, r3
  66:	8213      	strh	r3, [r2, #16]
  68:	8c13      	ldrh	r3, [r2, #32]
  6a:	4231      	tst	r1, r6
  6c:	bf0c      	ite	eq
  6e:	4303      	orreq	r3, r0
  70:	ea0c 0303 	andne.w	r3, ip, r3
  74:	8413      	strh	r3, [r2, #32]
  76:	8e13      	ldrh	r3, [r2, #48]	; 0x30
  78:	4239      	tst	r1, r7
  7a:	bf0c      	ite	eq
  7c:	4303      	orreq	r3, r0
  7e:	ea0c 0303 	andne.w	r3, ip, r3
  82:	8613      	strh	r3, [r2, #48]	; 0x30
  84:	3202      	adds	r2, #2
  86:	4596      	cmp	lr, r2
  88:	ea4f 0151 	mov.w	r1, r1, lsr #1
  8c:	d1de      	bne.n	4c <WS28xxMulti::SetPixel(unsigned int, unsigned int, unsigned char, unsigned char, unsigned char, unsigned char)+0x4c>
  8e:	e8bd 87f0 	ldmia.w	sp!, {r4, r5, r6, r7, r8, r9, sl, pc}
  92:	4b12      	ldr	r3, [pc, #72]	; (dc <WS28xxMulti::SetPixel(unsigned int, unsigned int, unsigned char, unsigned char, unsigned char, unsigned char)+0xdc>)
  94:	f44f 71bc 	mov.w	r1, #376	; 0x178
  98:	4a11      	ldr	r2, [pc, #68]	; (e0 <WS28xxMulti::SetPixel(unsigned int, unsigned int, unsigned char, unsigned char, unsigned char, unsigned char)+0xe0>)
  9a:	4812      	ldr	r0, [pc, #72]	; (e4 <WS28xxMulti::SetPixel(unsigned int, unsigned int, unsigned char, unsigned char, unsigned char, unsigned char)+0xe4>)
  9c:	f7ff fffe 	bl	0 <__assert_func>
  a0:	f8da 300c 	ldr.w	r3, [sl, #12]
  a4:	ebb8 0fd3 	cmp.w	r8, r3, lsr #3
  a8:	d3bd      	bcc.n	26 <WS28xxMulti::SetPixel(unsigned int, unsigned int, unsigned char, unsigned char, unsigned char, unsigned char)+0x26>
  aa:	4b0f      	ldr	r3, [pc, #60]	; (e8 <WS28xxMulti::SetPixel(unsigned int, unsigned int, unsigned char, unsigned char, unsigned char, unsigned char)+0xe8>)
  ac:	f240 1179 	movw	r1, #377	; 0x179
  b0:	4a0b      	ldr	r2, [pc, #44]	; (e0 <WS28xxMulti::SetPixel(unsigned int, unsigned int, unsigned char, unsigned char, unsigned char, unsigned char)+0xe0>)
  b2:	480c      	ldr	r0, [pc, #48]	; (e4 <WS28xxMulti::SetPixel(unsigned int, unsigned int, unsigned char, unsigned char, unsigned char, unsigned char)+0xe4>)
  b4:	f7ff fffe 	bl	0 <__assert_func>
  b8:	f8da 3000 	ldr.w	r3, [sl]
  bc:	2b07      	cmp	r3, #7
  be:	d0b6      	beq.n	2e <WS28xxMulti::SetPixel(unsigned int, unsigned int, unsigned char, unsigned char, unsigned char, unsigned char)+0x2e>
  c0:	3b0b      	subs	r3, #11
  c2:	2b02      	cmp	r3, #2
  c4:	d9b3      	bls.n	2e <WS28xxMulti::SetPixel(unsigned int, unsigned int, unsigned char, unsigned char, unsigned char, unsigned char)+0x2e>
  c6:	f44f 71bd 	mov.w	r1, #378	; 0x17a
  ca:	4b08      	ldr	r3, [pc, #32]	; (ec <WS28xxMulti::SetPixel(unsigned int, unsigned int, unsigned char, unsigned char, unsigned char, unsigned char)+0xec>)
  cc:	4a04      	ldr	r2, [pc, #16]	; (e0 <WS28xxMulti::SetPixel(unsigned int, unsigned int, unsigned char, unsigned char, unsigned char, unsigned char)+0xe0>)
  ce:	4805      	ldr	r0, [pc, #20]	; (e4 <WS28xxMulti::SetPixel(unsigned int, unsigned int, unsigned char, unsigned char, unsigned char, unsigned char)+0xe4>)
  d0:	f7ff fffe 	bl	0 <__assert_func>
  d4:	e7ab      	b.n	2e <WS28xxMulti::SetPixel(unsigned int, unsigned int, unsigned char, unsigned char, unsigned char, unsigned char)+0x2e>
  d6:	bf00      	nop
  d8:	00000002 	.word	0x00000002
	...
  e4:	0000000c 	.word	0x0000000c
  e8:	0000001c 	.word	0x0000001c
  ec:	00000000 	.word	0x00000000
