In archive lib_h3/libflashcode.a:

flashrom.o:     file format elf32-littlearm


Disassembly of section .text._ZN8FlashRomC2Ev:

00000000 <FlashRom::FlashRom()>:
   0:	e3003000 	movw	r3, #0
   4:	e3a02000 	mov	r2, #0
   8:	e3403000 	movt	r3, #0
   c:	e1a01002 	mov	r1, r2
  10:	e92d4070 	push	{r4, r5, r6, lr}
  14:	e1a04000 	mov	r4, r0
  18:	e5830000 	str	r0, [r3]
  1c:	e5c02000 	strb	r2, [r0]
  20:	e1a00002 	mov	r0, r2
  24:	ebfffffe 	bl	0 <spi_flash_probe(unsigned int, unsigned int, unsigned int)>
  28:	e3500000 	cmp	r0, #0
  2c:	ba00000c 	blt	64 <FlashRom::FlashRom()+0x64>
  30:	ebfffffe 	bl	0 <spi_flash_get_name()>
  34:	e1a05000 	mov	r5, r0
  38:	ebfffffe 	bl	0 <spi_flash_get_sector_size()>
  3c:	e1a06000 	mov	r6, r0
  40:	ebfffffe 	bl	0 <spi_flash_get_size()>
  44:	e1a03000 	mov	r3, r0
  48:	e3000000 	movw	r0, #0
  4c:	e3400000 	movt	r0, #0
  50:	e1a02006 	mov	r2, r6
  54:	e1a01005 	mov	r1, r5
  58:	ebfffffe 	bl	0 <printf>
  5c:	e3a03001 	mov	r3, #1
  60:	e5c43000 	strb	r3, [r4]
  64:	e1a00004 	mov	r0, r4
  68:	e8bd8070 	pop	{r4, r5, r6, pc}

Disassembly of section .text._ZN8FlashRomD2Ev:

00000000 <FlashRom::~FlashRom()>:
   0:	e12fff1e 	bx	lr

Disassembly of section .text._ZNK8FlashRom7GetNameEv:

00000000 <FlashRom::GetName() const>:
   0:	eafffffe 	b	0 <spi_flash_get_name()>

Disassembly of section .text._ZNK8FlashRom7GetSizeEv:

00000000 <FlashRom::GetSize() const>:
   0:	eafffffe 	b	0 <spi_flash_get_size()>

Disassembly of section .text._ZNK8FlashRom13GetSectorSizeEv:

00000000 <FlashRom::GetSectorSize() const>:
   0:	eafffffe 	b	0 <spi_flash_get_sector_size()>

Disassembly of section .text._ZN8FlashRom4ReadEjjPhRN8flashrom6resultE:

00000000 <FlashRom::Read(unsigned int, unsigned int, unsigned char*, flashrom::result&)>:
   0:	e92d4010 	push	{r4, lr}
   4:	e1a00001 	mov	r0, r1
   8:	e1a01002 	mov	r1, r2
   c:	e1a02003 	mov	r2, r3
  10:	ebfffffe 	bl	0 <spi_flash_cmd_read_fast(unsigned int, unsigned int, unsigned char*)>
  14:	e59d2008 	ldr	r2, [sp, #8]
  18:	e1a03000 	mov	r3, r0
  1c:	e3a00001 	mov	r0, #1
  20:	e1a03fa3 	lsr	r3, r3, #31
  24:	e5823000 	str	r3, [r2]
  28:	e8bd8010 	pop	{r4, pc}

Disassembly of section .text._ZN8FlashRom5EraseEjjRN8flashrom6resultE:

00000000 <FlashRom::Erase(unsigned int, unsigned int, flashrom::result&)>:
   0:	e92d4010 	push	{r4, lr}
   4:	e1a00001 	mov	r0, r1
   8:	e1a01002 	mov	r1, r2
   c:	e1a04003 	mov	r4, r3
  10:	ebfffffe 	bl	0 <spi_flash_cmd_erase(unsigned int, unsigned int)>
  14:	e1a03000 	mov	r3, r0
  18:	e3a00001 	mov	r0, #1
  1c:	e1a03fa3 	lsr	r3, r3, #31
  20:	e5843000 	str	r3, [r4]
  24:	e8bd8010 	pop	{r4, pc}

Disassembly of section .text._ZN8FlashRom5WriteEjjPKhRN8flashrom6resultE:

00000000 <FlashRom::Write(unsigned int, unsigned int, unsigned char const*, flashrom::result&)>:
   0:	e92d4010 	push	{r4, lr}
   4:	e1a00001 	mov	r0, r1
   8:	e1a01002 	mov	r1, r2
   c:	e1a02003 	mov	r2, r3
  10:	ebfffffe 	bl	0 <spi_flash_cmd_write_multi(unsigned int, unsigned int, unsigned char const*)>
  14:	e59d2008 	ldr	r2, [sp, #8]
  18:	e1a03000 	mov	r3, r0
  1c:	e3a00001 	mov	r0, #1
  20:	e1a03fa3 	lsr	r3, r3, #31
  24:	e5823000 	str	r3, [r2]
  28:	e8bd8010 	pop	{r4, pc}
