In archive lib_gd32/libdmx.a:

dmxparams.o:     file format elf32-littlearm


Disassembly of section .text._ZN17PropertiesBuilder3AddItEEbPKcT_bj.isra.0:

00000000 <bool PropertiesBuilder::Add<unsigned short>(char const*, unsigned short, bool, unsigned int) [clone .isra.0]>:
   0:	b573      	push	{r0, r1, r4, r5, r6, lr}
   2:	88c6      	ldrh	r6, [r0, #6]
   4:	8885      	ldrh	r5, [r0, #4]
   6:	42ae      	cmp	r6, r5
   8:	d216      	bcs.n	38 <bool PropertiesBuilder::Add<unsigned short>(char const*, unsigned short, bool, unsigned int) [clone .isra.0]+0x38>
   a:	4604      	mov	r4, r0
   c:	6800      	ldr	r0, [r0, #0]
   e:	1bad      	subs	r5, r5, r6
  10:	4430      	add	r0, r6
  12:	7a26      	ldrb	r6, [r4, #8]
  14:	b923      	cbnz	r3, 20 <bool PropertiesBuilder::Add<unsigned short>(char const*, unsigned short, bool, unsigned int) [clone .isra.0]+0x20>
  16:	b926      	cbnz	r6, 22 <bool PropertiesBuilder::Add<unsigned short>(char const*, unsigned short, bool, unsigned int) [clone .isra.0]+0x22>
  18:	9200      	str	r2, [sp, #0]
  1a:	460b      	mov	r3, r1
  1c:	4a09      	ldr	r2, [pc, #36]	; (44 <bool PropertiesBuilder::Add<unsigned short>(char const*, unsigned short, bool, unsigned int) [clone .isra.0]+0x44>)
  1e:	e003      	b.n	28 <bool PropertiesBuilder::Add<unsigned short>(char const*, unsigned short, bool, unsigned int) [clone .isra.0]+0x28>
  20:	b166      	cbz	r6, 3c <bool PropertiesBuilder::Add<unsigned short>(char const*, unsigned short, bool, unsigned int) [clone .isra.0]+0x3c>
  22:	460b      	mov	r3, r1
  24:	9200      	str	r2, [sp, #0]
  26:	4a08      	ldr	r2, [pc, #32]	; (48 <bool PropertiesBuilder::Add<unsigned short>(char const*, unsigned short, bool, unsigned int) [clone .isra.0]+0x48>)
  28:	4629      	mov	r1, r5
  2a:	f7ff fffe 	bl	0 <snprintf>
  2e:	4285      	cmp	r5, r0
  30:	bfa2      	ittt	ge
  32:	88e3      	ldrhge	r3, [r4, #6]
  34:	181b      	addge	r3, r3, r0
  36:	80e3      	strhge	r3, [r4, #6]
  38:	b002      	add	sp, #8
  3a:	bd70      	pop	{r4, r5, r6, pc}
  3c:	9200      	str	r2, [sp, #0]
  3e:	460b      	mov	r3, r1
  40:	4a02      	ldr	r2, [pc, #8]	; (4c <bool PropertiesBuilder::Add<unsigned short>(char const*, unsigned short, bool, unsigned int) [clone .isra.0]+0x4c>)
  42:	e7f1      	b.n	28 <bool PropertiesBuilder::Add<unsigned short>(char const*, unsigned short, bool, unsigned int) [clone .isra.0]+0x28>
  44:	00000010 	.word	0x00000010
  48:	00000000 	.word	0x00000000
  4c:	00000009 	.word	0x00000009

Disassembly of section .text._ZN9DmxParamsC2EP14DmxParamsStore:

00000000 <DmxParams::DmxParams(DmxParamsStore*)>:
   0:	6001      	str	r1, [r0, #0]
   2:	2100      	movs	r1, #0
   4:	4a03      	ldr	r2, [pc, #12]	; (14 <DmxParams::DmxParams(DmxParamsStore*)+0x14>)
   6:	e9c0 1201 	strd	r1, r2, [r0, #4]
   a:	f64f 7228 	movw	r2, #65320	; 0xff28
   e:	8182      	strh	r2, [r0, #12]
  10:	4770      	bx	lr
  12:	bf00      	nop
  14:	000c00b0 	.word	0x000c00b0

Disassembly of section .text._ZN9DmxParams4LoadEv:

00000000 <DmxParams::Load()>:
   0:	b508      	push	{r3, lr}
   2:	2300      	movs	r3, #0
   4:	4601      	mov	r1, r0
   6:	6043      	str	r3, [r0, #4]
   8:	6800      	ldr	r0, [r0, #0]
   a:	b120      	cbz	r0, 16 <DmxParams::Load()+0x16>
   c:	6803      	ldr	r3, [r0, #0]
   e:	3104      	adds	r1, #4
  10:	68db      	ldr	r3, [r3, #12]
  12:	4798      	blx	r3
  14:	2001      	movs	r0, #1
  16:	bd08      	pop	{r3, pc}

Disassembly of section .text._ZN9DmxParams4LoadEPKcj:

00000000 <DmxParams::Load(char const*, unsigned int)>:
   0:	6803      	ldr	r3, [r0, #0]
   2:	b1d3      	cbz	r3, 3a <DmxParams::Load(char const*, unsigned int)+0x3a>
   4:	2300      	movs	r3, #0
   6:	b573      	push	{r0, r1, r4, r5, r6, lr}
   8:	460d      	mov	r5, r1
   a:	4616      	mov	r6, r2
   c:	4604      	mov	r4, r0
   e:	6043      	str	r3, [r0, #4]
  10:	4602      	mov	r2, r0
  12:	490a      	ldr	r1, [pc, #40]	; (3c <DmxParams::Load(char const*, unsigned int)+0x3c>)
  14:	4668      	mov	r0, sp
  16:	f7ff fffe 	bl	0 <ReadConfigFile::ReadConfigFile(void (*)(void*, char const*), void*)>
  1a:	4632      	mov	r2, r6
  1c:	4629      	mov	r1, r5
  1e:	4668      	mov	r0, sp
  20:	f7ff fffe 	bl	0 <ReadConfigFile::Read(char const*, unsigned int)>
  24:	4621      	mov	r1, r4
  26:	f851 0b04 	ldr.w	r0, [r1], #4
  2a:	6803      	ldr	r3, [r0, #0]
  2c:	689b      	ldr	r3, [r3, #8]
  2e:	4798      	blx	r3
  30:	4668      	mov	r0, sp
  32:	f7ff fffe 	bl	0 <ReadConfigFile::~ReadConfigFile()>
  36:	b002      	add	sp, #8
  38:	bd70      	pop	{r4, r5, r6, pc}
  3a:	4770      	bx	lr
  3c:	00000000 	.word	0x00000000

Disassembly of section .text._ZN9DmxParams16callbackFunctionEPKc:

00000000 <DmxParams::callbackFunction(char const*)>:
   0:	b537      	push	{r0, r1, r2, r4, r5, lr}
   2:	460d      	mov	r5, r1
   4:	4604      	mov	r4, r0
   6:	492d      	ldr	r1, [pc, #180]	; (bc <DmxParams::callbackFunction(char const*)+0xbc>)
   8:	4628      	mov	r0, r5
   a:	f10d 0206 	add.w	r2, sp, #6
   e:	f7ff fffe 	bl	0 <Sscan::Uint16(char const*, char const*, unsigned short&)>
  12:	b988      	cbnz	r0, 38 <DmxParams::callbackFunction(char const*)+0x38>
  14:	f8bd 2006 	ldrh.w	r2, [sp, #6]
  18:	6863      	ldr	r3, [r4, #4]
  1a:	2a5b      	cmp	r2, #91	; 0x5b
  1c:	d907      	bls.n	2e <DmxParams::callbackFunction(char const*)+0x2e>
  1e:	2ab0      	cmp	r2, #176	; 0xb0
  20:	d005      	beq.n	2e <DmxParams::callbackFunction(char const*)+0x2e>
  22:	8122      	strh	r2, [r4, #8]
  24:	f043 0301 	orr.w	r3, r3, #1
  28:	6063      	str	r3, [r4, #4]
  2a:	b003      	add	sp, #12
  2c:	bd30      	pop	{r4, r5, pc}
  2e:	22b0      	movs	r2, #176	; 0xb0
  30:	f023 0301 	bic.w	r3, r3, #1
  34:	8122      	strh	r2, [r4, #8]
  36:	e7f7      	b.n	28 <DmxParams::callbackFunction(char const*)+0x28>
  38:	4628      	mov	r0, r5
  3a:	4921      	ldr	r1, [pc, #132]	; (c0 <DmxParams::callbackFunction(char const*)+0xc0>)
  3c:	f10d 0206 	add.w	r2, sp, #6
  40:	f7ff fffe 	bl	0 <Sscan::Uint16(char const*, char const*, unsigned short&)>
  44:	b968      	cbnz	r0, 62 <DmxParams::callbackFunction(char const*)+0x62>
  46:	f8bd 2006 	ldrh.w	r2, [sp, #6]
  4a:	6863      	ldr	r3, [r4, #4]
  4c:	2a0c      	cmp	r2, #12
  4e:	bf93      	iteet	ls
  50:	220c      	movls	r2, #12
  52:	8162      	strhhi	r2, [r4, #10]
  54:	f043 0302 	orrhi.w	r3, r3, #2
  58:	8162      	strhls	r2, [r4, #10]
  5a:	bf98      	it	ls
  5c:	f023 0302 	bicls.w	r3, r3, #2
  60:	e7e2      	b.n	28 <DmxParams::callbackFunction(char const*)+0x28>
  62:	4628      	mov	r0, r5
  64:	4917      	ldr	r1, [pc, #92]	; (c4 <DmxParams::callbackFunction(char const*)+0xc4>)
  66:	f10d 0205 	add.w	r2, sp, #5
  6a:	f7ff fffe 	bl	0 <Sscan::Uint8(char const*, char const*, unsigned char&)>
  6e:	b950      	cbnz	r0, 86 <DmxParams::callbackFunction(char const*)+0x86>
  70:	f89d 2005 	ldrb.w	r2, [sp, #5]
  74:	6863      	ldr	r3, [r4, #4]
  76:	2a28      	cmp	r2, #40	; 0x28
  78:	7322      	strb	r2, [r4, #12]
  7a:	bf14      	ite	ne
  7c:	f043 0304 	orrne.w	r3, r3, #4
  80:	f023 0304 	biceq.w	r3, r3, #4
  84:	e7d0      	b.n	28 <DmxParams::callbackFunction(char const*)+0x28>
  86:	4628      	mov	r0, r5
  88:	490f      	ldr	r1, [pc, #60]	; (c8 <DmxParams::callbackFunction(char const*)+0xc8>)
  8a:	f10d 0206 	add.w	r2, sp, #6
  8e:	f7ff fffe 	bl	0 <Sscan::Uint16(char const*, char const*, unsigned short&)>
  92:	2800      	cmp	r0, #0
  94:	d1c9      	bne.n	2a <DmxParams::callbackFunction(char const*)+0x2a>
  96:	f8bd 2006 	ldrh.w	r2, [sp, #6]
  9a:	6863      	ldr	r3, [r4, #4]
  9c:	1e91      	subs	r1, r2, #2
  9e:	f5b1 7fff 	cmp.w	r1, #510	; 0x1fe
  a2:	bf2f      	iteee	cs
  a4:	22ff      	movcs	r2, #255	; 0xff
  a6:	0852      	lsrcc	r2, r2, #1
  a8:	f102 32ff 	addcc.w	r2, r2, #4294967295	; 0xffffffff
  ac:	7362      	strbcc	r2, [r4, #13]
  ae:	bf32      	itee	cc
  b0:	f043 0308 	orrcc.w	r3, r3, #8
  b4:	7362      	strbcs	r2, [r4, #13]
  b6:	f023 0308 	biccs.w	r3, r3, #8
  ba:	e7b5      	b.n	28 <DmxParams::callbackFunction(char const*)+0x28>
	...

Disassembly of section .text._ZN9DmxParams22staticCallbackFunctionEPvPKc:

00000000 <DmxParams::staticCallbackFunction(void*, char const*)>:
   0:	f7ff bffe 	b.w	0 <DmxParams::staticCallbackFunction(void*, char const*)>

Disassembly of section .text._ZN9DmxParams7BuilderEPK10TDmxParamsPcjRj:

00000000 <DmxParams::Builder(TDmxParams const*, char*, unsigned int, unsigned int&)>:
   0:	b570      	push	{r4, r5, r6, lr}
   2:	4604      	mov	r4, r0
   4:	4615      	mov	r5, r2
   6:	461e      	mov	r6, r3
   8:	b086      	sub	sp, #24
   a:	3004      	adds	r0, #4
   c:	b369      	cbz	r1, 6a <DmxParams::Builder(TDmxParams const*, char*, unsigned int, unsigned int&)+0x6a>
   e:	220a      	movs	r2, #10
  10:	f7ff fffe 	bl	0 <memmove>
  14:	462a      	mov	r2, r5
  16:	4633      	mov	r3, r6
  18:	4932      	ldr	r1, [pc, #200]	; (e4 <DmxParams::Builder(TDmxParams const*, char*, unsigned int, unsigned int&)+0xe4>)
  1a:	a803      	add	r0, sp, #12
  1c:	f7ff fffe 	bl	0 <PropertiesBuilder::PropertiesBuilder(char const*, char*, unsigned int)>
  20:	6863      	ldr	r3, [r4, #4]
  22:	8922      	ldrh	r2, [r4, #8]
  24:	4930      	ldr	r1, [pc, #192]	; (e8 <DmxParams::Builder(TDmxParams const*, char*, unsigned int, unsigned int&)+0xe8>)
  26:	f003 0301 	and.w	r3, r3, #1
  2a:	a803      	add	r0, sp, #12
  2c:	f7ff fffe 	bl	0 <DmxParams::Builder(TDmxParams const*, char*, unsigned int, unsigned int&)>
  30:	6863      	ldr	r3, [r4, #4]
  32:	8962      	ldrh	r2, [r4, #10]
  34:	492d      	ldr	r1, [pc, #180]	; (ec <DmxParams::Builder(TDmxParams const*, char*, unsigned int, unsigned int&)+0xec>)
  36:	f3c3 0340 	ubfx	r3, r3, #1, #1
  3a:	a803      	add	r0, sp, #12
  3c:	f7ff fffe 	bl	0 <DmxParams::Builder(TDmxParams const*, char*, unsigned int, unsigned int&)>
  40:	f8bd 2012 	ldrh.w	r2, [sp, #18]
  44:	f8bd 5010 	ldrh.w	r5, [sp, #16]
  48:	7b23      	ldrb	r3, [r4, #12]
  4a:	42aa      	cmp	r2, r5
  4c:	6861      	ldr	r1, [r4, #4]
  4e:	d221      	bcs.n	94 <DmxParams::Builder(TDmxParams const*, char*, unsigned int, unsigned int&)+0x94>
  50:	9803      	ldr	r0, [sp, #12]
  52:	0749      	lsls	r1, r1, #29
  54:	4410      	add	r0, r2
  56:	eba5 0502 	sub.w	r5, r5, r2
  5a:	f89d 2014 	ldrb.w	r2, [sp, #20]
  5e:	d40b      	bmi.n	78 <DmxParams::Builder(TDmxParams const*, char*, unsigned int, unsigned int&)+0x78>
  60:	b95a      	cbnz	r2, 7a <DmxParams::Builder(TDmxParams const*, char*, unsigned int, unsigned int&)+0x7a>
  62:	9300      	str	r3, [sp, #0]
  64:	4a22      	ldr	r2, [pc, #136]	; (f0 <DmxParams::Builder(TDmxParams const*, char*, unsigned int, unsigned int&)+0xf0>)
  66:	4b23      	ldr	r3, [pc, #140]	; (f4 <DmxParams::Builder(TDmxParams const*, char*, unsigned int, unsigned int&)+0xf4>)
  68:	e00a      	b.n	80 <DmxParams::Builder(TDmxParams const*, char*, unsigned int, unsigned int&)+0x80>
  6a:	6823      	ldr	r3, [r4, #0]
  6c:	4601      	mov	r1, r0
  6e:	681a      	ldr	r2, [r3, #0]
  70:	4618      	mov	r0, r3
  72:	68d2      	ldr	r2, [r2, #12]
  74:	4790      	blx	r2
  76:	e7cd      	b.n	14 <DmxParams::Builder(TDmxParams const*, char*, unsigned int, unsigned int&)+0x14>
  78:	b37a      	cbz	r2, da <DmxParams::Builder(TDmxParams const*, char*, unsigned int, unsigned int&)+0xda>
  7a:	9300      	str	r3, [sp, #0]
  7c:	4a1e      	ldr	r2, [pc, #120]	; (f8 <DmxParams::Builder(TDmxParams const*, char*, unsigned int, unsigned int&)+0xf8>)
  7e:	4b1d      	ldr	r3, [pc, #116]	; (f4 <DmxParams::Builder(TDmxParams const*, char*, unsigned int, unsigned int&)+0xf4>)
  80:	4629      	mov	r1, r5
  82:	f7ff fffe 	bl	0 <snprintf>
  86:	4285      	cmp	r5, r0
  88:	bfa2      	ittt	ge
  8a:	f8bd 3012 	ldrhge.w	r3, [sp, #18]
  8e:	18c0      	addge	r0, r0, r3
  90:	f8ad 0012 	strhge.w	r0, [sp, #18]
  94:	7b62      	ldrb	r2, [r4, #13]
  96:	6863      	ldr	r3, [r4, #4]
  98:	3201      	adds	r2, #1
  9a:	f3c3 03c0 	ubfx	r3, r3, #3, #1
  9e:	4917      	ldr	r1, [pc, #92]	; (fc <DmxParams::Builder(TDmxParams const*, char*, unsigned int, unsigned int&)+0xfc>)
  a0:	0052      	lsls	r2, r2, #1
  a2:	a803      	add	r0, sp, #12
  a4:	f7ff fffe 	bl	0 <DmxParams::Builder(TDmxParams const*, char*, unsigned int, unsigned int&)>
  a8:	f89d 3014 	ldrb.w	r3, [sp, #20]
  ac:	b17b      	cbz	r3, ce <DmxParams::Builder(TDmxParams const*, char*, unsigned int, unsigned int&)+0xce>
  ae:	f8bd 2012 	ldrh.w	r2, [sp, #18]
  b2:	9b03      	ldr	r3, [sp, #12]
  b4:	4413      	add	r3, r2
  b6:	227d      	movs	r2, #125	; 0x7d
  b8:	f803 2c01 	strb.w	r2, [r3, #-1]
  bc:	f8bd 3012 	ldrh.w	r3, [sp, #18]
  c0:	9903      	ldr	r1, [sp, #12]
  c2:	54ca      	strb	r2, [r1, r3]
  c4:	f8bd 3012 	ldrh.w	r3, [sp, #18]
  c8:	3301      	adds	r3, #1
  ca:	f8ad 3012 	strh.w	r3, [sp, #18]
  ce:	f8bd 2012 	ldrh.w	r2, [sp, #18]
  d2:	9b0a      	ldr	r3, [sp, #40]	; 0x28
  d4:	601a      	str	r2, [r3, #0]
  d6:	b006      	add	sp, #24
  d8:	bd70      	pop	{r4, r5, r6, pc}
  da:	9300      	str	r3, [sp, #0]
  dc:	4a08      	ldr	r2, [pc, #32]	; (100 <DmxParams::Builder(TDmxParams const*, char*, unsigned int, unsigned int&)+0x100>)
  de:	4b05      	ldr	r3, [pc, #20]	; (f4 <DmxParams::Builder(TDmxParams const*, char*, unsigned int, unsigned int&)+0xf4>)
  e0:	e7ce      	b.n	80 <DmxParams::Builder(TDmxParams const*, char*, unsigned int, unsigned int&)+0x80>
  e2:	bf00      	nop
	...
  f0:	00000010 	.word	0x00000010
	...
 100:	00000009 	.word	0x00000009

Disassembly of section .text._ZN9DmxParams4SaveEPcjRj:

00000000 <DmxParams::Save(char*, unsigned int, unsigned int&)>:
   0:	b513      	push	{r0, r1, r4, lr}
   2:	6804      	ldr	r4, [r0, #0]
   4:	b914      	cbnz	r4, c <DmxParams::Save(char*, unsigned int, unsigned int&)+0xc>
   6:	601c      	str	r4, [r3, #0]
   8:	b002      	add	sp, #8
   a:	bd10      	pop	{r4, pc}
   c:	9300      	str	r3, [sp, #0]
   e:	4613      	mov	r3, r2
  10:	460a      	mov	r2, r1
  12:	2100      	movs	r1, #0
  14:	f7ff fffe 	bl	0 <DmxParams::Save(char*, unsigned int, unsigned int&)>
  18:	e7f6      	b.n	8 <DmxParams::Save(char*, unsigned int, unsigned int&)+0x8>

Disassembly of section .text._ZN9DmxParams3SetEP3Dmx:

00000000 <DmxParams::Set(Dmx*)>:
   0:	b538      	push	{r3, r4, r5, lr}
   2:	6843      	ldr	r3, [r0, #4]
   4:	4604      	mov	r4, r0
   6:	07d8      	lsls	r0, r3, #31
   8:	460d      	mov	r5, r1
   a:	d503      	bpl.n	14 <DmxParams::Set(Dmx*)+0x14>
   c:	4628      	mov	r0, r5
   e:	8921      	ldrh	r1, [r4, #8]
  10:	f7ff fffe 	bl	0 <Dmx::SetDmxBreakTime(unsigned int)>
  14:	6863      	ldr	r3, [r4, #4]
  16:	0799      	lsls	r1, r3, #30
  18:	d503      	bpl.n	22 <DmxParams::Set(Dmx*)+0x22>
  1a:	4628      	mov	r0, r5
  1c:	8961      	ldrh	r1, [r4, #10]
  1e:	f7ff fffe 	bl	0 <Dmx::SetDmxMabTime(unsigned int)>
  22:	6863      	ldr	r3, [r4, #4]
  24:	075a      	lsls	r2, r3, #29
  26:	d507      	bpl.n	38 <DmxParams::Set(Dmx*)+0x38>
  28:	7b21      	ldrb	r1, [r4, #12]
  2a:	b111      	cbz	r1, 32 <DmxParams::Set(Dmx*)+0x32>
  2c:	4b08      	ldr	r3, [pc, #32]	; (50 <DmxParams::Set(Dmx*)+0x50>)
  2e:	fbb3 f1f1 	udiv	r1, r3, r1
  32:	4628      	mov	r0, r5
  34:	f7ff fffe 	bl	0 <Dmx::SetDmxPeriodTime(unsigned int)>
  38:	6863      	ldr	r3, [r4, #4]
  3a:	071b      	lsls	r3, r3, #28
  3c:	d507      	bpl.n	4e <DmxParams::Set(Dmx*)+0x4e>
  3e:	7b61      	ldrb	r1, [r4, #13]
  40:	4628      	mov	r0, r5
  42:	e8bd 4038 	ldmia.w	sp!, {r3, r4, r5, lr}
  46:	3101      	adds	r1, #1
  48:	0049      	lsls	r1, r1, #1
  4a:	f7ff bffe 	b.w	0 <Dmx::SetDmxSlots(unsigned short)>
  4e:	bd38      	pop	{r3, r4, r5, pc}
  50:	000f4240 	.word	0x000f4240

Disassembly of section .text._ZN9DmxParams4DumpEv:

00000000 <DmxParams::Dump()>:
   0:	4770      	bx	lr

dmxparamsconst.o:     file format elf32-littlearm


rdm.o:     file format elf32-littlearm


Disassembly of section .text._ZN3Rdm7ReceiveEj:

00000000 <Rdm::Receive(unsigned int)>:
   0:	4b02      	ldr	r3, [pc, #8]	; (c <Rdm::Receive(unsigned int)+0xc>)
   2:	4601      	mov	r1, r0
   4:	6818      	ldr	r0, [r3, #0]
   6:	f7ff bffe 	b.w	0 <Dmx::RdmReceive(unsigned int)>
   a:	bf00      	nop
   c:	00000000 	.word	0x00000000

Disassembly of section .text._ZN3Rdm14ReceiveTimeOutEjt:

00000000 <Rdm::ReceiveTimeOut(unsigned int, unsigned short)>:
   0:	4b02      	ldr	r3, [pc, #8]	; (c <Rdm::ReceiveTimeOut(unsigned int, unsigned short)+0xc>)
   2:	460a      	mov	r2, r1
   4:	4601      	mov	r1, r0
   6:	6818      	ldr	r0, [r3, #0]
   8:	f7ff bffe 	b.w	0 <Dmx::RdmReceiveTimeOut(unsigned int, unsigned short)>
   c:	00000000 	.word	0x00000000

Disassembly of section .text._ZN3Rdm7SendRawEjPKhj:

00000000 <Rdm::SendRaw(unsigned int, unsigned char const*, unsigned int)>:
   0:	2300      	movs	r3, #0
   2:	e92d 41f0 	stmdb	sp!, {r4, r5, r6, r7, r8, lr}
   6:	4604      	mov	r4, r0
   8:	460e      	mov	r6, r1
   a:	4617      	mov	r7, r2
   c:	4d0b      	ldr	r5, [pc, #44]	; (3c <Rdm::SendRaw(unsigned int, unsigned char const*, unsigned int)+0x3c>)
   e:	461a      	mov	r2, r3
  10:	4601      	mov	r1, r0
  12:	6828      	ldr	r0, [r5, #0]
  14:	f7ff fffe 	bl	0 <Dmx::SetPortDirection(unsigned int, dmx::PortDirection, bool)>
  18:	463b      	mov	r3, r7
  1a:	4632      	mov	r2, r6
  1c:	4621      	mov	r1, r4
  1e:	6828      	ldr	r0, [r5, #0]
  20:	f7ff fffe 	bl	0 <Dmx::RdmSendRaw(unsigned int, unsigned char const*, unsigned int)>
  24:	2100      	movs	r1, #0
  26:	2004      	movs	r0, #4
  28:	f7ff fffe 	bl	0 <udelay(unsigned int, unsigned int)>
  2c:	2301      	movs	r3, #1
  2e:	4621      	mov	r1, r4
  30:	6828      	ldr	r0, [r5, #0]
  32:	461a      	mov	r2, r3
  34:	e8bd 41f0 	ldmia.w	sp!, {r4, r5, r6, r7, r8, lr}
  38:	f7ff bffe 	b.w	0 <Dmx::SetPortDirection(unsigned int, dmx::PortDirection, bool)>
  3c:	00000000 	.word	0x00000000

dmx.o:     file format elf32-littlearm


Disassembly of section .text._ZL17_gpio_mode_outputjj:

00000000 <_gpio_mode_output(unsigned int, unsigned int)>:
   0:	460b      	mov	r3, r1
   2:	2203      	movs	r2, #3
   4:	2110      	movs	r1, #16
   6:	f7ff bffe 	b.w	0 <gpio_init>

Disassembly of section .text._ZL15uart_dmx_configj:

00000000 <uart_dmx_config(unsigned int)>:
   0:	2302      	movs	r3, #2
   2:	b507      	push	{r0, r1, r2, lr}
   4:	2208      	movs	r2, #8
   6:	9300      	str	r3, [sp, #0]
   8:	4903      	ldr	r1, [pc, #12]	; (18 <uart_dmx_config(unsigned int)+0x18>)
   a:	2300      	movs	r3, #0
   c:	f7ff fffe 	bl	0 <gd32_uart_begin>
  10:	b003      	add	sp, #12
  12:	f85d fb04 	ldr.w	pc, [sp], #4
  16:	bf00      	nop
  18:	0003d090 	.word	0x0003d090

Disassembly of section .text._ZL25irq_handler_dmx_rdm_inputjj:

00000000 <irq_handler_dmx_rdm_input(unsigned int, unsigned int)>:
   0:	b5f0      	push	{r4, r5, r6, r7, lr}
   2:	f3bf 8f5f 	dmb	sy
   6:	2501      	movs	r5, #1
   8:	4cac      	ldr	r4, [pc, #688]	; (2bc <irq_handler_dmx_rdm_input(unsigned int, unsigned int)+0x2bc>)
   a:	4aad      	ldr	r2, [pc, #692]	; (2c0 <irq_handler_dmx_rdm_input(unsigned int, unsigned int)+0x2c0>)
   c:	f8c4 5810 	str.w	r5, [r4, #2064]	; 0x810
  10:	6803      	ldr	r3, [r0, #0]
  12:	f013 0f02 	tst.w	r3, #2
  16:	d016      	beq.n	46 <irq_handler_dmx_rdm_input(unsigned int, unsigned int)+0x46>
  18:	6803      	ldr	r3, [r0, #0]
  1a:	f023 0302 	bic.w	r3, r3, #2
  1e:	6003      	str	r3, [r0, #0]
  20:	6843      	ldr	r3, [r0, #4]
  22:	f44f 7304 	mov.w	r3, #528	; 0x210
  26:	fb03 2301 	mla	r3, r3, r1, r2
  2a:	2200      	movs	r2, #0
  2c:	f8c3 2204 	str.w	r2, [r3, #516]	; 0x204
  30:	2202      	movs	r2, #2
  32:	f8c3 220c 	str.w	r2, [r3, #524]	; 0x20c
  36:	2380      	movs	r3, #128	; 0x80
  38:	f8c4 5814 	str.w	r5, [r4, #2068]	; 0x814
  3c:	f8c4 2814 	str.w	r2, [r4, #2068]	; 0x814
  40:	f8c4 3414 	str.w	r3, [r4, #1044]	; 0x414
  44:	bdf0      	pop	{r4, r5, r6, r7, pc}
  46:	f44f 7304 	mov.w	r3, #528	; 0x210
  4a:	fb03 2501 	mla	r5, r3, r1, r2
  4e:	6840      	ldr	r0, [r0, #4]
  50:	f8d5 520c 	ldr.w	r5, [r5, #524]	; 0x20c
  54:	f3c0 0008 	ubfx	r0, r0, #0, #9
  58:	2d0a      	cmp	r5, #10
  5a:	f200 8127 	bhi.w	2ac <irq_handler_dmx_rdm_input(unsigned int, unsigned int)+0x2ac>
  5e:	e8df f015 	tbh	[pc, r5, lsl #1]
  62:	000b      	.short	0x000b
  64:	001a0125 	.word	0x001a0125
  68:	00470125 	.word	0x00470125
  6c:	009d007c 	.word	0x009d007c
  70:	00d900ad 	.word	0x00d900ad
  74:	010700f1 	.word	0x010700f1
  78:	434b      	muls	r3, r1
  7a:	2508      	movs	r5, #8
  7c:	18d1      	adds	r1, r2, r3
  7e:	54d0      	strb	r0, [r2, r3]
  80:	2301      	movs	r3, #1
  82:	f8c1 520c 	str.w	r5, [r1, #524]	; 0x20c
  86:	f8a1 3204 	strh.w	r3, [r1, #516]	; 0x204
  8a:	2301      	movs	r3, #1
  8c:	f8c4 3814 	str.w	r3, [r4, #2068]	; 0x814
  90:	f3bf 8f5f 	dmb	sy
  94:	e7d6      	b.n	44 <irq_handler_dmx_rdm_input(unsigned int, unsigned int)+0x44>
  96:	b148      	cbz	r0, ac <irq_handler_dmx_rdm_input(unsigned int, unsigned int)+0xac>
  98:	28cc      	cmp	r0, #204	; 0xcc
  9a:	f44f 7304 	mov.w	r3, #528	; 0x210
  9e:	d01d      	beq.n	dc <irq_handler_dmx_rdm_input(unsigned int, unsigned int)+0xdc>
  a0:	fb03 2301 	mla	r3, r3, r1, r2
  a4:	2200      	movs	r2, #0
  a6:	f8c3 220c 	str.w	r2, [r3, #524]	; 0x20c
  aa:	e7ee      	b.n	8a <irq_handler_dmx_rdm_input(unsigned int, unsigned int)+0x8a>
  ac:	434b      	muls	r3, r1
  ae:	18d5      	adds	r5, r2, r3
  b0:	54d0      	strb	r0, [r2, r3]
  b2:	2301      	movs	r3, #1
  b4:	f8c5 3204 	str.w	r3, [r5, #516]	; 0x204
  b8:	4b82      	ldr	r3, [pc, #520]	; (2c4 <irq_handler_dmx_rdm_input(unsigned int, unsigned int)+0x2c4>)
  ba:	eb03 1301 	add.w	r3, r3, r1, lsl #4
  be:	685a      	ldr	r2, [r3, #4]
  c0:	3201      	adds	r2, #1
  c2:	605a      	str	r2, [r3, #4]
  c4:	f04f 4280 	mov.w	r2, #1073741824	; 0x40000000
  c8:	f8d2 2424 	ldr.w	r2, [r2, #1060]	; 0x424
  cc:	60da      	str	r2, [r3, #12]
  ce:	2304      	movs	r3, #4
  d0:	f8c5 320c 	str.w	r3, [r5, #524]	; 0x20c
  d4:	2302      	movs	r3, #2
  d6:	f8c4 3810 	str.w	r3, [r4, #2064]	; 0x810
  da:	e7d6      	b.n	8a <irq_handler_dmx_rdm_input(unsigned int, unsigned int)+0x8a>
  dc:	434b      	muls	r3, r1
  de:	18d1      	adds	r1, r2, r3
  e0:	54d0      	strb	r0, [r2, r3]
  e2:	4b79      	ldr	r3, [pc, #484]	; (2c8 <irq_handler_dmx_rdm_input(unsigned int, unsigned int)+0x2c8>)
  e4:	f8c1 3204 	str.w	r3, [r1, #516]	; 0x204
  e8:	2305      	movs	r3, #5
  ea:	f8c1 320c 	str.w	r3, [r1, #524]	; 0x20c
  ee:	e7f1      	b.n	d4 <irq_handler_dmx_rdm_input(unsigned int, unsigned int)+0xd4>
  f0:	fb03 2301 	mla	r3, r3, r1, r2
  f4:	f8d3 2204 	ldr.w	r2, [r3, #516]	; 0x204
  f8:	b295      	uxth	r5, r2
  fa:	3201      	adds	r2, #1
  fc:	f5b2 7f00 	cmp.w	r2, #512	; 0x200
 100:	5558      	strb	r0, [r3, r5]
 102:	f8c3 2204 	str.w	r2, [r3, #516]	; 0x204
 106:	d90a      	bls.n	11e <irq_handler_dmx_rdm_input(unsigned int, unsigned int)+0x11e>
 108:	f442 4200 	orr.w	r2, r2, #32768	; 0x8000
 10c:	f8c3 2204 	str.w	r2, [r3, #516]	; 0x204
 110:	2200      	movs	r2, #0
 112:	f8c3 220c 	str.w	r2, [r3, #524]	; 0x20c
 116:	2302      	movs	r3, #2
 118:	f8c4 3814 	str.w	r3, [r4, #2068]	; 0x814
 11c:	e7b5      	b.n	8a <irq_handler_dmx_rdm_input(unsigned int, unsigned int)+0x8a>
 11e:	f04f 4280 	mov.w	r2, #1073741824	; 0x40000000
 122:	4868      	ldr	r0, [pc, #416]	; (2c4 <irq_handler_dmx_rdm_input(unsigned int, unsigned int)+0x2c4>)
 124:	f8d2 5424 	ldr.w	r5, [r2, #1060]	; 0x424
 128:	eb00 1001 	add.w	r0, r0, r1, lsl #4
 12c:	68c3      	ldr	r3, [r0, #12]
 12e:	2902      	cmp	r1, #2
 130:	ebc3 0345 	rsb	r3, r3, r5, lsl #1
 134:	60c5      	str	r5, [r0, #12]
 136:	f103 0304 	add.w	r3, r3, #4
 13a:	d008      	beq.n	14e <irq_handler_dmx_rdm_input(unsigned int, unsigned int)+0x14e>
 13c:	2903      	cmp	r1, #3
 13e:	d009      	beq.n	154 <irq_handler_dmx_rdm_input(unsigned int, unsigned int)+0x154>
 140:	2901      	cmp	r1, #1
 142:	bf14      	ite	ne
 144:	f8c2 3434 	strne.w	r3, [r2, #1076]	; 0x434
 148:	f8c2 3438 	streq.w	r3, [r2, #1080]	; 0x438
 14c:	e79d      	b.n	8a <irq_handler_dmx_rdm_input(unsigned int, unsigned int)+0x8a>
 14e:	f8c2 343c 	str.w	r3, [r2, #1084]	; 0x43c
 152:	e79a      	b.n	8a <irq_handler_dmx_rdm_input(unsigned int, unsigned int)+0x8a>
 154:	f8c2 3440 	str.w	r3, [r2, #1088]	; 0x440
 158:	e797      	b.n	8a <irq_handler_dmx_rdm_input(unsigned int, unsigned int)+0x8a>
 15a:	fb03 2301 	mla	r3, r3, r1, r2
 15e:	f8b3 6204 	ldrh.w	r6, [r3, #516]	; 0x204
 162:	f8b3 7206 	ldrh.w	r7, [r3, #518]	; 0x206
 166:	5598      	strb	r0, [r3, r6]
 168:	1c75      	adds	r5, r6, #1
 16a:	3e17      	subs	r6, #23
 16c:	b2ad      	uxth	r5, r5
 16e:	4438      	add	r0, r7
 170:	2ee7      	cmp	r6, #231	; 0xe7
 172:	f8a3 5204 	strh.w	r5, [r3, #516]	; 0x204
 176:	f8a3 0206 	strh.w	r0, [r3, #518]	; 0x206
 17a:	d809      	bhi.n	190 <irq_handler_dmx_rdm_input(unsigned int, unsigned int)+0x190>
 17c:	7898      	ldrb	r0, [r3, #2]
 17e:	42a8      	cmp	r0, r5
 180:	d106      	bne.n	190 <irq_handler_dmx_rdm_input(unsigned int, unsigned int)+0x190>
 182:	2206      	movs	r2, #6
 184:	f8c3 220c 	str.w	r2, [r3, #524]	; 0x20c
 188:	2380      	movs	r3, #128	; 0x80
 18a:	f8c4 3410 	str.w	r3, [r4, #1040]	; 0x410
 18e:	e77c      	b.n	8a <irq_handler_dmx_rdm_input(unsigned int, unsigned int)+0x8a>
 190:	2dff      	cmp	r5, #255	; 0xff
 192:	f67f af7a 	bls.w	8a <irq_handler_dmx_rdm_input(unsigned int, unsigned int)+0x8a>
 196:	f44f 7304 	mov.w	r3, #528	; 0x210
 19a:	e781      	b.n	a0 <irq_handler_dmx_rdm_input(unsigned int, unsigned int)+0xa0>
 19c:	fb03 2301 	mla	r3, r3, r1, r2
 1a0:	f8b3 2204 	ldrh.w	r2, [r3, #516]	; 0x204
 1a4:	5498      	strb	r0, [r3, r2]
 1a6:	3201      	adds	r2, #1
 1a8:	f8a3 2204 	strh.w	r2, [r3, #516]	; 0x204
 1ac:	f8b3 2206 	ldrh.w	r2, [r3, #518]	; 0x206
 1b0:	eba2 2200 	sub.w	r2, r2, r0, lsl #8
 1b4:	f8a3 2206 	strh.w	r2, [r3, #518]	; 0x206
 1b8:	2207      	movs	r2, #7
 1ba:	e774      	b.n	a6 <irq_handler_dmx_rdm_input(unsigned int, unsigned int)+0xa6>
 1bc:	2380      	movs	r3, #128	; 0x80
 1be:	f8c4 3414 	str.w	r3, [r4, #1044]	; 0x414
 1c2:	f44f 7304 	mov.w	r3, #528	; 0x210
 1c6:	fb03 2301 	mla	r3, r3, r1, r2
 1ca:	f8b3 5204 	ldrh.w	r5, [r3, #516]	; 0x204
 1ce:	f8b3 6206 	ldrh.w	r6, [r3, #518]	; 0x206
 1d2:	5558      	strb	r0, [r3, r5]
 1d4:	3501      	adds	r5, #1
 1d6:	1a30      	subs	r0, r6, r0
 1d8:	b2ad      	uxth	r5, r5
 1da:	b280      	uxth	r0, r0
 1dc:	f8a3 5204 	strh.w	r5, [r3, #516]	; 0x204
 1e0:	f8a3 0206 	strh.w	r0, [r3, #518]	; 0x206
 1e4:	b910      	cbnz	r0, 1ec <irq_handler_dmx_rdm_input(unsigned int, unsigned int)+0x1ec>
 1e6:	7858      	ldrb	r0, [r3, #1]
 1e8:	2801      	cmp	r0, #1
 1ea:	d007      	beq.n	1fc <irq_handler_dmx_rdm_input(unsigned int, unsigned int)+0x1fc>
 1ec:	f44f 7304 	mov.w	r3, #528	; 0x210
 1f0:	2000      	movs	r0, #0
 1f2:	fb03 2301 	mla	r3, r3, r1, r2
 1f6:	f8c3 0204 	str.w	r0, [r3, #516]	; 0x204
 1fa:	e7cc      	b.n	196 <irq_handler_dmx_rdm_input(unsigned int, unsigned int)+0x196>
 1fc:	f445 4580 	orr.w	r5, r5, #16384	; 0x4000
 200:	f8a3 5204 	strh.w	r5, [r3, #516]	; 0x204
 204:	4b31      	ldr	r3, [pc, #196]	; (2cc <irq_handler_dmx_rdm_input(unsigned int, unsigned int)+0x2cc>)
 206:	6858      	ldr	r0, [r3, #4]
 208:	4b31      	ldr	r3, [pc, #196]	; (2d0 <irq_handler_dmx_rdm_input(unsigned int, unsigned int)+0x2d0>)
 20a:	6018      	str	r0, [r3, #0]
 20c:	2302      	movs	r3, #2
 20e:	f8c4 3814 	str.w	r3, [r4, #2068]	; 0x814
 212:	e7c0      	b.n	196 <irq_handler_dmx_rdm_input(unsigned int, unsigned int)+0x196>
 214:	fb03 2301 	mla	r3, r3, r1, r2
 218:	f8b3 5204 	ldrh.w	r5, [r3, #516]	; 0x204
 21c:	28aa      	cmp	r0, #170	; 0xaa
 21e:	5558      	strb	r0, [r3, r5]
 220:	f105 0501 	add.w	r5, r5, #1
 224:	b2ad      	uxth	r5, r5
 226:	f8a3 5204 	strh.w	r5, [r3, #516]	; 0x204
 22a:	d002      	beq.n	232 <irq_handler_dmx_rdm_input(unsigned int, unsigned int)+0x232>
 22c:	2d09      	cmp	r5, #9
 22e:	f47f af2c 	bne.w	8a <irq_handler_dmx_rdm_input(unsigned int, unsigned int)+0x8a>
 232:	f44f 7304 	mov.w	r3, #528	; 0x210
 236:	fb03 2301 	mla	r3, r3, r1, r2
 23a:	2200      	movs	r2, #0
 23c:	f8a3 2208 	strh.w	r2, [r3, #520]	; 0x208
 240:	2209      	movs	r2, #9
 242:	e730      	b.n	a6 <irq_handler_dmx_rdm_input(unsigned int, unsigned int)+0xa6>
 244:	fb03 2301 	mla	r3, r3, r1, r2
 248:	f8b3 2204 	ldrh.w	r2, [r3, #516]	; 0x204
 24c:	5498      	strb	r0, [r3, r2]
 24e:	3201      	adds	r2, #1
 250:	f8a3 2204 	strh.w	r2, [r3, #516]	; 0x204
 254:	f8b3 2208 	ldrh.w	r2, [r3, #520]	; 0x208
 258:	3201      	adds	r2, #1
 25a:	b292      	uxth	r2, r2
 25c:	2a0c      	cmp	r2, #12
 25e:	d002      	beq.n	266 <irq_handler_dmx_rdm_input(unsigned int, unsigned int)+0x266>
 260:	f8a3 2208 	strh.w	r2, [r3, #520]	; 0x208
 264:	e711      	b.n	8a <irq_handler_dmx_rdm_input(unsigned int, unsigned int)+0x8a>
 266:	2200      	movs	r2, #0
 268:	f8a3 2208 	strh.w	r2, [r3, #520]	; 0x208
 26c:	220a      	movs	r2, #10
 26e:	e71a      	b.n	a6 <irq_handler_dmx_rdm_input(unsigned int, unsigned int)+0xa6>
 270:	fb03 2301 	mla	r3, r3, r1, r2
 274:	f8b3 1208 	ldrh.w	r1, [r3, #520]	; 0x208
 278:	f8b3 2204 	ldrh.w	r2, [r3, #516]	; 0x204
 27c:	3101      	adds	r1, #1
 27e:	b289      	uxth	r1, r1
 280:	5498      	strb	r0, [r3, r2]
 282:	3201      	adds	r2, #1
 284:	b292      	uxth	r2, r2
 286:	2904      	cmp	r1, #4
 288:	f8a3 2204 	strh.w	r2, [r3, #516]	; 0x204
 28c:	f8a3 1208 	strh.w	r1, [r3, #520]	; 0x208
 290:	f47f aefb 	bne.w	8a <irq_handler_dmx_rdm_input(unsigned int, unsigned int)+0x8a>
 294:	2100      	movs	r1, #0
 296:	f442 4280 	orr.w	r2, r2, #16384	; 0x4000
 29a:	f8c3 120c 	str.w	r1, [r3, #524]	; 0x20c
 29e:	f8a3 2204 	strh.w	r2, [r3, #516]	; 0x204
 2a2:	4b0a      	ldr	r3, [pc, #40]	; (2cc <irq_handler_dmx_rdm_input(unsigned int, unsigned int)+0x2cc>)
 2a4:	685a      	ldr	r2, [r3, #4]
 2a6:	4b0a      	ldr	r3, [pc, #40]	; (2d0 <irq_handler_dmx_rdm_input(unsigned int, unsigned int)+0x2d0>)
 2a8:	601a      	str	r2, [r3, #0]
 2aa:	e6ee      	b.n	8a <irq_handler_dmx_rdm_input(unsigned int, unsigned int)+0x8a>
 2ac:	fb03 2201 	mla	r2, r3, r1, r2
 2b0:	2300      	movs	r3, #0
 2b2:	f8c2 3204 	str.w	r3, [r2, #516]	; 0x204
 2b6:	f8c2 320c 	str.w	r3, [r2, #524]	; 0x20c
 2ba:	e6e6      	b.n	8a <irq_handler_dmx_rdm_input(unsigned int, unsigned int)+0x8a>
 2bc:	40011000 	.word	0x40011000
	...
 2c8:	00cc0001 	.word	0x00cc0001
 2cc:	e0001000 	.word	0xe0001000
 2d0:	00000000 	.word	0x00000000

Disassembly of section .text.USART1_IRQHandler:

00000000 <USART1_IRQHandler>:
   0:	2100      	movs	r1, #0
   2:	4801      	ldr	r0, [pc, #4]	; (8 <USART1_IRQHandler+0x8>)
   4:	f7ff bffe 	b.w	0 <USART1_IRQHandler>
   8:	40004400 	.word	0x40004400

Disassembly of section .text.USART2_IRQHandler:

00000000 <USART2_IRQHandler>:
   0:	2101      	movs	r1, #1
   2:	4801      	ldr	r0, [pc, #4]	; (8 <USART2_IRQHandler+0x8>)
   4:	f7ff bffe 	b.w	0 <USART2_IRQHandler>
   8:	40004800 	.word	0x40004800

Disassembly of section .text.UART3_IRQHandler:

00000000 <UART3_IRQHandler>:
   0:	2102      	movs	r1, #2
   2:	4801      	ldr	r0, [pc, #4]	; (8 <UART3_IRQHandler+0x8>)
   4:	f7ff bffe 	b.w	0 <UART3_IRQHandler>
   8:	40004c00 	.word	0x40004c00

Disassembly of section .text.UART4_IRQHandler:

00000000 <UART4_IRQHandler>:
   0:	2103      	movs	r1, #3
   2:	4801      	ldr	r0, [pc, #4]	; (8 <UART4_IRQHandler+0x8>)
   4:	f7ff bffe 	b.w	0 <UART4_IRQHandler>
   8:	40005000 	.word	0x40005000

Disassembly of section .text.TIMER1_IRQHandler:

00000000 <TIMER1_IRQHandler>:
   0:	b5f8      	push	{r3, r4, r5, r6, r7, lr}
   2:	f3bf 8f5f 	dmb	sy
   6:	f04f 4380 	mov.w	r3, #1073741824	; 0x40000000
   a:	691f      	ldr	r7, [r3, #16]
   c:	2301      	movs	r3, #1
   e:	4d6f      	ldr	r5, [pc, #444]	; (1cc <TIMER1_IRQHandler+0x1cc>)
  10:	4e6f      	ldr	r6, [pc, #444]	; (1d0 <TIMER1_IRQHandler+0x1d0>)
  12:	882c      	ldrh	r4, [r5, #0]
  14:	f8c6 3810 	str.w	r3, [r6, #2064]	; 0x810
  18:	07bb      	lsls	r3, r7, #30
  1a:	b2a4      	uxth	r4, r4
  1c:	d546      	bpl.n	ac <TIMER1_IRQHandler+0xac>
  1e:	07e0      	lsls	r0, r4, #31
  20:	d50b      	bpl.n	3a <TIMER1_IRQHandler+0x3a>
  22:	882b      	ldrh	r3, [r5, #0]
  24:	2120      	movs	r1, #32
  26:	b29b      	uxth	r3, r3
  28:	f443 7380 	orr.w	r3, r3, #256	; 0x100
  2c:	4869      	ldr	r0, [pc, #420]	; (1d4 <TIMER1_IRQHandler+0x1d4>)
  2e:	802b      	strh	r3, [r5, #0]
  30:	f7ff fffe 	bl	0 <TIMER1_IRQHandler>
  34:	2320      	movs	r3, #32
  36:	f8c6 3414 	str.w	r3, [r6, #1044]	; 0x414
  3a:	07a1      	lsls	r1, r4, #30
  3c:	d50d      	bpl.n	5a <TIMER1_IRQHandler+0x5a>
  3e:	882b      	ldrh	r3, [r5, #0]
  40:	f44f 7180 	mov.w	r1, #256	; 0x100
  44:	b29b      	uxth	r3, r3
  46:	f443 7300 	orr.w	r3, r3, #512	; 0x200
  4a:	4862      	ldr	r0, [pc, #392]	; (1d4 <TIMER1_IRQHandler+0x1d4>)
  4c:	802b      	strh	r3, [r5, #0]
  4e:	f7ff fffe 	bl	0 <TIMER1_IRQHandler>
  52:	f44f 7380 	mov.w	r3, #256	; 0x100
  56:	f8c6 3414 	str.w	r3, [r6, #1044]	; 0x414
  5a:	0762      	lsls	r2, r4, #29
  5c:	d50c      	bpl.n	78 <TIMER1_IRQHandler+0x78>
  5e:	882b      	ldrh	r3, [r5, #0]
  60:	f44f 6180 	mov.w	r1, #1024	; 0x400
  64:	b29b      	uxth	r3, r3
  66:	f443 6380 	orr.w	r3, r3, #1024	; 0x400
  6a:	4859      	ldr	r0, [pc, #356]	; (1d0 <TIMER1_IRQHandler+0x1d0>)
  6c:	802b      	strh	r3, [r5, #0]
  6e:	f7ff fffe 	bl	0 <TIMER1_IRQHandler>
  72:	f44f 6380 	mov.w	r3, #1024	; 0x400
  76:	6173      	str	r3, [r6, #20]
  78:	0723      	lsls	r3, r4, #28
  7a:	d50c      	bpl.n	96 <TIMER1_IRQHandler+0x96>
  7c:	882b      	ldrh	r3, [r5, #0]
  7e:	f44f 5180 	mov.w	r1, #4096	; 0x1000
  82:	b29b      	uxth	r3, r3
  84:	f443 6300 	orr.w	r3, r3, #2048	; 0x800
  88:	4851      	ldr	r0, [pc, #324]	; (1d0 <TIMER1_IRQHandler+0x1d0>)
  8a:	802b      	strh	r3, [r5, #0]
  8c:	f7ff fffe 	bl	0 <TIMER1_IRQHandler>
  90:	f44f 5380 	mov.w	r3, #4096	; 0x1000
  94:	6173      	str	r3, [r6, #20]
  96:	4639      	mov	r1, r7
  98:	f04f 4080 	mov.w	r0, #1073741824	; 0x40000000
  9c:	f7ff fffe 	bl	0 <timer_interrupt_flag_clear>
  a0:	2301      	movs	r3, #1
  a2:	f8c6 3814 	str.w	r3, [r6, #2068]	; 0x814
  a6:	f3bf 8f5f 	dmb	sy
  aa:	bdf8      	pop	{r3, r4, r5, r6, r7, pc}
  ac:	077d      	lsls	r5, r7, #29
  ae:	d523      	bpl.n	f8 <TIMER1_IRQHandler+0xf8>
  b0:	05e0      	lsls	r0, r4, #23
  b2:	d505      	bpl.n	c0 <TIMER1_IRQHandler+0xc0>
  b4:	2320      	movs	r3, #32
  b6:	2203      	movs	r2, #3
  b8:	2118      	movs	r1, #24
  ba:	4846      	ldr	r0, [pc, #280]	; (1d4 <TIMER1_IRQHandler+0x1d4>)
  bc:	f7ff fffe 	bl	0 <gpio_init>
  c0:	05a1      	lsls	r1, r4, #22
  c2:	d506      	bpl.n	d2 <TIMER1_IRQHandler+0xd2>
  c4:	f44f 7380 	mov.w	r3, #256	; 0x100
  c8:	2203      	movs	r2, #3
  ca:	2118      	movs	r1, #24
  cc:	4841      	ldr	r0, [pc, #260]	; (1d4 <TIMER1_IRQHandler+0x1d4>)
  ce:	f7ff fffe 	bl	0 <gpio_init>
  d2:	0562      	lsls	r2, r4, #21
  d4:	d506      	bpl.n	e4 <TIMER1_IRQHandler+0xe4>
  d6:	f44f 6380 	mov.w	r3, #1024	; 0x400
  da:	2203      	movs	r2, #3
  dc:	2118      	movs	r1, #24
  de:	483c      	ldr	r0, [pc, #240]	; (1d0 <TIMER1_IRQHandler+0x1d0>)
  e0:	f7ff fffe 	bl	0 <gpio_init>
  e4:	0523      	lsls	r3, r4, #20
  e6:	d5d6      	bpl.n	96 <TIMER1_IRQHandler+0x96>
  e8:	f44f 5380 	mov.w	r3, #4096	; 0x1000
  ec:	2203      	movs	r2, #3
  ee:	2118      	movs	r1, #24
  f0:	4837      	ldr	r0, [pc, #220]	; (1d0 <TIMER1_IRQHandler+0x1d0>)
  f2:	f7ff fffe 	bl	0 <gpio_init>
  f6:	e7ce      	b.n	96 <TIMER1_IRQHandler+0x96>
  f8:	073d      	lsls	r5, r7, #28
  fa:	d5cc      	bpl.n	96 <TIMER1_IRQHandler+0x96>
  fc:	05e0      	lsls	r0, r4, #23
  fe:	d517      	bpl.n	130 <TIMER1_IRQHandler+0x130>
 100:	4b35      	ldr	r3, [pc, #212]	; (1d8 <TIMER1_IRQHandler+0x1d8>)
 102:	2180      	movs	r1, #128	; 0x80
 104:	f8d3 2080 	ldr.w	r2, [r3, #128]	; 0x80
 108:	4834      	ldr	r0, [pc, #208]	; (1dc <TIMER1_IRQHandler+0x1dc>)
 10a:	f022 0201 	bic.w	r2, r2, #1
 10e:	f8c3 2080 	str.w	r2, [r3, #128]	; 0x80
 112:	4a33      	ldr	r2, [pc, #204]	; (1e0 <TIMER1_IRQHandler+0x1e0>)
 114:	f8c3 208c 	str.w	r2, [r3, #140]	; 0x8c
 118:	f8b2 2202 	ldrh.w	r2, [r2, #514]	; 0x202
 11c:	f8c3 2084 	str.w	r2, [r3, #132]	; 0x84
 120:	f8d3 2080 	ldr.w	r2, [r3, #128]	; 0x80
 124:	f042 0201 	orr.w	r2, r2, #1
 128:	f8c3 2080 	str.w	r2, [r3, #128]	; 0x80
 12c:	f7ff fffe 	bl	0 <usart_dma_transmit_config>
 130:	05a1      	lsls	r1, r4, #22
 132:	d513      	bpl.n	15c <TIMER1_IRQHandler+0x15c>
 134:	4b28      	ldr	r3, [pc, #160]	; (1d8 <TIMER1_IRQHandler+0x1d8>)
 136:	482b      	ldr	r0, [pc, #172]	; (1e4 <TIMER1_IRQHandler+0x1e4>)
 138:	69da      	ldr	r2, [r3, #28]
 13a:	f022 0201 	bic.w	r2, r2, #1
 13e:	61da      	str	r2, [r3, #28]
 140:	4a27      	ldr	r2, [pc, #156]	; (1e0 <TIMER1_IRQHandler+0x1e0>)
 142:	f502 7101 	add.w	r1, r2, #516	; 0x204
 146:	f8b2 2406 	ldrh.w	r2, [r2, #1030]	; 0x406
 14a:	6299      	str	r1, [r3, #40]	; 0x28
 14c:	621a      	str	r2, [r3, #32]
 14e:	69da      	ldr	r2, [r3, #28]
 150:	2180      	movs	r1, #128	; 0x80
 152:	f042 0201 	orr.w	r2, r2, #1
 156:	61da      	str	r2, [r3, #28]
 158:	f7ff fffe 	bl	0 <usart_dma_transmit_config>
 15c:	0562      	lsls	r2, r4, #21
 15e:	d517      	bpl.n	190 <TIMER1_IRQHandler+0x190>
 160:	2104      	movs	r1, #4
 162:	4821      	ldr	r0, [pc, #132]	; (1e8 <TIMER1_IRQHandler+0x1e8>)
 164:	f7ff fffe 	bl	0 <dma_channel_disable>
 168:	4a1d      	ldr	r2, [pc, #116]	; (1e0 <TIMER1_IRQHandler+0x1e0>)
 16a:	4b1b      	ldr	r3, [pc, #108]	; (1d8 <TIMER1_IRQHandler+0x1d8>)
 16c:	f502 6181 	add.w	r1, r2, #1032	; 0x408
 170:	f8b2 260a 	ldrh.w	r2, [r2, #1546]	; 0x60a
 174:	f8c3 1464 	str.w	r1, [r3, #1124]	; 0x464
 178:	f8c3 245c 	str.w	r2, [r3, #1116]	; 0x45c
 17c:	f8d3 2458 	ldr.w	r2, [r3, #1112]	; 0x458
 180:	2180      	movs	r1, #128	; 0x80
 182:	f042 0201 	orr.w	r2, r2, #1
 186:	4819      	ldr	r0, [pc, #100]	; (1ec <TIMER1_IRQHandler+0x1ec>)
 188:	f8c3 2458 	str.w	r2, [r3, #1112]	; 0x458
 18c:	f7ff fffe 	bl	0 <usart_dma_transmit_config>
 190:	0523      	lsls	r3, r4, #20
 192:	d580      	bpl.n	96 <TIMER1_IRQHandler+0x96>
 194:	4b10      	ldr	r3, [pc, #64]	; (1d8 <TIMER1_IRQHandler+0x1d8>)
 196:	4816      	ldr	r0, [pc, #88]	; (1f0 <TIMER1_IRQHandler+0x1f0>)
 198:	f8d3 2444 	ldr.w	r2, [r3, #1092]	; 0x444
 19c:	f022 0201 	bic.w	r2, r2, #1
 1a0:	f8c3 2444 	str.w	r2, [r3, #1092]	; 0x444
 1a4:	4a0e      	ldr	r2, [pc, #56]	; (1e0 <TIMER1_IRQHandler+0x1e0>)
 1a6:	f202 610c 	addw	r1, r2, #1548	; 0x60c
 1aa:	f8b2 280e 	ldrh.w	r2, [r2, #2062]	; 0x80e
 1ae:	f8c3 1450 	str.w	r1, [r3, #1104]	; 0x450
 1b2:	f8c3 2448 	str.w	r2, [r3, #1096]	; 0x448
 1b6:	f8d3 2444 	ldr.w	r2, [r3, #1092]	; 0x444
 1ba:	2180      	movs	r1, #128	; 0x80
 1bc:	f042 0201 	orr.w	r2, r2, #1
 1c0:	f8c3 2444 	str.w	r2, [r3, #1092]	; 0x444
 1c4:	f7ff fffe 	bl	0 <usart_dma_transmit_config>
 1c8:	e765      	b.n	96 <TIMER1_IRQHandler+0x96>
 1ca:	bf00      	nop
 1cc:	00000000 	.word	0x00000000
 1d0:	40011000 	.word	0x40011000
 1d4:	40011400 	.word	0x40011400
 1d8:	40020000 	.word	0x40020000
 1dc:	40004400 	.word	0x40004400
 1e0:	00000000 	.word	0x00000000
 1e4:	40004800 	.word	0x40004800
 1e8:	40020400 	.word	0x40020400
 1ec:	40004c00 	.word	0x40004c00
 1f0:	40005000 	.word	0x40005000

Disassembly of section .text.TIMER2_IRQHandler:

00000000 <TIMER2_IRQHandler>:
   0:	b508      	push	{r3, lr}
   2:	f3bf 8f5f 	dmb	sy
   6:	f04f 4380 	mov.w	r3, #1073741824	; 0x40000000
   a:	f8d3 1410 	ldr.w	r1, [r3, #1040]	; 0x410
   e:	f011 0202 	ands.w	r2, r1, #2
  12:	d017      	beq.n	44 <TIMER2_IRQHandler+0x44>
  14:	4b24      	ldr	r3, [pc, #144]	; (a8 <TIMER2_IRQHandler+0xa8>)
  16:	f8d3 220c 	ldr.w	r2, [r3, #524]	; 0x20c
  1a:	2a04      	cmp	r2, #4
  1c:	d10c      	bne.n	38 <TIMER2_IRQHandler+0x38>
  1e:	2200      	movs	r2, #0
  20:	f8c3 220c 	str.w	r2, [r3, #524]	; 0x20c
  24:	f8d3 2204 	ldr.w	r2, [r3, #516]	; 0x204
  28:	f442 4200 	orr.w	r2, r2, #32768	; 0x8000
  2c:	f8c3 2204 	str.w	r2, [r3, #516]	; 0x204
  30:	2202      	movs	r2, #2
  32:	4b1e      	ldr	r3, [pc, #120]	; (ac <TIMER2_IRQHandler+0xac>)
  34:	f8c3 2814 	str.w	r2, [r3, #2068]	; 0x814
  38:	481d      	ldr	r0, [pc, #116]	; (b0 <TIMER2_IRQHandler+0xb0>)
  3a:	f7ff fffe 	bl	0 <timer_interrupt_flag_clear>
  3e:	f3bf 8f5f 	dmb	sy
  42:	bd08      	pop	{r3, pc}
  44:	f011 0004 	ands.w	r0, r1, #4
  48:	d00d      	beq.n	66 <TIMER2_IRQHandler+0x66>
  4a:	4b17      	ldr	r3, [pc, #92]	; (a8 <TIMER2_IRQHandler+0xa8>)
  4c:	f8d3 041c 	ldr.w	r0, [r3, #1052]	; 0x41c
  50:	2804      	cmp	r0, #4
  52:	d1f1      	bne.n	38 <TIMER2_IRQHandler+0x38>
  54:	f8c3 241c 	str.w	r2, [r3, #1052]	; 0x41c
  58:	f8d3 2414 	ldr.w	r2, [r3, #1044]	; 0x414
  5c:	f442 4200 	orr.w	r2, r2, #32768	; 0x8000
  60:	f8c3 2414 	str.w	r2, [r3, #1044]	; 0x414
  64:	e7e8      	b.n	38 <TIMER2_IRQHandler+0x38>
  66:	f011 0208 	ands.w	r2, r1, #8
  6a:	d00d      	beq.n	88 <TIMER2_IRQHandler+0x88>
  6c:	4b0e      	ldr	r3, [pc, #56]	; (a8 <TIMER2_IRQHandler+0xa8>)
  6e:	f8d3 262c 	ldr.w	r2, [r3, #1580]	; 0x62c
  72:	2a04      	cmp	r2, #4
  74:	d1e0      	bne.n	38 <TIMER2_IRQHandler+0x38>
  76:	f8d3 2624 	ldr.w	r2, [r3, #1572]	; 0x624
  7a:	f8c3 062c 	str.w	r0, [r3, #1580]	; 0x62c
  7e:	f442 4200 	orr.w	r2, r2, #32768	; 0x8000
  82:	f8c3 2624 	str.w	r2, [r3, #1572]	; 0x624
  86:	e7d7      	b.n	38 <TIMER2_IRQHandler+0x38>
  88:	06cb      	lsls	r3, r1, #27
  8a:	d5d5      	bpl.n	38 <TIMER2_IRQHandler+0x38>
  8c:	4b06      	ldr	r3, [pc, #24]	; (a8 <TIMER2_IRQHandler+0xa8>)
  8e:	f8d3 083c 	ldr.w	r0, [r3, #2108]	; 0x83c
  92:	2804      	cmp	r0, #4
  94:	bf01      	itttt	eq
  96:	f8c3 283c 	streq.w	r2, [r3, #2108]	; 0x83c
  9a:	f8d3 2834 	ldreq.w	r2, [r3, #2100]	; 0x834
  9e:	f442 4200 	orreq.w	r2, r2, #32768	; 0x8000
  a2:	f8c3 2834 	streq.w	r2, [r3, #2100]	; 0x834
  a6:	e7c7      	b.n	38 <TIMER2_IRQHandler+0x38>
  a8:	00000000 	.word	0x00000000
  ac:	40011000 	.word	0x40011000
  b0:	40000400 	.word	0x40000400

Disassembly of section .text.TIMER3_IRQHandler:

00000000 <TIMER3_IRQHandler>:
   0:	b508      	push	{r3, lr}
   2:	f3bf 8f5f 	dmb	sy
   6:	f04f 4380 	mov.w	r3, #1073741824	; 0x40000000
   a:	4804      	ldr	r0, [pc, #16]	; (1c <TIMER3_IRQHandler+0x1c>)
   c:	f8d3 1810 	ldr.w	r1, [r3, #2064]	; 0x810
  10:	f7ff fffe 	bl	0 <timer_interrupt_flag_clear>
  14:	f3bf 8f5f 	dmb	sy
  18:	bd08      	pop	{r3, pc}
  1a:	bf00      	nop
  1c:	40000800 	.word	0x40000800

Disassembly of section .text.TIMER6_IRQHandler:

00000000 <TIMER6_IRQHandler>:
   0:	b538      	push	{r3, r4, r5, lr}
   2:	f3bf 8f5f 	dmb	sy
   6:	2300      	movs	r3, #0
   8:	4809      	ldr	r0, [pc, #36]	; (30 <TIMER6_IRQHandler+0x30>)
   a:	eb00 1203 	add.w	r2, r0, r3, lsl #4
   e:	6851      	ldr	r1, [r2, #4]
  10:	6895      	ldr	r5, [r2, #8]
  12:	011c      	lsls	r4, r3, #4
  14:	1b49      	subs	r1, r1, r5
  16:	5101      	str	r1, [r0, r4]
  18:	6851      	ldr	r1, [r2, #4]
  1a:	3301      	adds	r3, #1
  1c:	2b04      	cmp	r3, #4
  1e:	6091      	str	r1, [r2, #8]
  20:	d1f3      	bne.n	a <TIMER6_IRQHandler+0xa>
  22:	2101      	movs	r1, #1
  24:	4803      	ldr	r0, [pc, #12]	; (34 <TIMER6_IRQHandler+0x34>)
  26:	f7ff fffe 	bl	0 <timer_interrupt_flag_clear>
  2a:	f3bf 8f5f 	dmb	sy
  2e:	bd38      	pop	{r3, r4, r5, pc}
  30:	00000000 	.word	0x00000000
  34:	40001400 	.word	0x40001400

Disassembly of section .text._ZN3Dmx9ClearDataEj:

00000000 <Dmx::ClearData(unsigned int)>:
   0:	f44f 7301 	mov.w	r3, #516	; 0x204
   4:	b510      	push	{r4, lr}
   6:	2400      	movs	r4, #0
   8:	4a08      	ldr	r2, [pc, #32]	; (2c <Dmx::ClearData(unsigned int)+0x2c>)
   a:	fb03 2301 	mla	r3, r3, r1, r2
   e:	f203 2002 	addw	r0, r3, #514	; 0x202
  12:	f823 4b02 	strh.w	r4, [r3], #2
  16:	4283      	cmp	r3, r0
  18:	d1fb      	bne.n	12 <Dmx::ClearData(unsigned int)+0x12>
  1a:	f44f 7301 	mov.w	r3, #516	; 0x204
  1e:	fb03 2201 	mla	r2, r3, r1, r2
  22:	f240 2301 	movw	r3, #513	; 0x201
  26:	f8a2 3202 	strh.w	r3, [r2, #514]	; 0x202
  2a:	bd10      	pop	{r4, pc}
  2c:	00000000 	.word	0x00000000

Disassembly of section .text._ZN3Dmx9StartDataEjj:

00000000 <Dmx::StartData(unsigned int, unsigned int)>:
   0:	b5f0      	push	{r4, r5, r6, r7, lr}
   2:	eb00 0082 	add.w	r0, r0, r2, lsl #2
   6:	6943      	ldr	r3, [r0, #20]
   8:	460c      	mov	r4, r1
   a:	4615      	mov	r5, r2
   c:	b085      	sub	sp, #20
   e:	2b00      	cmp	r3, #0
  10:	d16c      	bne.n	ec <Dmx::StartData(unsigned int, unsigned int)+0xec>
  12:	4e53      	ldr	r6, [pc, #332]	; (160 <Dmx::StartData(unsigned int, unsigned int)+0x160>)
  14:	8834      	ldrh	r4, [r6, #0]
  16:	b2a4      	uxth	r4, r4
  18:	2c00      	cmp	r4, #0
  1a:	d15b      	bne.n	d4 <Dmx::StartData(unsigned int, unsigned int)+0xd4>
  1c:	f44f 60e0 	mov.w	r0, #1792	; 0x700
  20:	f7ff fffe 	bl	0 <rcu_periph_clock_enable>
  24:	f04f 4080 	mov.w	r0, #1073741824	; 0x40000000
  28:	f7ff fffe 	bl	0 <timer_deinit>
  2c:	2377      	movs	r3, #119	; 0x77
  2e:	9300      	str	r3, [sp, #0]
  30:	4b4c      	ldr	r3, [pc, #304]	; (164 <Dmx::StartData(unsigned int, unsigned int)+0x164>)
  32:	4669      	mov	r1, sp
  34:	681b      	ldr	r3, [r3, #0]
  36:	f04f 4080 	mov.w	r0, #1073741824	; 0x40000000
  3a:	9302      	str	r3, [sp, #8]
  3c:	f8ad 4004 	strh.w	r4, [sp, #4]
  40:	f8ad 400c 	strh.w	r4, [sp, #12]
  44:	f88d 400e 	strb.w	r4, [sp, #14]
  48:	f7ff fffe 	bl	0 <timer_init>
  4c:	f04f 31ff 	mov.w	r1, #4294967295	; 0xffffffff
  50:	f04f 4080 	mov.w	r0, #1073741824	; 0x40000000
  54:	f7ff fffe 	bl	0 <timer_flag_clear>
  58:	f04f 31ff 	mov.w	r1, #4294967295	; 0xffffffff
  5c:	f04f 4080 	mov.w	r0, #1073741824	; 0x40000000
  60:	f7ff fffe 	bl	0 <timer_interrupt_flag_clear>
  64:	2210      	movs	r2, #16
  66:	4621      	mov	r1, r4
  68:	f04f 4080 	mov.w	r0, #1073741824	; 0x40000000
  6c:	f7ff fffe 	bl	0 <timer_channel_output_mode_config>
  70:	2210      	movs	r2, #16
  72:	2101      	movs	r1, #1
  74:	f04f 4080 	mov.w	r0, #1073741824	; 0x40000000
  78:	f7ff fffe 	bl	0 <timer_channel_output_mode_config>
  7c:	4f3a      	ldr	r7, [pc, #232]	; (168 <Dmx::StartData(unsigned int, unsigned int)+0x168>)
  7e:	2210      	movs	r2, #16
  80:	2102      	movs	r1, #2
  82:	f04f 4080 	mov.w	r0, #1073741824	; 0x40000000
  86:	f7ff fffe 	bl	0 <timer_channel_output_mode_config>
  8a:	4622      	mov	r2, r4
  8c:	4621      	mov	r1, r4
  8e:	f04f 4080 	mov.w	r0, #1073741824	; 0x40000000
  92:	f7ff fffe 	bl	0 <timer_channel_output_pulse_value_config>
  96:	2101      	movs	r1, #1
  98:	f04f 4080 	mov.w	r0, #1073741824	; 0x40000000
  9c:	883a      	ldrh	r2, [r7, #0]
  9e:	f7ff fffe 	bl	0 <timer_channel_output_pulse_value_config>
  a2:	4b32      	ldr	r3, [pc, #200]	; (16c <Dmx::StartData(unsigned int, unsigned int)+0x16c>)
  a4:	683a      	ldr	r2, [r7, #0]
  a6:	681b      	ldr	r3, [r3, #0]
  a8:	2102      	movs	r1, #2
  aa:	441a      	add	r2, r3
  ac:	b292      	uxth	r2, r2
  ae:	f04f 4080 	mov.w	r0, #1073741824	; 0x40000000
  b2:	f7ff fffe 	bl	0 <timer_channel_output_pulse_value_config>
  b6:	f04f 4080 	mov.w	r0, #1073741824	; 0x40000000
  ba:	210e      	movs	r1, #14
  bc:	f7ff fffe 	bl	0 <timer_interrupt_enable>
  c0:	f04f 5280 	mov.w	r2, #268435456	; 0x10000000
  c4:	4b2a      	ldr	r3, [pc, #168]	; (170 <Dmx::StartData(unsigned int, unsigned int)+0x170>)
  c6:	f04f 4080 	mov.w	r0, #1073741824	; 0x40000000
  ca:	f883 431c 	strb.w	r4, [r3, #796]	; 0x31c
  ce:	601a      	str	r2, [r3, #0]
  d0:	f7ff fffe 	bl	0 <timer_enable>
  d4:	2201      	movs	r2, #1
  d6:	8831      	ldrh	r1, [r6, #0]
  d8:	fa02 f305 	lsl.w	r3, r2, r5
  dc:	430b      	orrs	r3, r1
  de:	b29b      	uxth	r3, r3
  e0:	8033      	strh	r3, [r6, #0]
  e2:	4b24      	ldr	r3, [pc, #144]	; (174 <Dmx::StartData(unsigned int, unsigned int)+0x174>)
  e4:	f843 2025 	str.w	r2, [r3, r5, lsl #2]
  e8:	b005      	add	sp, #20
  ea:	bdf0      	pop	{r4, r5, r6, r7, pc}
  ec:	f44f 7204 	mov.w	r2, #528	; 0x210
  f0:	4b21      	ldr	r3, [pc, #132]	; (178 <Dmx::StartData(unsigned int, unsigned int)+0x178>)
  f2:	fb02 3305 	mla	r3, r2, r5, r3
  f6:	2200      	movs	r2, #0
  f8:	f8c3 220c 	str.w	r2, [r3, #524]	; 0x20c
  fc:	2107      	movs	r1, #7
  fe:	4620      	mov	r0, r4
 100:	f7ff fffe 	bl	0 <usart_flag_get>
 104:	2800      	cmp	r0, #0
 106:	d0f9      	beq.n	fc <Dmx::StartData(unsigned int, unsigned int)+0xfc>
 108:	4620      	mov	r0, r4
 10a:	491c      	ldr	r1, [pc, #112]	; (17c <Dmx::StartData(unsigned int, unsigned int)+0x17c>)
 10c:	f7ff fffe 	bl	0 <usart_interrupt_flag_clear>
 110:	f240 3105 	movw	r1, #773	; 0x305
 114:	4620      	mov	r0, r4
 116:	f7ff fffe 	bl	0 <usart_interrupt_enable>
 11a:	2202      	movs	r2, #2
 11c:	4b15      	ldr	r3, [pc, #84]	; (174 <Dmx::StartData(unsigned int, unsigned int)+0x174>)
 11e:	f843 2025 	str.w	r2, [r3, r5, lsl #2]
 122:	f04f 4380 	mov.w	r3, #1073741824	; 0x40000000
 126:	2d03      	cmp	r5, #3
 128:	d814      	bhi.n	154 <Dmx::StartData(unsigned int, unsigned int)+0x154>
 12a:	e8df f005 	tbb	[pc, r5]
 12e:	0902      	.short	0x0902
 130:	130e      	.short	0x130e
 132:	f8d3 240c 	ldr.w	r2, [r3, #1036]	; 0x40c
 136:	f042 0202 	orr.w	r2, r2, #2
 13a:	f8c3 240c 	str.w	r2, [r3, #1036]	; 0x40c
 13e:	e7d3      	b.n	e8 <Dmx::StartData(unsigned int, unsigned int)+0xe8>
 140:	f8d3 240c 	ldr.w	r2, [r3, #1036]	; 0x40c
 144:	f042 0204 	orr.w	r2, r2, #4
 148:	e7f7      	b.n	13a <Dmx::StartData(unsigned int, unsigned int)+0x13a>
 14a:	f8d3 240c 	ldr.w	r2, [r3, #1036]	; 0x40c
 14e:	f042 0208 	orr.w	r2, r2, #8
 152:	e7f2      	b.n	13a <Dmx::StartData(unsigned int, unsigned int)+0x13a>
 154:	f8d3 240c 	ldr.w	r2, [r3, #1036]	; 0x40c
 158:	f042 0210 	orr.w	r2, r2, #16
 15c:	e7ed      	b.n	13a <Dmx::StartData(unsigned int, unsigned int)+0x13a>
 15e:	bf00      	nop
	...
 170:	e000e100 	.word	0xe000e100
	...
 17c:	00050305 	.word	0x00050305

Disassembly of section .text._ZN3Dmx8StopDataEjj:

00000000 <Dmx::StopData(unsigned int, unsigned int)>:
   0:	e92d 41f0 	stmdb	sp!, {r4, r5, r6, r7, r8, lr}
   4:	4f2c      	ldr	r7, [pc, #176]	; (b8 <Dmx::StopData(unsigned int, unsigned int)+0xb8>)
   6:	4688      	mov	r8, r1
   8:	f857 3022 	ldr.w	r3, [r7, r2, lsl #2]
   c:	4614      	mov	r4, r2
   e:	b333      	cbz	r3, 5e <Dmx::StopData(unsigned int, unsigned int)+0x5e>
  10:	eb00 0082 	add.w	r0, r0, r2, lsl #2
  14:	6943      	ldr	r3, [r0, #20]
  16:	bb23      	cbnz	r3, 62 <Dmx::StopData(unsigned int, unsigned int)+0x62>
  18:	2601      	movs	r6, #1
  1a:	4d28      	ldr	r5, [pc, #160]	; (bc <Dmx::StopData(unsigned int, unsigned int)+0xbc>)
  1c:	fa06 f202 	lsl.w	r2, r6, r2
  20:	882b      	ldrh	r3, [r5, #0]
  22:	b29b      	uxth	r3, r3
  24:	ea23 0302 	bic.w	r3, r3, r2
  28:	802b      	strh	r3, [r5, #0]
  2a:	f3bf 8f5f 	dmb	sy
  2e:	882b      	ldrh	r3, [r5, #0]
  30:	f104 0208 	add.w	r2, r4, #8
  34:	b29b      	uxth	r3, r3
  36:	4096      	lsls	r6, r2
  38:	ea36 0303 	bics.w	r3, r6, r3
  3c:	d105      	bne.n	4a <Dmx::StopData(unsigned int, unsigned int)+0x4a>
  3e:	2107      	movs	r1, #7
  40:	4640      	mov	r0, r8
  42:	f7ff fffe 	bl	0 <usart_flag_get>
  46:	2801      	cmp	r0, #1
  48:	d1f9      	bne.n	3e <Dmx::StopData(unsigned int, unsigned int)+0x3e>
  4a:	882b      	ldrh	r3, [r5, #0]
  4c:	b29b      	uxth	r3, r3
  4e:	ea23 0306 	bic.w	r3, r3, r6
  52:	802b      	strh	r3, [r5, #0]
  54:	f3bf 8f4f 	dsb	sy
  58:	2300      	movs	r3, #0
  5a:	f847 3024 	str.w	r3, [r7, r4, lsl #2]
  5e:	e8bd 81f0 	ldmia.w	sp!, {r4, r5, r6, r7, r8, pc}
  62:	f240 3105 	movw	r1, #773	; 0x305
  66:	4640      	mov	r0, r8
  68:	f7ff fffe 	bl	0 <usart_interrupt_disable>
  6c:	f44f 7204 	mov.w	r2, #528	; 0x210
  70:	4b13      	ldr	r3, [pc, #76]	; (c0 <Dmx::StopData(unsigned int, unsigned int)+0xc0>)
  72:	fb02 3304 	mla	r3, r2, r4, r3
  76:	2200      	movs	r2, #0
  78:	f8c3 220c 	str.w	r2, [r3, #524]	; 0x20c
  7c:	f04f 4380 	mov.w	r3, #1073741824	; 0x40000000
  80:	2c03      	cmp	r4, #3
  82:	d814      	bhi.n	ae <Dmx::StopData(unsigned int, unsigned int)+0xae>
  84:	e8df f004 	tbb	[pc, r4]
  88:	130e0902 	.word	0x130e0902
  8c:	f8d3 240c 	ldr.w	r2, [r3, #1036]	; 0x40c
  90:	f022 0202 	bic.w	r2, r2, #2
  94:	f8c3 240c 	str.w	r2, [r3, #1036]	; 0x40c
  98:	e7de      	b.n	58 <Dmx::StopData(unsigned int, unsigned int)+0x58>
  9a:	f8d3 240c 	ldr.w	r2, [r3, #1036]	; 0x40c
  9e:	f022 0204 	bic.w	r2, r2, #4
  a2:	e7f7      	b.n	94 <Dmx::StopData(unsigned int, unsigned int)+0x94>
  a4:	f8d3 240c 	ldr.w	r2, [r3, #1036]	; 0x40c
  a8:	f022 0208 	bic.w	r2, r2, #8
  ac:	e7f2      	b.n	94 <Dmx::StopData(unsigned int, unsigned int)+0x94>
  ae:	f8d3 240c 	ldr.w	r2, [r3, #1036]	; 0x40c
  b2:	f022 0210 	bic.w	r2, r2, #16
  b6:	e7ed      	b.n	94 <Dmx::StopData(unsigned int, unsigned int)+0x94>
	...

Disassembly of section .text._ZN3Dmx16SetPortDirectionEjN3dmx13PortDirectionEb:

00000000 <Dmx::SetPortDirection(unsigned int, dmx::PortDirection, bool)>:
   0:	e92d 41f0 	stmdb	sp!, {r4, r5, r6, r7, r8, lr}
   4:	4616      	mov	r6, r2
   6:	461f      	mov	r7, r3
   8:	eb00 0381 	add.w	r3, r0, r1, lsl #2
   c:	695a      	ldr	r2, [r3, #20]
   e:	028d      	lsls	r5, r1, #10
  10:	f105 4580 	add.w	r5, r5, #1073741824	; 0x40000000
  14:	42b2      	cmp	r2, r6
  16:	4680      	mov	r8, r0
  18:	460c      	mov	r4, r1
  1a:	f505 4588 	add.w	r5, r5, #17408	; 0x4400
  1e:	d019      	beq.n	54 <Dmx::SetPortDirection(unsigned int, dmx::PortDirection, bool)+0x54>
  20:	460a      	mov	r2, r1
  22:	615e      	str	r6, [r3, #20]
  24:	4629      	mov	r1, r5
  26:	f7ff fffe 	bl	0 <Dmx::SetPortDirection(unsigned int, dmx::PortDirection, bool)>
  2a:	b94e      	cbnz	r6, 40 <Dmx::SetPortDirection(unsigned int, dmx::PortDirection, bool)+0x40>
  2c:	4b10      	ldr	r3, [pc, #64]	; (70 <Dmx::SetPortDirection(unsigned int, dmx::PortDirection, bool)+0x70>)
  2e:	f853 2034 	ldr.w	r2, [r3, r4, lsl #3]
  32:	eb03 03c4 	add.w	r3, r3, r4, lsl #3
  36:	685b      	ldr	r3, [r3, #4]
  38:	6113      	str	r3, [r2, #16]
  3a:	b967      	cbnz	r7, 56 <Dmx::SetPortDirection(unsigned int, dmx::PortDirection, bool)+0x56>
  3c:	e8bd 81f0 	ldmia.w	sp!, {r4, r5, r6, r7, r8, pc}
  40:	2e01      	cmp	r6, #1
  42:	d1fa      	bne.n	3a <Dmx::SetPortDirection(unsigned int, dmx::PortDirection, bool)+0x3a>
  44:	4b0a      	ldr	r3, [pc, #40]	; (70 <Dmx::SetPortDirection(unsigned int, dmx::PortDirection, bool)+0x70>)
  46:	f853 2034 	ldr.w	r2, [r3, r4, lsl #3]
  4a:	eb03 03c4 	add.w	r3, r3, r4, lsl #3
  4e:	685b      	ldr	r3, [r3, #4]
  50:	6153      	str	r3, [r2, #20]
  52:	e7f2      	b.n	3a <Dmx::SetPortDirection(unsigned int, dmx::PortDirection, bool)+0x3a>
  54:	b137      	cbz	r7, 64 <Dmx::SetPortDirection(unsigned int, dmx::PortDirection, bool)+0x64>
  56:	4622      	mov	r2, r4
  58:	4629      	mov	r1, r5
  5a:	4640      	mov	r0, r8
  5c:	e8bd 41f0 	ldmia.w	sp!, {r4, r5, r6, r7, r8, lr}
  60:	f7ff bffe 	b.w	0 <Dmx::SetPortDirection(unsigned int, dmx::PortDirection, bool)>
  64:	460a      	mov	r2, r1
  66:	4629      	mov	r1, r5
  68:	e8bd 41f0 	ldmia.w	sp!, {r4, r5, r6, r7, r8, lr}
  6c:	f7ff bffe 	b.w	0 <Dmx::SetPortDirection(unsigned int, dmx::PortDirection, bool)>
  70:	00000000 	.word	0x00000000

Disassembly of section .text._ZN3DmxC2Ev:

00000000 <Dmx::Dmx()>:
   0:	230c      	movs	r3, #12
   2:	225c      	movs	r2, #92	; 0x5c
   4:	e92d 43f0 	stmdb	sp!, {r4, r5, r6, r7, r8, r9, lr}
   8:	e9c0 2300 	strd	r2, r3, [r0]
   c:	f246 13a8 	movw	r3, #25000	; 0x61a8
  10:	e9c0 3302 	strd	r3, r3, [r0, #8]
  14:	f44f 7300 	mov.w	r3, #512	; 0x200
  18:	2500      	movs	r5, #0
  1a:	4606      	mov	r6, r0
  1c:	8203      	strh	r3, [r0, #16]
  1e:	4b8d      	ldr	r3, [pc, #564]	; (254 <Dmx::Dmx()+0x254>)
  20:	4f8d      	ldr	r7, [pc, #564]	; (258 <Dmx::Dmx()+0x258>)
  22:	6018      	str	r0, [r3, #0]
  24:	4b8d      	ldr	r3, [pc, #564]	; (25c <Dmx::Dmx()+0x25c>)
  26:	f8df 9238 	ldr.w	r9, [pc, #568]	; 260 <Dmx::Dmx()+0x260>
  2a:	f8df 8238 	ldr.w	r8, [pc, #568]	; 264 <Dmx::Dmx()+0x264>
  2e:	b089      	sub	sp, #36	; 0x24
  30:	801d      	strh	r5, [r3, #0]
  32:	2400      	movs	r4, #0
  34:	687b      	ldr	r3, [r7, #4]
  36:	2203      	movs	r2, #3
  38:	2110      	movs	r1, #16
  3a:	f857 0b08 	ldr.w	r0, [r7], #8
  3e:	f7ff fffe 	bl	0 <gpio_init>
  42:	4629      	mov	r1, r5
  44:	4630      	mov	r0, r6
  46:	f7ff fffe 	bl	0 <Dmx::Dmx()>
  4a:	4623      	mov	r3, r4
  4c:	f849 4025 	str.w	r4, [r9, r5, lsl #2]
  50:	2201      	movs	r2, #1
  52:	4630      	mov	r0, r6
  54:	f7ff fffe 	bl	0 <Dmx::Dmx()>
  58:	f44f 7304 	mov.w	r3, #528	; 0x210
  5c:	fb03 8305 	mla	r3, r3, r5, r8
  60:	3501      	adds	r5, #1
  62:	2d04      	cmp	r5, #4
  64:	f8c3 420c 	str.w	r4, [r3, #524]	; 0x20c
  68:	d1e3      	bne.n	32 <Dmx::Dmx()+0x32>
  6a:	2701      	movs	r7, #1
  6c:	f44f 5900 	mov.w	r9, #8192	; 0x2000
  70:	f44f 7880 	mov.w	r8, #256	; 0x100
  74:	f44f 60a0 	mov.w	r0, #1280	; 0x500
  78:	f7ff fffe 	bl	0 <rcu_periph_clock_enable>
  7c:	f240 5001 	movw	r0, #1281	; 0x501
  80:	f7ff fffe 	bl	0 <rcu_periph_clock_enable>
  84:	2106      	movs	r1, #6
  86:	4878      	ldr	r0, [pc, #480]	; (268 <Dmx::Dmx()+0x268>)
  88:	f7ff fffe 	bl	0 <dma_deinit>
  8c:	4b77      	ldr	r3, [pc, #476]	; (26c <Dmx::Dmx()+0x26c>)
  8e:	aa01      	add	r2, sp, #4
  90:	2106      	movs	r1, #6
  92:	4875      	ldr	r0, [pc, #468]	; (268 <Dmx::Dmx()+0x268>)
  94:	e9cd 3401 	strd	r3, r4, [sp, #4]
  98:	f8ad 801c 	strh.w	r8, [sp, #28]
  9c:	9404      	str	r4, [sp, #16]
  9e:	f8cd 9018 	str.w	r9, [sp, #24]
  a2:	f88d 701e 	strb.w	r7, [sp, #30]
  a6:	f7ff fffe 	bl	0 <dma_init>
  aa:	2106      	movs	r1, #6
  ac:	486e      	ldr	r0, [pc, #440]	; (268 <Dmx::Dmx()+0x268>)
  ae:	f7ff fffe 	bl	0 <dma_circulation_disable>
  b2:	2106      	movs	r1, #6
  b4:	486c      	ldr	r0, [pc, #432]	; (268 <Dmx::Dmx()+0x268>)
  b6:	f7ff fffe 	bl	0 <dma_memory_to_memory_disable>
  ba:	4639      	mov	r1, r7
  bc:	486a      	ldr	r0, [pc, #424]	; (268 <Dmx::Dmx()+0x268>)
  be:	f7ff fffe 	bl	0 <dma_deinit>
  c2:	4b6b      	ldr	r3, [pc, #428]	; (270 <Dmx::Dmx()+0x270>)
  c4:	aa01      	add	r2, sp, #4
  c6:	4639      	mov	r1, r7
  c8:	4867      	ldr	r0, [pc, #412]	; (268 <Dmx::Dmx()+0x268>)
  ca:	e9cd 3401 	strd	r3, r4, [sp, #4]
  ce:	f8ad 801c 	strh.w	r8, [sp, #28]
  d2:	9404      	str	r4, [sp, #16]
  d4:	f8cd 9018 	str.w	r9, [sp, #24]
  d8:	f88d 701e 	strb.w	r7, [sp, #30]
  dc:	f7ff fffe 	bl	0 <dma_init>
  e0:	4639      	mov	r1, r7
  e2:	4861      	ldr	r0, [pc, #388]	; (268 <Dmx::Dmx()+0x268>)
  e4:	f7ff fffe 	bl	0 <dma_circulation_disable>
  e8:	4639      	mov	r1, r7
  ea:	485f      	ldr	r0, [pc, #380]	; (268 <Dmx::Dmx()+0x268>)
  ec:	f7ff fffe 	bl	0 <dma_memory_to_memory_disable>
  f0:	4629      	mov	r1, r5
  f2:	4860      	ldr	r0, [pc, #384]	; (274 <Dmx::Dmx()+0x274>)
  f4:	f7ff fffe 	bl	0 <dma_deinit>
  f8:	4b5f      	ldr	r3, [pc, #380]	; (278 <Dmx::Dmx()+0x278>)
  fa:	aa01      	add	r2, sp, #4
  fc:	4629      	mov	r1, r5
  fe:	485d      	ldr	r0, [pc, #372]	; (274 <Dmx::Dmx()+0x274>)
 100:	e9cd 3401 	strd	r3, r4, [sp, #4]
 104:	f8ad 801c 	strh.w	r8, [sp, #28]
 108:	9404      	str	r4, [sp, #16]
 10a:	f8cd 9018 	str.w	r9, [sp, #24]
 10e:	f88d 701e 	strb.w	r7, [sp, #30]
 112:	f7ff fffe 	bl	0 <dma_init>
 116:	4629      	mov	r1, r5
 118:	4856      	ldr	r0, [pc, #344]	; (274 <Dmx::Dmx()+0x274>)
 11a:	f7ff fffe 	bl	0 <dma_circulation_disable>
 11e:	4629      	mov	r1, r5
 120:	4854      	ldr	r0, [pc, #336]	; (274 <Dmx::Dmx()+0x274>)
 122:	f7ff fffe 	bl	0 <dma_memory_to_memory_disable>
 126:	2103      	movs	r1, #3
 128:	4852      	ldr	r0, [pc, #328]	; (274 <Dmx::Dmx()+0x274>)
 12a:	f7ff fffe 	bl	0 <dma_deinit>
 12e:	4b53      	ldr	r3, [pc, #332]	; (27c <Dmx::Dmx()+0x27c>)
 130:	aa01      	add	r2, sp, #4
 132:	2103      	movs	r1, #3
 134:	484f      	ldr	r0, [pc, #316]	; (274 <Dmx::Dmx()+0x274>)
 136:	e9cd 3401 	strd	r3, r4, [sp, #4]
 13a:	f8ad 801c 	strh.w	r8, [sp, #28]
 13e:	9404      	str	r4, [sp, #16]
 140:	f8cd 9018 	str.w	r9, [sp, #24]
 144:	f88d 701e 	strb.w	r7, [sp, #30]
 148:	f7ff fffe 	bl	0 <dma_init>
 14c:	2103      	movs	r1, #3
 14e:	4849      	ldr	r0, [pc, #292]	; (274 <Dmx::Dmx()+0x274>)
 150:	f7ff fffe 	bl	0 <dma_circulation_disable>
 154:	2103      	movs	r1, #3
 156:	4847      	ldr	r0, [pc, #284]	; (274 <Dmx::Dmx()+0x274>)
 158:	f7ff fffe 	bl	0 <dma_memory_to_memory_disable>
 15c:	f240 7001 	movw	r0, #1793	; 0x701
 160:	f7ff fffe 	bl	0 <rcu_periph_clock_enable>
 164:	4846      	ldr	r0, [pc, #280]	; (280 <Dmx::Dmx()+0x280>)
 166:	f7ff fffe 	bl	0 <timer_deinit>
 16a:	f04f 38ff 	mov.w	r8, #4294967295	; 0xffffffff
 16e:	2377      	movs	r3, #119	; 0x77
 170:	a901      	add	r1, sp, #4
 172:	4843      	ldr	r0, [pc, #268]	; (280 <Dmx::Dmx()+0x280>)
 174:	9301      	str	r3, [sp, #4]
 176:	f8ad 4008 	strh.w	r4, [sp, #8]
 17a:	f8cd 800c 	str.w	r8, [sp, #12]
 17e:	f8ad 4010 	strh.w	r4, [sp, #16]
 182:	f88d 4012 	strb.w	r4, [sp, #18]
 186:	f7ff fffe 	bl	0 <timer_init>
 18a:	4641      	mov	r1, r8
 18c:	483c      	ldr	r0, [pc, #240]	; (280 <Dmx::Dmx()+0x280>)
 18e:	f7ff fffe 	bl	0 <timer_flag_clear>
 192:	4641      	mov	r1, r8
 194:	483a      	ldr	r0, [pc, #232]	; (280 <Dmx::Dmx()+0x280>)
 196:	f7ff fffe 	bl	0 <timer_interrupt_flag_clear>
 19a:	4621      	mov	r1, r4
 19c:	2210      	movs	r2, #16
 19e:	4838      	ldr	r0, [pc, #224]	; (280 <Dmx::Dmx()+0x280>)
 1a0:	f7ff fffe 	bl	0 <timer_channel_output_mode_config>
 1a4:	4639      	mov	r1, r7
 1a6:	2210      	movs	r2, #16
 1a8:	4835      	ldr	r0, [pc, #212]	; (280 <Dmx::Dmx()+0x280>)
 1aa:	f7ff fffe 	bl	0 <timer_channel_output_mode_config>
 1ae:	2210      	movs	r2, #16
 1b0:	2102      	movs	r1, #2
 1b2:	4833      	ldr	r0, [pc, #204]	; (280 <Dmx::Dmx()+0x280>)
 1b4:	f7ff fffe 	bl	0 <timer_channel_output_mode_config>
 1b8:	2210      	movs	r2, #16
 1ba:	2103      	movs	r1, #3
 1bc:	4830      	ldr	r0, [pc, #192]	; (280 <Dmx::Dmx()+0x280>)
 1be:	f7ff fffe 	bl	0 <timer_channel_output_mode_config>
 1c2:	f04f 5300 	mov.w	r3, #536870912	; 0x20000000
 1c6:	4d2f      	ldr	r5, [pc, #188]	; (284 <Dmx::Dmx()+0x284>)
 1c8:	482d      	ldr	r0, [pc, #180]	; (280 <Dmx::Dmx()+0x280>)
 1ca:	f885 431d 	strb.w	r4, [r5, #797]	; 0x31d
 1ce:	602b      	str	r3, [r5, #0]
 1d0:	f7ff fffe 	bl	0 <timer_enable>
 1d4:	f240 7005 	movw	r0, #1797	; 0x705
 1d8:	f7ff fffe 	bl	0 <rcu_periph_clock_enable>
 1dc:	482a      	ldr	r0, [pc, #168]	; (288 <Dmx::Dmx()+0x288>)
 1de:	f7ff fffe 	bl	0 <timer_deinit>
 1e2:	f642 63df 	movw	r3, #11999	; 0x2edf
 1e6:	f8ad 3004 	strh.w	r3, [sp, #4]
 1ea:	f242 7310 	movw	r3, #10000	; 0x2710
 1ee:	a901      	add	r1, sp, #4
 1f0:	4825      	ldr	r0, [pc, #148]	; (288 <Dmx::Dmx()+0x288>)
 1f2:	9303      	str	r3, [sp, #12]
 1f4:	f7ff fffe 	bl	0 <timer_init>
 1f8:	4641      	mov	r1, r8
 1fa:	4823      	ldr	r0, [pc, #140]	; (288 <Dmx::Dmx()+0x288>)
 1fc:	f7ff fffe 	bl	0 <timer_flag_clear>
 200:	4641      	mov	r1, r8
 202:	4821      	ldr	r0, [pc, #132]	; (288 <Dmx::Dmx()+0x288>)
 204:	f7ff fffe 	bl	0 <timer_interrupt_flag_clear>
 208:	4639      	mov	r1, r7
 20a:	481f      	ldr	r0, [pc, #124]	; (288 <Dmx::Dmx()+0x288>)
 20c:	f7ff fffe 	bl	0 <timer_interrupt_enable>
 210:	f44f 0300 	mov.w	r3, #8388608	; 0x800000
 214:	f885 4337 	strb.w	r4, [r5, #823]	; 0x337
 218:	481b      	ldr	r0, [pc, #108]	; (288 <Dmx::Dmx()+0x288>)
 21a:	606b      	str	r3, [r5, #4]
 21c:	f7ff fffe 	bl	0 <timer_enable>
 220:	481a      	ldr	r0, [pc, #104]	; (28c <Dmx::Dmx()+0x28c>)
 222:	f7ff fffe 	bl	0 <Dmx::Dmx()>
 226:	2340      	movs	r3, #64	; 0x40
 228:	4819      	ldr	r0, [pc, #100]	; (290 <Dmx::Dmx()+0x290>)
 22a:	606b      	str	r3, [r5, #4]
 22c:	f7ff fffe 	bl	0 <Dmx::Dmx()>
 230:	2380      	movs	r3, #128	; 0x80
 232:	4818      	ldr	r0, [pc, #96]	; (294 <Dmx::Dmx()+0x294>)
 234:	606b      	str	r3, [r5, #4]
 236:	f7ff fffe 	bl	0 <Dmx::Dmx()>
 23a:	f44f 1380 	mov.w	r3, #1048576	; 0x100000
 23e:	4816      	ldr	r0, [pc, #88]	; (298 <Dmx::Dmx()+0x298>)
 240:	606b      	str	r3, [r5, #4]
 242:	f7ff fffe 	bl	0 <Dmx::Dmx()>
 246:	f44f 1300 	mov.w	r3, #2097152	; 0x200000
 24a:	4630      	mov	r0, r6
 24c:	606b      	str	r3, [r5, #4]
 24e:	b009      	add	sp, #36	; 0x24
 250:	e8bd 83f0 	ldmia.w	sp!, {r4, r5, r6, r7, r8, r9, pc}
	...
 268:	40020000 	.word	0x40020000
 26c:	40004404 	.word	0x40004404
 270:	40004804 	.word	0x40004804
 274:	40020400 	.word	0x40020400
 278:	40004c04 	.word	0x40004c04
 27c:	40005004 	.word	0x40005004
 280:	40000400 	.word	0x40000400
 284:	e000e100 	.word	0xe000e100
 288:	40001400 	.word	0x40001400
 28c:	40004400 	.word	0x40004400
 290:	40004800 	.word	0x40004800
 294:	40004c00 	.word	0x40004c00
 298:	40005000 	.word	0x40005000

Disassembly of section .text._ZN3Dmx16SetDmxPeriodTimeEj:

00000000 <Dmx::SetDmxPeriodTime(unsigned int)>:
   0:	4a1a      	ldr	r2, [pc, #104]	; (6c <Dmx::SetDmxPeriodTime(unsigned int)+0x6c>)
   2:	b570      	push	{r4, r5, r6, lr}
   4:	f8b2 3202 	ldrh.w	r3, [r2, #514]	; 0x202
   8:	f8b2 4406 	ldrh.w	r4, [r2, #1030]	; 0x406
   c:	f64f 76d3 	movw	r6, #65491	; 0xffd3
  10:	42a3      	cmp	r3, r4
  12:	bf38      	it	cc
  14:	4623      	movcc	r3, r4
  16:	f8b2 460a 	ldrh.w	r4, [r2, #1546]	; 0x60a
  1a:	f8b2 280e 	ldrh.w	r2, [r2, #2062]	; 0x80e
  1e:	42a3      	cmp	r3, r4
  20:	bf38      	it	cc
  22:	4623      	movcc	r3, r4
  24:	4293      	cmp	r3, r2
  26:	bf38      	it	cc
  28:	4613      	movcc	r3, r2
  2a:	222c      	movs	r2, #44	; 0x2c
  2c:	4d10      	ldr	r5, [pc, #64]	; (70 <Dmx::SetDmxPeriodTime(unsigned int)+0x70>)
  2e:	4c11      	ldr	r4, [pc, #68]	; (74 <Dmx::SetDmxPeriodTime(unsigned int)+0x74>)
  30:	4353      	muls	r3, r2
  32:	60c1      	str	r1, [r0, #12]
  34:	6822      	ldr	r2, [r4, #0]
  36:	6828      	ldr	r0, [r5, #0]
  38:	4402      	add	r2, r0
  3a:	441a      	add	r2, r3
  3c:	42b2      	cmp	r2, r6
  3e:	d908      	bls.n	52 <Dmx::SetDmxPeriodTime(unsigned int)+0x52>
  40:	28b0      	cmp	r0, #176	; 0xb0
  42:	4602      	mov	r2, r0
  44:	bf28      	it	cs
  46:	22b0      	movcs	r2, #176	; 0xb0
  48:	200c      	movs	r0, #12
  4a:	602a      	str	r2, [r5, #0]
  4c:	4402      	add	r2, r0
  4e:	6020      	str	r0, [r4, #0]
  50:	441a      	add	r2, r3
  52:	b109      	cbz	r1, 58 <Dmx::SetDmxPeriodTime(unsigned int)+0x58>
  54:	428a      	cmp	r2, r1
  56:	d906      	bls.n	66 <Dmx::SetDmxPeriodTime(unsigned int)+0x66>
  58:	f240 43b4 	movw	r3, #1204	; 0x4b4
  5c:	f102 012c 	add.w	r1, r2, #44	; 0x2c
  60:	4299      	cmp	r1, r3
  62:	bf38      	it	cc
  64:	4619      	movcc	r1, r3
  66:	4b04      	ldr	r3, [pc, #16]	; (78 <Dmx::SetDmxPeriodTime(unsigned int)+0x78>)
  68:	6019      	str	r1, [r3, #0]
  6a:	bd70      	pop	{r4, r5, r6, pc}
	...

Disassembly of section .text._ZN3Dmx15SetDmxBreakTimeEj:

00000000 <Dmx::SetDmxBreakTime(unsigned int)>:
   0:	295c      	cmp	r1, #92	; 0x5c
   2:	bf38      	it	cc
   4:	215c      	movcc	r1, #92	; 0x5c
   6:	4b02      	ldr	r3, [pc, #8]	; (10 <Dmx::SetDmxBreakTime(unsigned int)+0x10>)
   8:	6019      	str	r1, [r3, #0]
   a:	68c1      	ldr	r1, [r0, #12]
   c:	f7ff bffe 	b.w	0 <Dmx::SetDmxBreakTime(unsigned int)>
  10:	00000000 	.word	0x00000000

Disassembly of section .text._ZN3Dmx13SetDmxMabTimeEj:

00000000 <Dmx::SetDmxMabTime(unsigned int)>:
   0:	290c      	cmp	r1, #12
   2:	bf38      	it	cc
   4:	210c      	movcc	r1, #12
   6:	4b02      	ldr	r3, [pc, #8]	; (10 <Dmx::SetDmxMabTime(unsigned int)+0x10>)
   8:	6019      	str	r1, [r3, #0]
   a:	68c1      	ldr	r1, [r0, #12]
   c:	f7ff bffe 	b.w	0 <Dmx::SetDmxMabTime(unsigned int)>
  10:	00000000 	.word	0x00000000

Disassembly of section .text._ZN3Dmx11SetDmxSlotsEt:

00000000 <Dmx::SetDmxSlots(unsigned short)>:
   0:	1e8b      	subs	r3, r1, #2
   2:	f5b3 7fff 	cmp.w	r3, #510	; 0x1fe
   6:	b410      	push	{r4}
   8:	d813      	bhi.n	32 <Dmx::SetDmxSlots(unsigned short)+0x32>
   a:	8201      	strh	r1, [r0, #16]
   c:	f100 0324 	add.w	r3, r0, #36	; 0x24
  10:	f100 0434 	add.w	r4, r0, #52	; 0x34
  14:	f853 2b04 	ldr.w	r2, [r3], #4
  18:	b12a      	cbz	r2, 26 <Dmx::SetDmxSlots(unsigned short)+0x26>
  1a:	4291      	cmp	r1, r2
  1c:	bf94      	ite	ls
  1e:	f843 1c04 	strls.w	r1, [r3, #-4]
  22:	f843 2c04 	strhi.w	r2, [r3, #-4]
  26:	42a3      	cmp	r3, r4
  28:	d1f4      	bne.n	14 <Dmx::SetDmxSlots(unsigned short)+0x14>
  2a:	68c1      	ldr	r1, [r0, #12]
  2c:	bc10      	pop	{r4}
  2e:	f7ff bffe 	b.w	0 <Dmx::SetDmxSlots(unsigned short)>
  32:	bc10      	pop	{r4}
  34:	4770      	bx	lr

Disassembly of section .text._ZN3Dmx11SetSendDataEjPKhj:

00000000 <Dmx::SetSendData(unsigned int, unsigned char const*, unsigned int)>:
   0:	b4f0      	push	{r4, r5, r6, r7}
   2:	8a04      	ldrh	r4, [r0, #16]
   4:	4d11      	ldr	r5, [pc, #68]	; (4c <Dmx::SetSendData(unsigned int, unsigned char const*, unsigned int)+0x4c>)
   6:	42a3      	cmp	r3, r4
   8:	bf28      	it	cs
   a:	4623      	movcs	r3, r4
   c:	f44f 7401 	mov.w	r4, #516	; 0x204
  10:	434c      	muls	r4, r1
  12:	1c5f      	adds	r7, r3, #1
  14:	192e      	adds	r6, r5, r4
  16:	f892 f000 	pld	[r2]
  1a:	3c01      	subs	r4, #1
  1c:	442c      	add	r4, r5
  1e:	f8a6 7202 	strh.w	r7, [r6, #514]	; 0x202
  22:	18d5      	adds	r5, r2, r3
  24:	4295      	cmp	r5, r2
  26:	d109      	bne.n	3c <Dmx::SetSendData(unsigned int, unsigned char const*, unsigned int)+0x3c>
  28:	eb00 0181 	add.w	r1, r0, r1, lsl #2
  2c:	6a4a      	ldr	r2, [r1, #36]	; 0x24
  2e:	429a      	cmp	r2, r3
  30:	d009      	beq.n	46 <Dmx::SetSendData(unsigned int, unsigned char const*, unsigned int)+0x46>
  32:	bcf0      	pop	{r4, r5, r6, r7}
  34:	624b      	str	r3, [r1, #36]	; 0x24
  36:	68c1      	ldr	r1, [r0, #12]
  38:	f7ff bffe 	b.w	0 <Dmx::SetSendData(unsigned int, unsigned char const*, unsigned int)>
  3c:	f812 6b01 	ldrb.w	r6, [r2], #1
  40:	f804 6f01 	strb.w	r6, [r4, #1]!
  44:	e7ee      	b.n	24 <Dmx::SetSendData(unsigned int, unsigned char const*, unsigned int)+0x24>
  46:	bcf0      	pop	{r4, r5, r6, r7}
  48:	4770      	bx	lr
  4a:	bf00      	nop
  4c:	00000000 	.word	0x00000000

Disassembly of section .text._ZN3Dmx24SetPortSendDataWithoutSCEjPKhj:

00000000 <Dmx::SetPortSendDataWithoutSC(unsigned int, unsigned char const*, unsigned int)>:
   0:	b4f0      	push	{r4, r5, r6, r7}
   2:	8a04      	ldrh	r4, [r0, #16]
   4:	4d11      	ldr	r5, [pc, #68]	; (4c <Dmx::SetPortSendDataWithoutSC(unsigned int, unsigned char const*, unsigned int)+0x4c>)
   6:	42a3      	cmp	r3, r4
   8:	bf28      	it	cs
   a:	4623      	movcs	r3, r4
   c:	f44f 7401 	mov.w	r4, #516	; 0x204
  10:	434c      	muls	r4, r1
  12:	1c5f      	adds	r7, r3, #1
  14:	192e      	adds	r6, r5, r4
  16:	f892 f000 	pld	[r2]
  1a:	3401      	adds	r4, #1
  1c:	442c      	add	r4, r5
  1e:	f8a6 7202 	strh.w	r7, [r6, #514]	; 0x202
  22:	18d5      	adds	r5, r2, r3
  24:	4295      	cmp	r5, r2
  26:	d109      	bne.n	3c <Dmx::SetPortSendDataWithoutSC(unsigned int, unsigned char const*, unsigned int)+0x3c>
  28:	eb00 0181 	add.w	r1, r0, r1, lsl #2
  2c:	6a4a      	ldr	r2, [r1, #36]	; 0x24
  2e:	429a      	cmp	r2, r3
  30:	d009      	beq.n	46 <Dmx::SetPortSendDataWithoutSC(unsigned int, unsigned char const*, unsigned int)+0x46>
  32:	bcf0      	pop	{r4, r5, r6, r7}
  34:	624b      	str	r3, [r1, #36]	; 0x24
  36:	68c1      	ldr	r1, [r0, #12]
  38:	f7ff bffe 	b.w	0 <Dmx::SetPortSendDataWithoutSC(unsigned int, unsigned char const*, unsigned int)>
  3c:	f812 6b01 	ldrb.w	r6, [r2], #1
  40:	f804 6b01 	strb.w	r6, [r4], #1
  44:	e7ee      	b.n	24 <Dmx::SetPortSendDataWithoutSC(unsigned int, unsigned char const*, unsigned int)+0x24>
  46:	bcf0      	pop	{r4, r5, r6, r7}
  48:	4770      	bx	lr
  4a:	bf00      	nop
  4c:	00000000 	.word	0x00000000

Disassembly of section .text._ZN3Dmx8BlackoutEv:

00000000 <Dmx::Blackout()>:
   0:	e92d 43f8 	stmdb	sp!, {r3, r4, r5, r6, r7, r8, r9, lr}
   4:	4f16      	ldr	r7, [pc, #88]	; (60 <Dmx::Blackout()+0x60>)
   6:	883b      	ldrh	r3, [r7, #0]
   8:	b29b      	uxth	r3, r3
   a:	b33b      	cbz	r3, 5c <Dmx::Blackout()+0x5c>
   c:	2408      	movs	r4, #8
   e:	f04f 0801 	mov.w	r8, #1
  12:	f04f 0900 	mov.w	r9, #0
  16:	4d13      	ldr	r5, [pc, #76]	; (64 <Dmx::Blackout()+0x64>)
  18:	f3bf 8f5f 	dmb	sy
  1c:	883b      	ldrh	r3, [r7, #0]
  1e:	fa08 f204 	lsl.w	r2, r8, r4
  22:	b29b      	uxth	r3, r3
  24:	439a      	bics	r2, r3
  26:	d114      	bne.n	52 <Dmx::Blackout()+0x52>
  28:	02a6      	lsls	r6, r4, #10
  2a:	f106 4680 	add.w	r6, r6, #1073741824	; 0x40000000
  2e:	f506 5610 	add.w	r6, r6, #9216	; 0x2400
  32:	2107      	movs	r1, #7
  34:	4630      	mov	r0, r6
  36:	f7ff fffe 	bl	0 <usart_flag_get>
  3a:	2801      	cmp	r0, #1
  3c:	d1f9      	bne.n	32 <Dmx::Blackout()+0x32>
  3e:	462b      	mov	r3, r5
  40:	f205 2202 	addw	r2, r5, #514	; 0x202
  44:	f823 9b02 	strh.w	r9, [r3], #2
  48:	4293      	cmp	r3, r2
  4a:	d1fb      	bne.n	44 <Dmx::Blackout()+0x44>
  4c:	f04f 0300 	mov.w	r3, #0
  50:	702b      	strb	r3, [r5, #0]
  52:	3401      	adds	r4, #1
  54:	2c0c      	cmp	r4, #12
  56:	f505 7501 	add.w	r5, r5, #516	; 0x204
  5a:	d1dd      	bne.n	18 <Dmx::Blackout()+0x18>
  5c:	e8bd 83f8 	ldmia.w	sp!, {r3, r4, r5, r6, r7, r8, r9, pc}
	...

Disassembly of section .text._ZN3Dmx6FullOnEv:

00000000 <Dmx::FullOn()>:
   0:	e92d 43f8 	stmdb	sp!, {r3, r4, r5, r6, r7, r8, r9, lr}
   4:	4f16      	ldr	r7, [pc, #88]	; (60 <Dmx::FullOn()+0x60>)
   6:	883b      	ldrh	r3, [r7, #0]
   8:	b29b      	uxth	r3, r3
   a:	b333      	cbz	r3, 5a <Dmx::FullOn()+0x5a>
   c:	2408      	movs	r4, #8
   e:	f04f 0801 	mov.w	r8, #1
  12:	f64f 79ff 	movw	r9, #65535	; 0xffff
  16:	4d13      	ldr	r5, [pc, #76]	; (64 <Dmx::FullOn()+0x64>)
  18:	f3bf 8f5f 	dmb	sy
  1c:	883b      	ldrh	r3, [r7, #0]
  1e:	fa08 f204 	lsl.w	r2, r8, r4
  22:	b29b      	uxth	r3, r3
  24:	439a      	bics	r2, r3
  26:	d113      	bne.n	50 <Dmx::FullOn()+0x50>
  28:	02a6      	lsls	r6, r4, #10
  2a:	f106 4680 	add.w	r6, r6, #1073741824	; 0x40000000
  2e:	f506 5610 	add.w	r6, r6, #9216	; 0x2400
  32:	2107      	movs	r1, #7
  34:	4630      	mov	r0, r6
  36:	f7ff fffe 	bl	0 <usart_flag_get>
  3a:	2801      	cmp	r0, #1
  3c:	d1f9      	bne.n	32 <Dmx::FullOn()+0x32>
  3e:	462b      	mov	r3, r5
  40:	f205 2202 	addw	r2, r5, #514	; 0x202
  44:	f823 9b02 	strh.w	r9, [r3], #2
  48:	4293      	cmp	r3, r2
  4a:	d1fb      	bne.n	44 <Dmx::FullOn()+0x44>
  4c:	2300      	movs	r3, #0
  4e:	702b      	strb	r3, [r5, #0]
  50:	3401      	adds	r4, #1
  52:	2c0c      	cmp	r4, #12
  54:	f505 7501 	add.w	r5, r5, #516	; 0x204
  58:	d1de      	bne.n	18 <Dmx::FullOn()+0x18>
  5a:	e8bd 83f8 	ldmia.w	sp!, {r3, r4, r5, r6, r7, r8, r9, pc}
  5e:	bf00      	nop
	...

Disassembly of section .text._ZN3Dmx15GetDmxAvailableEj:

00000000 <Dmx::GetDmxAvailable(unsigned int)>:
   0:	f44f 7204 	mov.w	r2, #528	; 0x210
   4:	4b07      	ldr	r3, [pc, #28]	; (24 <Dmx::GetDmxAvailable(unsigned int)+0x24>)
   6:	fb02 3101 	mla	r1, r2, r1, r3
   a:	f8d1 3204 	ldr.w	r3, [r1, #516]	; 0x204
   e:	f413 4000 	ands.w	r0, r3, #32768	; 0x8000
  12:	bf1f      	itttt	ne
  14:	f423 4300 	bicne.w	r3, r3, #32768	; 0x8000
  18:	f103 33ff 	addne.w	r3, r3, #4294967295	; 0xffffffff
  1c:	4608      	movne	r0, r1
  1e:	f8c1 3204 	strne.w	r3, [r1, #516]	; 0x204
  22:	4770      	bx	lr
  24:	00000000 	.word	0x00000000

Disassembly of section .text._ZN3Dmx13GetDmxChangedEj:

00000000 <Dmx::GetDmxChanged(unsigned int)>:
   0:	b570      	push	{r4, r5, r6, lr}
   2:	460c      	mov	r4, r1
   4:	f7ff fffe 	bl	0 <Dmx::GetDmxChanged(unsigned int)>
   8:	b1a0      	cbz	r0, 34 <Dmx::GetDmxChanged(unsigned int)+0x34>
   a:	f240 2202 	movw	r2, #514	; 0x202
   e:	490a      	ldr	r1, [pc, #40]	; (38 <Dmx::GetDmxChanged(unsigned int)+0x38>)
  10:	fb02 1104 	mla	r1, r2, r4, r1
  14:	2200      	movs	r2, #0
  16:	1e8b      	subs	r3, r1, #2
  18:	1e84      	subs	r4, r0, #2
  1a:	f501 7100 	add.w	r1, r1, #512	; 0x200
  1e:	f833 6f02 	ldrh.w	r6, [r3, #2]!
  22:	f834 5f02 	ldrh.w	r5, [r4, #2]!
  26:	42ae      	cmp	r6, r5
  28:	bf1c      	itt	ne
  2a:	2201      	movne	r2, #1
  2c:	801d      	strhne	r5, [r3, #0]
  2e:	428b      	cmp	r3, r1
  30:	d1f5      	bne.n	1e <Dmx::GetDmxChanged(unsigned int)+0x1e>
  32:	b902      	cbnz	r2, 36 <Dmx::GetDmxChanged(unsigned int)+0x36>
  34:	2000      	movs	r0, #0
  36:	bd70      	pop	{r4, r5, r6, pc}
  38:	00000000 	.word	0x00000000

Disassembly of section .text._ZN3Dmx17GetDmxCurrentDataEj:

00000000 <Dmx::GetDmxCurrentData(unsigned int)>:
   0:	f44f 7004 	mov.w	r0, #528	; 0x210
   4:	4b01      	ldr	r3, [pc, #4]	; (c <Dmx::GetDmxCurrentData(unsigned int)+0xc>)
   6:	fb00 3001 	mla	r0, r0, r1, r3
   a:	4770      	bx	lr
   c:	00000000 	.word	0x00000000

Disassembly of section .text._ZN3Dmx19GetUpdatesPerSecondEj:

00000000 <Dmx::GetUpdatesPerSecond(unsigned int)>:
   0:	f3bf 8f5f 	dmb	sy
   4:	4b01      	ldr	r3, [pc, #4]	; (c <Dmx::GetUpdatesPerSecond(unsigned int)+0xc>)
   6:	0109      	lsls	r1, r1, #4
   8:	5858      	ldr	r0, [r3, r1]
   a:	4770      	bx	lr
   c:	00000000 	.word	0x00000000

Disassembly of section .text._ZN3Dmx10RdmSendRawEjPKhj:

00000000 <Dmx::RdmSendRaw(unsigned int, unsigned char const*, unsigned int)>:
   0:	e92d 41f0 	stmdb	sp!, {r4, r5, r6, r7, r8, lr}
   4:	4615      	mov	r5, r2
   6:	4698      	mov	r8, r3
   8:	028f      	lsls	r7, r1, #10
   a:	f107 4480 	add.w	r4, r7, #1073741824	; 0x40000000
   e:	f504 4488 	add.w	r4, r4, #17408	; 0x4400
  12:	2106      	movs	r1, #6
  14:	4620      	mov	r0, r4
  16:	f7ff fffe 	bl	0 <usart_flag_get>
  1a:	2800      	cmp	r0, #0
  1c:	d0f9      	beq.n	12 <Dmx::RdmSendRaw(unsigned int, unsigned char const*, unsigned int)+0x12>
  1e:	4b32      	ldr	r3, [pc, #200]	; (e8 <Dmx::RdmSendRaw(unsigned int, unsigned char const*, unsigned int)+0xe8>)
  20:	4e32      	ldr	r6, [pc, #200]	; (ec <Dmx::RdmSendRaw(unsigned int, unsigned char const*, unsigned int)+0xec>)
  22:	429c      	cmp	r4, r3
  24:	d03a      	beq.n	9c <Dmx::RdmSendRaw(unsigned int, unsigned char const*, unsigned int)+0x9c>
  26:	d842      	bhi.n	ae <Dmx::RdmSendRaw(unsigned int, unsigned char const*, unsigned int)+0xae>
  28:	f5a3 6300 	sub.w	r3, r3, #2048	; 0x800
  2c:	429c      	cmp	r4, r3
  2e:	d12d      	bne.n	8c <Dmx::RdmSendRaw(unsigned int, unsigned char const*, unsigned int)+0x8c>
  30:	2120      	movs	r1, #32
  32:	482f      	ldr	r0, [pc, #188]	; (f0 <Dmx::RdmSendRaw(unsigned int, unsigned char const*, unsigned int)+0xf0>)
  34:	f7ff fffe 	bl	0 <Dmx::RdmSendRaw(unsigned int, unsigned char const*, unsigned int)>
  38:	2320      	movs	r3, #32
  3a:	f8c6 3414 	str.w	r3, [r6, #1044]	; 0x414
  3e:	2100      	movs	r1, #0
  40:	20b0      	movs	r0, #176	; 0xb0
  42:	f7ff fffe 	bl	0 <udelay(unsigned int, unsigned int)>
  46:	4b28      	ldr	r3, [pc, #160]	; (e8 <Dmx::RdmSendRaw(unsigned int, unsigned char const*, unsigned int)+0xe8>)
  48:	429c      	cmp	r4, r3
  4a:	d038      	beq.n	be <Dmx::RdmSendRaw(unsigned int, unsigned char const*, unsigned int)+0xbe>
  4c:	d83d      	bhi.n	ca <Dmx::RdmSendRaw(unsigned int, unsigned char const*, unsigned int)+0xca>
  4e:	f5a3 6300 	sub.w	r3, r3, #2048	; 0x800
  52:	429c      	cmp	r4, r3
  54:	bf0c      	ite	eq
  56:	2320      	moveq	r3, #32
  58:	f44f 7380 	movne.w	r3, #256	; 0x100
  5c:	2203      	movs	r2, #3
  5e:	2118      	movs	r1, #24
  60:	4823      	ldr	r0, [pc, #140]	; (f0 <Dmx::RdmSendRaw(unsigned int, unsigned char const*, unsigned int)+0xf0>)
  62:	f7ff fffe 	bl	0 <gpio_init>
  66:	2100      	movs	r1, #0
  68:	200c      	movs	r0, #12
  6a:	f7ff fffe 	bl	0 <udelay(unsigned int, unsigned int)>
  6e:	4e21      	ldr	r6, [pc, #132]	; (f4 <Dmx::RdmSendRaw(unsigned int, unsigned char const*, unsigned int)+0xf4>)
  70:	44a8      	add	r8, r5
  72:	443e      	add	r6, r7
  74:	4545      	cmp	r5, r8
  76:	d12b      	bne.n	d0 <Dmx::RdmSendRaw(unsigned int, unsigned char const*, unsigned int)+0xd0>
  78:	4d1e      	ldr	r5, [pc, #120]	; (f4 <Dmx::RdmSendRaw(unsigned int, unsigned char const*, unsigned int)+0xf4>)
  7a:	443d      	add	r5, r7
  7c:	2106      	movs	r1, #6
  7e:	4620      	mov	r0, r4
  80:	f7ff fffe 	bl	0 <usart_flag_get>
  84:	2801      	cmp	r0, #1
  86:	d12d      	bne.n	e4 <Dmx::RdmSendRaw(unsigned int, unsigned char const*, unsigned int)+0xe4>
  88:	e8bd 81f0 	ldmia.w	sp!, {r4, r5, r6, r7, r8, pc}
  8c:	f44f 7180 	mov.w	r1, #256	; 0x100
  90:	4817      	ldr	r0, [pc, #92]	; (f0 <Dmx::RdmSendRaw(unsigned int, unsigned char const*, unsigned int)+0xf0>)
  92:	f7ff fffe 	bl	0 <Dmx::RdmSendRaw(unsigned int, unsigned char const*, unsigned int)>
  96:	f44f 7380 	mov.w	r3, #256	; 0x100
  9a:	e7ce      	b.n	3a <Dmx::RdmSendRaw(unsigned int, unsigned char const*, unsigned int)+0x3a>
  9c:	f44f 6180 	mov.w	r1, #1024	; 0x400
  a0:	4630      	mov	r0, r6
  a2:	f7ff fffe 	bl	0 <Dmx::RdmSendRaw(unsigned int, unsigned char const*, unsigned int)>
  a6:	f44f 6380 	mov.w	r3, #1024	; 0x400
  aa:	6173      	str	r3, [r6, #20]
  ac:	e7c7      	b.n	3e <Dmx::RdmSendRaw(unsigned int, unsigned char const*, unsigned int)+0x3e>
  ae:	f44f 5180 	mov.w	r1, #4096	; 0x1000
  b2:	4630      	mov	r0, r6
  b4:	f7ff fffe 	bl	0 <Dmx::RdmSendRaw(unsigned int, unsigned char const*, unsigned int)>
  b8:	f44f 5380 	mov.w	r3, #4096	; 0x1000
  bc:	e7f5      	b.n	aa <Dmx::RdmSendRaw(unsigned int, unsigned char const*, unsigned int)+0xaa>
  be:	f44f 6380 	mov.w	r3, #1024	; 0x400
  c2:	2203      	movs	r2, #3
  c4:	2118      	movs	r1, #24
  c6:	4809      	ldr	r0, [pc, #36]	; (ec <Dmx::RdmSendRaw(unsigned int, unsigned char const*, unsigned int)+0xec>)
  c8:	e7cb      	b.n	62 <Dmx::RdmSendRaw(unsigned int, unsigned char const*, unsigned int)+0x62>
  ca:	f44f 5380 	mov.w	r3, #4096	; 0x1000
  ce:	e7f8      	b.n	c2 <Dmx::RdmSendRaw(unsigned int, unsigned char const*, unsigned int)+0xc2>
  d0:	2107      	movs	r1, #7
  d2:	4620      	mov	r0, r4
  d4:	f7ff fffe 	bl	0 <usart_flag_get>
  d8:	2800      	cmp	r0, #0
  da:	d0f9      	beq.n	d0 <Dmx::RdmSendRaw(unsigned int, unsigned char const*, unsigned int)+0xd0>
  dc:	f815 3b01 	ldrb.w	r3, [r5], #1
  e0:	6033      	str	r3, [r6, #0]
  e2:	e7c7      	b.n	74 <Dmx::RdmSendRaw(unsigned int, unsigned char const*, unsigned int)+0x74>
  e4:	682b      	ldr	r3, [r5, #0]
  e6:	e7c9      	b.n	7c <Dmx::RdmSendRaw(unsigned int, unsigned char const*, unsigned int)+0x7c>
  e8:	40004c00 	.word	0x40004c00
  ec:	40011000 	.word	0x40011000
  f0:	40011400 	.word	0x40011400
  f4:	40004404 	.word	0x40004404

Disassembly of section .text._ZN3Dmx10RdmReceiveEj:

00000000 <Dmx::RdmReceive(unsigned int)>:
   0:	f44f 7204 	mov.w	r2, #528	; 0x210
   4:	4b06      	ldr	r3, [pc, #24]	; (20 <Dmx::RdmReceive(unsigned int)+0x20>)
   6:	fb02 3101 	mla	r1, r2, r1, r3
   a:	f8b1 0204 	ldrh.w	r0, [r1, #516]	; 0x204
   e:	f410 4080 	ands.w	r0, r0, #16384	; 0x4000
  12:	bf1e      	ittt	ne
  14:	2300      	movne	r3, #0
  16:	4608      	movne	r0, r1
  18:	f8c1 3204 	strne.w	r3, [r1, #516]	; 0x204
  1c:	4770      	bx	lr
  1e:	bf00      	nop
  20:	00000000 	.word	0x00000000

Disassembly of section .text._ZN3Dmx17RdmReceiveTimeOutEjt:

00000000 <Dmx::RdmReceiveTimeOut(unsigned int, unsigned short)>:
   0:	b5f8      	push	{r3, r4, r5, r6, r7, lr}
   2:	2300      	movs	r3, #0
   4:	4605      	mov	r5, r0
   6:	460e      	mov	r6, r1
   8:	4614      	mov	r4, r2
   a:	4f05      	ldr	r7, [pc, #20]	; (20 <Dmx::RdmReceiveTimeOut(unsigned int, unsigned short)+0x20>)
   c:	627b      	str	r3, [r7, #36]	; 0x24
   e:	4631      	mov	r1, r6
  10:	4628      	mov	r0, r5
  12:	f7ff fffe 	bl	0 <Dmx::RdmReceiveTimeOut(unsigned int, unsigned short)>
  16:	b910      	cbnz	r0, 1e <Dmx::RdmReceiveTimeOut(unsigned int, unsigned short)+0x1e>
  18:	6a7b      	ldr	r3, [r7, #36]	; 0x24
  1a:	42a3      	cmp	r3, r4
  1c:	d3f7      	bcc.n	e <Dmx::RdmReceiveTimeOut(unsigned int, unsigned short)+0xe>
  1e:	bdf8      	pop	{r3, r4, r5, r6, r7, pc}
  20:	40001000 	.word	0x40001000

rdm.o:     file format elf32-littlearm


Disassembly of section .text._ZL6microsv:

00000000 <micros()>:
   0:	b510      	push	{r4, lr}
   2:	4a05      	ldr	r2, [pc, #20]	; (18 <micros()+0x18>)
   4:	4c05      	ldr	r4, [pc, #20]	; (1c <micros()+0x1c>)
   6:	6a51      	ldr	r1, [r2, #36]	; 0x24
   8:	f8d4 0c24 	ldr.w	r0, [r4, #3108]	; 0xc24
   c:	6a53      	ldr	r3, [r2, #36]	; 0x24
   e:	428b      	cmp	r3, r1
  10:	d1f9      	bne.n	6 <micros()+0x6>
  12:	ea40 4003 	orr.w	r0, r0, r3, lsl #16
  16:	bd10      	pop	{r4, pc}
  18:	40015000 	.word	0x40015000
  1c:	40014000 	.word	0x40014000

Disassembly of section .text._ZN3Rdm4SendEjP11TRdmMessagej:

00000000 <Rdm::Send(unsigned int, TRdmMessage*, unsigned int)>:
   0:	b5f8      	push	{r3, r4, r5, r6, r7, lr}
   2:	4605      	mov	r5, r0
   4:	460c      	mov	r4, r1
   6:	4616      	mov	r6, r2
   8:	b9d2      	cbnz	r2, 40 <Rdm::Send(unsigned int, TRdmMessage*, unsigned int)+0x40>
   a:	4e18      	ldr	r6, [pc, #96]	; (6c <Rdm::Send(unsigned int, TRdmMessage*, unsigned int)+0x6c>)
   c:	4622      	mov	r2, r4
   e:	5d73      	ldrb	r3, [r6, r5]
  10:	78a1      	ldrb	r1, [r4, #2]
  12:	73e3      	strb	r3, [r4, #15]
  14:	2300      	movs	r3, #0
  16:	1908      	adds	r0, r1, r4
  18:	4282      	cmp	r2, r0
  1a:	d122      	bne.n	62 <Rdm::Send(unsigned int, TRdmMessage*, unsigned int)+0x62>
  1c:	0a18      	lsrs	r0, r3, #8
  1e:	5460      	strb	r0, [r4, r1]
  20:	7053      	strb	r3, [r2, #1]
  22:	78a2      	ldrb	r2, [r4, #2]
  24:	4621      	mov	r1, r4
  26:	4628      	mov	r0, r5
  28:	3202      	adds	r2, #2
  2a:	f7ff fffe 	bl	0 <Rdm::SendRaw(unsigned int, unsigned char const*, unsigned int)>
  2e:	f7ff fffe 	bl	0 <Rdm::Send(unsigned int, TRdmMessage*, unsigned int)>
  32:	4b0f      	ldr	r3, [pc, #60]	; (70 <Rdm::Send(unsigned int, TRdmMessage*, unsigned int)+0x70>)
  34:	f843 0025 	str.w	r0, [r3, r5, lsl #2]
  38:	5d73      	ldrb	r3, [r6, r5]
  3a:	3301      	adds	r3, #1
  3c:	5573      	strb	r3, [r6, r5]
  3e:	bdf8      	pop	{r3, r4, r5, r6, r7, pc}
  40:	f7ff fffe 	bl	0 <Rdm::Send(unsigned int, TRdmMessage*, unsigned int)>
  44:	4b0a      	ldr	r3, [pc, #40]	; (70 <Rdm::Send(unsigned int, TRdmMessage*, unsigned int)+0x70>)
  46:	4607      	mov	r7, r0
  48:	f853 3025 	ldr.w	r3, [r3, r5, lsl #2]
  4c:	1ac2      	subs	r2, r0, r3
  4e:	4296      	cmp	r6, r2
  50:	d9db      	bls.n	a <Rdm::Send(unsigned int, TRdmMessage*, unsigned int)+0xa>
  52:	4433      	add	r3, r6
  54:	1a1e      	subs	r6, r3, r0
  56:	f7ff fffe 	bl	0 <Rdm::Send(unsigned int, TRdmMessage*, unsigned int)>
  5a:	1bc0      	subs	r0, r0, r7
  5c:	42b0      	cmp	r0, r6
  5e:	d3fa      	bcc.n	56 <Rdm::Send(unsigned int, TRdmMessage*, unsigned int)+0x56>
  60:	e7d3      	b.n	a <Rdm::Send(unsigned int, TRdmMessage*, unsigned int)+0xa>
  62:	f812 7b01 	ldrb.w	r7, [r2], #1
  66:	443b      	add	r3, r7
  68:	b29b      	uxth	r3, r3
  6a:	e7d5      	b.n	18 <Rdm::Send(unsigned int, TRdmMessage*, unsigned int)+0x18>
	...

Disassembly of section .text._ZN3Rdm21SendRawRespondMessageEjPKhj:

00000000 <Rdm::SendRawRespondMessage(unsigned int, unsigned char const*, unsigned int)>:
   0:	b570      	push	{r4, r5, r6, lr}
   2:	4604      	mov	r4, r0
   4:	460d      	mov	r5, r1
   6:	4616      	mov	r6, r2
   8:	4b05      	ldr	r3, [pc, #20]	; (20 <Rdm::SendRawRespondMessage(unsigned int, unsigned char const*, unsigned int)+0x20>)
   a:	20c8      	movs	r0, #200	; 0xc8
   c:	6819      	ldr	r1, [r3, #0]
   e:	f7ff fffe 	bl	0 <udelay(unsigned int, unsigned int)>
  12:	4632      	mov	r2, r6
  14:	4629      	mov	r1, r5
  16:	4620      	mov	r0, r4
  18:	e8bd 4070 	ldmia.w	sp!, {r4, r5, r6, lr}
  1c:	f7ff bffe 	b.w	0 <Rdm::SendRaw(unsigned int, unsigned char const*, unsigned int)>
  20:	00000000 	.word	0x00000000

Disassembly of section .text._ZN3Rdm27SendDiscoveryRespondMessageEjPKhj:

00000000 <Rdm::SendDiscoveryRespondMessage(unsigned int, unsigned char const*, unsigned int)>:
   0:	4b1f      	ldr	r3, [pc, #124]	; (80 <Rdm::SendDiscoveryRespondMessage(unsigned int, unsigned char const*, unsigned int)+0x80>)
   2:	e92d 47f0 	stmdb	sp!, {r4, r5, r6, r7, r8, r9, sl, lr}
   6:	4605      	mov	r5, r0
   8:	460c      	mov	r4, r1
   a:	20c8      	movs	r0, #200	; 0xc8
   c:	6819      	ldr	r1, [r3, #0]
   e:	4616      	mov	r6, r2
  10:	f7ff fffe 	bl	0 <udelay(unsigned int, unsigned int)>
  14:	2300      	movs	r3, #0
  16:	4f1b      	ldr	r7, [pc, #108]	; (84 <Rdm::SendDiscoveryRespondMessage(unsigned int, unsigned char const*, unsigned int)+0x84>)
  18:	461a      	mov	r2, r3
  1a:	4629      	mov	r1, r5
  1c:	6838      	ldr	r0, [r7, #0]
  1e:	f7ff fffe 	bl	0 <Dmx::SetPortDirection(unsigned int, dmx::PortDirection, bool)>
  22:	ea4f 2985 	mov.w	r9, r5, lsl #10
  26:	f8df a060 	ldr.w	sl, [pc, #96]	; 88 <Rdm::SendDiscoveryRespondMessage(unsigned int, unsigned char const*, unsigned int)+0x88>
  2a:	f109 4880 	add.w	r8, r9, #1073741824	; 0x40000000
  2e:	f508 4888 	add.w	r8, r8, #17408	; 0x4400
  32:	4426      	add	r6, r4
  34:	44ca      	add	sl, r9
  36:	42b4      	cmp	r4, r6
  38:	d114      	bne.n	64 <Rdm::SendDiscoveryRespondMessage(unsigned int, unsigned char const*, unsigned int)+0x64>
  3a:	4e13      	ldr	r6, [pc, #76]	; (88 <Rdm::SendDiscoveryRespondMessage(unsigned int, unsigned char const*, unsigned int)+0x88>)
  3c:	444e      	add	r6, r9
  3e:	2106      	movs	r1, #6
  40:	4640      	mov	r0, r8
  42:	f7ff fffe 	bl	0 <usart_flag_get>
  46:	2801      	cmp	r0, #1
  48:	4604      	mov	r4, r0
  4a:	d116      	bne.n	7a <Rdm::SendDiscoveryRespondMessage(unsigned int, unsigned char const*, unsigned int)+0x7a>
  4c:	2100      	movs	r1, #0
  4e:	2004      	movs	r0, #4
  50:	f7ff fffe 	bl	0 <udelay(unsigned int, unsigned int)>
  54:	4623      	mov	r3, r4
  56:	4622      	mov	r2, r4
  58:	4629      	mov	r1, r5
  5a:	6838      	ldr	r0, [r7, #0]
  5c:	e8bd 47f0 	ldmia.w	sp!, {r4, r5, r6, r7, r8, r9, sl, lr}
  60:	f7ff bffe 	b.w	0 <Dmx::SetPortDirection(unsigned int, dmx::PortDirection, bool)>
  64:	2107      	movs	r1, #7
  66:	4640      	mov	r0, r8
  68:	f7ff fffe 	bl	0 <usart_flag_get>
  6c:	2800      	cmp	r0, #0
  6e:	d0f9      	beq.n	64 <Rdm::SendDiscoveryRespondMessage(unsigned int, unsigned char const*, unsigned int)+0x64>
  70:	f814 3b01 	ldrb.w	r3, [r4], #1
  74:	f8ca 3000 	str.w	r3, [sl]
  78:	e7dd      	b.n	36 <Rdm::SendDiscoveryRespondMessage(unsigned int, unsigned char const*, unsigned int)+0x36>
  7a:	6833      	ldr	r3, [r6, #0]
  7c:	e7df      	b.n	3e <Rdm::SendDiscoveryRespondMessage(unsigned int, unsigned char const*, unsigned int)+0x3e>
  7e:	bf00      	nop
	...
  88:	40004404 	.word	0x40004404

dmxconfigudp.o:     file format elf32-littlearm

